   1              		.cpu cortex-m0
   2              		.fpu softvfp
   3              		.eabi_attribute 20, 1
   4              		.eabi_attribute 21, 1
   5              		.eabi_attribute 23, 3
   6              		.eabi_attribute 24, 1
   7              		.eabi_attribute 25, 1
   8              		.eabi_attribute 26, 1
   9              		.eabi_attribute 30, 6
  10              		.eabi_attribute 34, 0
  11              		.eabi_attribute 18, 4
  12              		.code	16
  13              		.file	"main.c"
  14              		.text
  15              	.Ltext0:
  16              		.cfi_sections	.debug_frame
  17              		.global	media
  18              		.section	.data.media,"aw",%progbits
  19              		.align	2
  22              	media:
  23 0000 40000000 		.word	64
  24              		.global	__aeabi_i2d
  25              		.global	__aeabi_ddiv
  26              		.global	__aeabi_d2f
  27              		.global	__aeabi_fadd
  28              		.global	__aeabi_f2d
  29              		.global	__aeabi_fsub
  30              		.global	__aeabi_dsub
  31              		.global	__aeabi_dcmpgt
  32              		.global	__aeabi_dcmple
  33              		.global	__aeabi_dadd
  34              		.global	__aeabi_fcmplt
  35              		.global	__aeabi_dcmplt
  36              		.global	__aeabi_dmul
  37              		.section	.text.fuzzy,"ax",%progbits
  38              		.align	2
  39              		.global	fuzzy
  40              		.code	16
  41              		.thumb_func
  43              	fuzzy:
  44              	.LFB0:
  45              		.file 1 "../Sources/main.c"
   1:../Sources/main.c **** #include "derivative.h" /* include peripheral declarations */
   2:../Sources/main.c **** #include "TFC\TFC.h"
   3:../Sources/main.c **** int media = 64;
   4:../Sources/main.c **** 
   5:../Sources/main.c **** void fuzzy(void) {
  46              		.loc 1 5 0
  47              		.cfi_startproc
  48 0000 F0B5     		push	{r4, r5, r6, r7, lr}
  49              	.LCFI0:
  50              		.cfi_def_cfa_offset 20
  51              		.cfi_offset 4, -20
  52              		.cfi_offset 5, -16
  53              		.cfi_offset 6, -12
  54              		.cfi_offset 7, -8
  55              		.cfi_offset 14, -4
  56 0002 D54C     		ldr	r4, .L339+40
  57 0004 A544     		add	sp, sp, r4
  58              	.LCFI1:
  59              		.cfi_def_cfa_offset 968
  60 0006 00AF     		add	r7, sp, #0
  61              	.LCFI2:
  62              		.cfi_def_cfa_register 7
   6:../Sources/main.c **** 
   7:../Sources/main.c **** 	int spd =18000;
  63              		.loc 1 7 0
  64 0008 D44B     		ldr	r3, .L339+44
  65 000a CF21     		mov	r1, #207
  66 000c 8900     		lsl	r1, r1, #2
  67 000e C919     		add	r1, r1, r7
  68 0010 0B60     		str	r3, [r1]
   8:../Sources/main.c **** 	int i = 0;
  69              		.loc 1 8 0
  70 0012 0023     		mov	r3, #0
  71 0014 EB22     		mov	r2, #235
  72 0016 9200     		lsl	r2, r2, #2
  73 0018 D219     		add	r2, r2, r7
  74 001a 1360     		str	r3, [r2]
   9:../Sources/main.c **** 	double grauvl = 0;
  75              		.loc 1 9 0
  76 001c C54C     		ldr	r4, .L339+4
  77 001e C44B     		ldr	r3, .L339
  78 0020 E821     		mov	r1, #232
  79 0022 8900     		lsl	r1, r1, #2
  80 0024 C919     		add	r1, r1, r7
  81 0026 0B60     		str	r3, [r1]
  82 0028 4C60     		str	r4, [r1, #4]
  10:../Sources/main.c **** 	volatile float graul = 0;
  83              		.loc 1 10 0
  84 002a 0023     		mov	r3, #0
  85 002c CB22     		mov	r2, #203
  86 002e 9200     		lsl	r2, r2, #2
  87 0030 D219     		add	r2, r2, r7
  88 0032 1360     		str	r3, [r2]
  11:../Sources/main.c **** 	volatile float graum = 0;
  89              		.loc 1 11 0
  90 0034 0023     		mov	r3, #0
  91 0036 CA24     		mov	r4, #202
  92 0038 A400     		lsl	r4, r4, #2
  93 003a E419     		add	r4, r4, r7
  94 003c 2360     		str	r3, [r4]
  12:../Sources/main.c **** 	double graur = 0;
  95              		.loc 1 12 0
  96 003e BD4C     		ldr	r4, .L339+4
  97 0040 BB4B     		ldr	r3, .L339
  98 0042 E621     		mov	r1, #230
  99 0044 8900     		lsl	r1, r1, #2
 100 0046 C919     		add	r1, r1, r7
 101 0048 0B60     		str	r3, [r1]
 102 004a 4C60     		str	r4, [r1, #4]
  13:../Sources/main.c **** 	double grauvr = 0;
 103              		.loc 1 13 0
 104 004c B94C     		ldr	r4, .L339+4
 105 004e B84B     		ldr	r3, .L339
 106 0050 E422     		mov	r2, #228
 107 0052 9200     		lsl	r2, r2, #2
 108 0054 D219     		add	r2, r2, r7
 109 0056 1360     		str	r3, [r2]
 110 0058 5460     		str	r4, [r2, #4]
  14:../Sources/main.c **** 	volatile float grausl = 0;
 111              		.loc 1 14 0
 112 005a 0023     		mov	r3, #0
 113 005c C924     		mov	r4, #201
 114 005e A400     		lsl	r4, r4, #2
 115 0060 E419     		add	r4, r4, r7
 116 0062 2360     		str	r3, [r4]
  15:../Sources/main.c **** 	volatile float grauf = 0;
 117              		.loc 1 15 0
 118 0064 0023     		mov	r3, #0
 119 0066 C821     		mov	r1, #200
 120 0068 8900     		lsl	r1, r1, #2
 121 006a C919     		add	r1, r1, r7
 122 006c 0B60     		str	r3, [r1]
  16:../Sources/main.c **** 	double graura = 0;
 123              		.loc 1 16 0
 124 006e B14C     		ldr	r4, .L339+4
 125 0070 AF4B     		ldr	r3, .L339
 126 0072 E222     		mov	r2, #226
 127 0074 9200     		lsl	r2, r2, #2
 128 0076 D219     		add	r2, r2, r7
 129 0078 1360     		str	r3, [r2]
 130 007a 5460     		str	r4, [r2, #4]
  17:../Sources/main.c **** 	double ns = 0;
 131              		.loc 1 17 0
 132 007c AD4C     		ldr	r4, .L339+4
 133 007e AC4B     		ldr	r3, .L339
 134 0080 E021     		mov	r1, #224
 135 0082 8900     		lsl	r1, r1, #2
 136 0084 C919     		add	r1, r1, r7
 137 0086 0B60     		str	r3, [r1]
 138 0088 4C60     		str	r4, [r1, #4]
  18:../Sources/main.c **** 	double nb = 0;
 139              		.loc 1 18 0
 140 008a AA4C     		ldr	r4, .L339+4
 141 008c A84B     		ldr	r3, .L339
 142 008e DE22     		mov	r2, #222
 143 0090 9200     		lsl	r2, r2, #2
 144 0092 D219     		add	r2, r2, r7
 145 0094 1360     		str	r3, [r2]
 146 0096 5460     		str	r4, [r2, #4]
  19:../Sources/main.c **** 	double z = 0;
 147              		.loc 1 19 0
 148 0098 A64C     		ldr	r4, .L339+4
 149 009a A54B     		ldr	r3, .L339
 150 009c DC21     		mov	r1, #220
 151 009e 8900     		lsl	r1, r1, #2
 152 00a0 C919     		add	r1, r1, r7
 153 00a2 0B60     		str	r3, [r1]
 154 00a4 4C60     		str	r4, [r1, #4]
  20:../Sources/main.c **** 	double ps = 0;
 155              		.loc 1 20 0
 156 00a6 A34C     		ldr	r4, .L339+4
 157 00a8 A14B     		ldr	r3, .L339
 158 00aa DA22     		mov	r2, #218
 159 00ac 9200     		lsl	r2, r2, #2
 160 00ae D219     		add	r2, r2, r7
 161 00b0 1360     		str	r3, [r2]
 162 00b2 5460     		str	r4, [r2, #4]
  21:../Sources/main.c **** 	double pb = 0;
 163              		.loc 1 21 0
 164 00b4 9F4C     		ldr	r4, .L339+4
 165 00b6 9E4B     		ldr	r3, .L339
 166 00b8 D821     		mov	r1, #216
 167 00ba 8900     		lsl	r1, r1, #2
 168 00bc C919     		add	r1, r1, r7
 169 00be 0B60     		str	r3, [r1]
 170 00c0 4C60     		str	r4, [r1, #4]
  22:../Sources/main.c **** 	int servang = 1000;
 171              		.loc 1 22 0
 172 00c2 FA23     		mov	r3, #250
 173 00c4 9B00     		lsl	r3, r3, #2
 174 00c6 D722     		mov	r2, #215
 175 00c8 9200     		lsl	r2, r2, #2
 176 00ca D219     		add	r2, r2, r7
 177 00cc 1360     		str	r3, [r2]
  23:../Sources/main.c **** 	double area[100];
  24:../Sources/main.c **** 	double grausaida = 0;
 178              		.loc 1 24 0
 179 00ce 994C     		ldr	r4, .L339+4
 180 00d0 974B     		ldr	r3, .L339
 181 00d2 D421     		mov	r1, #212
 182 00d4 8900     		lsl	r1, r1, #2
 183 00d6 C919     		add	r1, r1, r7
 184 00d8 0B60     		str	r3, [r1]
 185 00da 4C60     		str	r4, [r1, #4]
  25:../Sources/main.c **** 	double cognumerador = 0;
 186              		.loc 1 25 0
 187 00dc 954C     		ldr	r4, .L339+4
 188 00de 944B     		ldr	r3, .L339
 189 00e0 D222     		mov	r2, #210
 190 00e2 9200     		lsl	r2, r2, #2
 191 00e4 D219     		add	r2, r2, r7
 192 00e6 1360     		str	r3, [r2]
 193 00e8 5460     		str	r4, [r2, #4]
  26:../Sources/main.c **** 	double cogdenominador = 0;
 194              		.loc 1 26 0
 195 00ea 924C     		ldr	r4, .L339+4
 196 00ec 904B     		ldr	r3, .L339
 197 00ee D021     		mov	r1, #208
 198 00f0 8900     		lsl	r1, r1, #2
 199 00f2 C919     		add	r1, r1, r7
 200 00f4 0B60     		str	r3, [r1]
 201 00f6 4C60     		str	r4, [r1, #4]
  27:../Sources/main.c **** 	double cogfinal = 0;
 202              		.loc 1 27 0
 203 00f8 8E4C     		ldr	r4, .L339+4
 204 00fa 8D4B     		ldr	r3, .L339
 205 00fc CC22     		mov	r2, #204
 206 00fe 9200     		lsl	r2, r2, #2
 207 0100 D219     		add	r2, r2, r7
 208 0102 1360     		str	r3, [r2]
 209 0104 5460     		str	r4, [r2, #4]
  28:../Sources/main.c **** 
  29:../Sources/main.c **** //	float teste=(float)(media/22.0);
  30:../Sources/main.c **** 
  31:../Sources/main.c **** //---------------------OBTENÇÃO DE GRAU DAS FAIXA---------------------	
  32:../Sources/main.c **** 	if (((TFC_GetDIP_Switch() >> 1) & 0x03)==0) 
 210              		.loc 1 32 0
 211 0106 FFF7FEFF 		bl	TFC_GetDIP_Switch
 212 010a 031C     		mov	r3, r0
 213 010c 5B08     		lsr	r3, r3, #1
 214 010e DBB2     		uxtb	r3, r3
 215 0110 1A1C     		mov	r2, r3
 216 0112 0323     		mov	r3, #3
 217 0114 1340     		and	r3, r2
 218 0116 05D1     		bne	.L2
  33:../Sources/main.c **** 		TFC_HBRIDGE_DISABLE;
 219              		.loc 1 33 0
 220 0118 914B     		ldr	r3, .L339+48
 221 011a 8022     		mov	r2, #128
 222 011c 9203     		lsl	r2, r2, #14
 223 011e 9A60     		str	r2, [r3, #8]
 224 0120 03F00EF8 		bl	.L1	@ far jump
 225              	.L2:
  34:../Sources/main.c **** 	else{
  35:../Sources/main.c **** 
  36:../Sources/main.c **** 		for (i = 0; i < 100; i++) // zerar o vetor da área
 226              		.loc 1 36 0
 227 0124 0023     		mov	r3, #0
 228 0126 EB24     		mov	r4, #235
 229 0128 A400     		lsl	r4, r4, #2
 230 012a E419     		add	r4, r4, r7
 231 012c 2360     		str	r3, [r4]
 232 012e 17E0     		b	.L4
 233              	.L5:
  37:../Sources/main.c **** 				{
  38:../Sources/main.c **** 			area[i] = 0;
 234              		.loc 1 38 0
 235 0130 8C4B     		ldr	r3, .L339+52
 236 0132 EC21     		mov	r1, #236
 237 0134 8900     		lsl	r1, r1, #2
 238 0136 C919     		add	r1, r1, r7
 239 0138 CA18     		add	r2, r1, r3
 240 013a EB24     		mov	r4, #235
 241 013c A400     		lsl	r4, r4, #2
 242 013e E419     		add	r4, r4, r7
 243 0140 2368     		ldr	r3, [r4]
 244 0142 DB00     		lsl	r3, r3, #3
 245 0144 D218     		add	r2, r2, r3
 246 0146 7B4C     		ldr	r4, .L339+4
 247 0148 794B     		ldr	r3, .L339
 248 014a 1360     		str	r3, [r2]
 249 014c 5460     		str	r4, [r2, #4]
  36:../Sources/main.c **** 		for (i = 0; i < 100; i++) // zerar o vetor da área
 250              		.loc 1 36 0
 251 014e EB21     		mov	r1, #235
 252 0150 8900     		lsl	r1, r1, #2
 253 0152 C919     		add	r1, r1, r7
 254 0154 0B68     		ldr	r3, [r1]
 255 0156 0133     		add	r3, r3, #1
 256 0158 EB22     		mov	r2, #235
 257 015a 9200     		lsl	r2, r2, #2
 258 015c D219     		add	r2, r2, r7
 259 015e 1360     		str	r3, [r2]
 260              	.L4:
  36:../Sources/main.c **** 		for (i = 0; i < 100; i++) // zerar o vetor da área
 261              		.loc 1 36 0 is_stmt 0
 262 0160 EB24     		mov	r4, #235
 263 0162 A400     		lsl	r4, r4, #2
 264 0164 E419     		add	r4, r4, r7
 265 0166 2368     		ldr	r3, [r4]
 266 0168 632B     		cmp	r3, #99
 267 016a E1DD     		ble	.L5
  39:../Sources/main.c **** 		}
  40:../Sources/main.c **** 
  41:../Sources/main.c **** //--------------Very left inicio------------------
  42:../Sources/main.c **** 
  43:../Sources/main.c **** 		if (media < 21) {
 268              		.loc 1 43 0 is_stmt 1
 269 016c 7E4B     		ldr	r3, .L339+56
 270 016e 1B68     		ldr	r3, [r3]
 271 0170 142B     		cmp	r3, #20
 272 0172 07DC     		bgt	.L6
  44:../Sources/main.c **** 			grauvl = 1; // puxadinho da esquerda
 273              		.loc 1 44 0
 274 0174 704B     		ldr	r3, .L339+8
 275 0176 714C     		ldr	r4, .L339+12
 276 0178 E821     		mov	r1, #232
 277 017a 8900     		lsl	r1, r1, #2
 278 017c C919     		add	r1, r1, r7
 279 017e 0B60     		str	r3, [r1]
 280 0180 4C60     		str	r4, [r1, #4]
 281 0182 33E0     		b	.L7
 282              	.L6:
  45:../Sources/main.c **** 		} else if (media >= 21 && media < 40) {
 283              		.loc 1 45 0
 284 0184 784B     		ldr	r3, .L339+56
 285 0186 1B68     		ldr	r3, [r3]
 286 0188 142B     		cmp	r3, #20
 287 018a 28DD     		ble	.L8
 288              		.loc 1 45 0 is_stmt 0
 289 018c 764B     		ldr	r3, .L339+56
 290 018e 1B68     		ldr	r3, [r3]
 291 0190 272B     		cmp	r3, #39
 292 0192 24DC     		bgt	.L8
  46:../Sources/main.c **** 			grauvl = ((float) (-media / 19.0)) + ((float) (40.0 / 19)); // reta s da folha
 293              		.loc 1 46 0 is_stmt 1
 294 0194 744B     		ldr	r3, .L339+56
 295 0196 1B68     		ldr	r3, [r3]
 296 0198 5B42     		neg	r3, r3
 297 019a 181C     		mov	r0, r3
 298 019c FFF7FEFF 		bl	__aeabi_i2d
 299 01a0 031C     		mov	r3, r0
 300 01a2 0C1C     		mov	r4, r1
 301 01a4 181C     		mov	r0, r3
 302 01a6 211C     		mov	r1, r4
 303 01a8 654A     		ldr	r2, .L339+16
 304 01aa 664B     		ldr	r3, .L339+20
 305 01ac FFF7FEFF 		bl	__aeabi_ddiv
 306 01b0 031C     		mov	r3, r0
 307 01b2 0C1C     		mov	r4, r1
 308 01b4 181C     		mov	r0, r3
 309 01b6 211C     		mov	r1, r4
 310 01b8 FFF7FEFF 		bl	__aeabi_d2f
 311 01bc 031C     		add	r3, r0, #0
 312 01be 181C     		add	r0, r3, #0
 313 01c0 6A49     		ldr	r1, .L339+60
 314 01c2 FFF7FEFF 		bl	__aeabi_fadd
 315 01c6 031C     		add	r3, r0, #0
 316 01c8 181C     		add	r0, r3, #0
 317 01ca FFF7FEFF 		bl	__aeabi_f2d
 318 01ce 031C     		mov	r3, r0
 319 01d0 0C1C     		mov	r4, r1
 320 01d2 E822     		mov	r2, #232
 321 01d4 9200     		lsl	r2, r2, #2
 322 01d6 D219     		add	r2, r2, r7
 323 01d8 1360     		str	r3, [r2]
 324 01da 5460     		str	r4, [r2, #4]
 325 01dc 06E0     		b	.L7
 326              	.L8:
  47:../Sources/main.c **** 		} else
  48:../Sources/main.c **** 			grauvl = 0;
 327              		.loc 1 48 0
 328 01de 554C     		ldr	r4, .L339+4
 329 01e0 534B     		ldr	r3, .L339
 330 01e2 E821     		mov	r1, #232
 331 01e4 8900     		lsl	r1, r1, #2
 332 01e6 C919     		add	r1, r1, r7
 333 01e8 0B60     		str	r3, [r1]
 334 01ea 4C60     		str	r4, [r1, #4]
 335              	.L7:
  49:../Sources/main.c **** //----------very left final-------------
  50:../Sources/main.c **** 
  51:../Sources/main.c **** //-------------- left inicio------------------
  52:../Sources/main.c **** 
  53:../Sources/main.c **** 		if (media >= 21 && media < 40) {
 336              		.loc 1 53 0
 337 01ec 5E4B     		ldr	r3, .L339+56
 338 01ee 1B68     		ldr	r3, [r3]
 339 01f0 142B     		cmp	r3, #20
 340 01f2 21DD     		ble	.L9
 341              		.loc 1 53 0 is_stmt 0
 342 01f4 5C4B     		ldr	r3, .L339+56
 343 01f6 1B68     		ldr	r3, [r3]
 344 01f8 272B     		cmp	r3, #39
 345 01fa 1DDC     		bgt	.L9
  54:../Sources/main.c **** 			graul = ((float) (media / 19.0)) - ((float) (21.0 / 19)); // reta r da folha
 346              		.loc 1 54 0 is_stmt 1
 347 01fc 5A4B     		ldr	r3, .L339+56
 348 01fe 1B68     		ldr	r3, [r3]
 349 0200 181C     		mov	r0, r3
 350 0202 FFF7FEFF 		bl	__aeabi_i2d
 351 0206 031C     		mov	r3, r0
 352 0208 0C1C     		mov	r4, r1
 353 020a 181C     		mov	r0, r3
 354 020c 211C     		mov	r1, r4
 355 020e 4C4A     		ldr	r2, .L339+16
 356 0210 4C4B     		ldr	r3, .L339+20
 357 0212 FFF7FEFF 		bl	__aeabi_ddiv
 358 0216 031C     		mov	r3, r0
 359 0218 0C1C     		mov	r4, r1
 360 021a 181C     		mov	r0, r3
 361 021c 211C     		mov	r1, r4
 362 021e FFF7FEFF 		bl	__aeabi_d2f
 363 0222 031C     		add	r3, r0, #0
 364 0224 181C     		add	r0, r3, #0
 365 0226 5249     		ldr	r1, .L339+64
 366 0228 FFF7FEFF 		bl	__aeabi_fsub
 367 022c 031C     		add	r3, r0, #0
 368 022e CB22     		mov	r2, #203
 369 0230 9200     		lsl	r2, r2, #2
 370 0232 D219     		add	r2, r2, r7
 371 0234 1360     		str	r3, [r2]
 372 0236 2BE0     		b	.L10
 373              	.L9:
  55:../Sources/main.c **** 		} else if (media >= 40 && media < 59) {
 374              		.loc 1 55 0
 375 0238 4B4B     		ldr	r3, .L339+56
 376 023a 1B68     		ldr	r3, [r3]
 377 023c 272B     		cmp	r3, #39
 378 023e 22DD     		ble	.L11
 379              		.loc 1 55 0 is_stmt 0
 380 0240 494B     		ldr	r3, .L339+56
 381 0242 1B68     		ldr	r3, [r3]
 382 0244 3A2B     		cmp	r3, #58
 383 0246 1EDC     		bgt	.L11
  56:../Sources/main.c **** 			graul = ((float) (-media / 19.0)) + ((float) (59.0 / 19)); // reta u da folha
 384              		.loc 1 56 0 is_stmt 1
 385 0248 474B     		ldr	r3, .L339+56
 386 024a 1B68     		ldr	r3, [r3]
 387 024c 5B42     		neg	r3, r3
 388 024e 181C     		mov	r0, r3
 389 0250 FFF7FEFF 		bl	__aeabi_i2d
 390 0254 031C     		mov	r3, r0
 391 0256 0C1C     		mov	r4, r1
 392 0258 181C     		mov	r0, r3
 393 025a 211C     		mov	r1, r4
 394 025c 384A     		ldr	r2, .L339+16
 395 025e 394B     		ldr	r3, .L339+20
 396 0260 FFF7FEFF 		bl	__aeabi_ddiv
 397 0264 031C     		mov	r3, r0
 398 0266 0C1C     		mov	r4, r1
 399 0268 181C     		mov	r0, r3
 400 026a 211C     		mov	r1, r4
 401 026c FFF7FEFF 		bl	__aeabi_d2f
 402 0270 031C     		add	r3, r0, #0
 403 0272 181C     		add	r0, r3, #0
 404 0274 3F49     		ldr	r1, .L339+68
 405 0276 FFF7FEFF 		bl	__aeabi_fadd
 406 027a 031C     		add	r3, r0, #0
 407 027c CB24     		mov	r4, #203
 408 027e A400     		lsl	r4, r4, #2
 409 0280 E419     		add	r4, r4, r7
 410 0282 2360     		str	r3, [r4]
 411 0284 04E0     		b	.L10
 412              	.L11:
  57:../Sources/main.c **** 		} else
  58:../Sources/main.c **** 			graul = 0;
 413              		.loc 1 58 0
 414 0286 0023     		mov	r3, #0
 415 0288 CB21     		mov	r1, #203
 416 028a 8900     		lsl	r1, r1, #2
 417 028c C919     		add	r1, r1, r7
 418 028e 0B60     		str	r3, [r1]
 419              	.L10:
  59:../Sources/main.c **** //---------- left final-------------	
  60:../Sources/main.c **** 
  61:../Sources/main.c **** //-------------- medium inicio------------------
  62:../Sources/main.c **** 
  63:../Sources/main.c **** 		if (media >= 40 && media < 64) {
 420              		.loc 1 63 0
 421 0290 354B     		ldr	r3, .L339+56
 422 0292 1B68     		ldr	r3, [r3]
 423 0294 272B     		cmp	r3, #39
 424 0296 21DD     		ble	.L12
 425              		.loc 1 63 0 is_stmt 0
 426 0298 334B     		ldr	r3, .L339+56
 427 029a 1B68     		ldr	r3, [r3]
 428 029c 3F2B     		cmp	r3, #63
 429 029e 1DDC     		bgt	.L12
  64:../Sources/main.c **** 			graum = ((float) (media / 24.0)) - ((float) (5.0 / 3)); // reta t da folha
 430              		.loc 1 64 0 is_stmt 1
 431 02a0 314B     		ldr	r3, .L339+56
 432 02a2 1B68     		ldr	r3, [r3]
 433 02a4 181C     		mov	r0, r3
 434 02a6 FFF7FEFF 		bl	__aeabi_i2d
 435 02aa 031C     		mov	r3, r0
 436 02ac 0C1C     		mov	r4, r1
 437 02ae 181C     		mov	r0, r3
 438 02b0 211C     		mov	r1, r4
 439 02b2 254A     		ldr	r2, .L339+24
 440 02b4 254B     		ldr	r3, .L339+28
 441 02b6 FFF7FEFF 		bl	__aeabi_ddiv
 442 02ba 031C     		mov	r3, r0
 443 02bc 0C1C     		mov	r4, r1
 444 02be 181C     		mov	r0, r3
 445 02c0 211C     		mov	r1, r4
 446 02c2 FFF7FEFF 		bl	__aeabi_d2f
 447 02c6 031C     		add	r3, r0, #0
 448 02c8 181C     		add	r0, r3, #0
 449 02ca 2B49     		ldr	r1, .L339+72
 450 02cc FFF7FEFF 		bl	__aeabi_fsub
 451 02d0 031C     		add	r3, r0, #0
 452 02d2 CA22     		mov	r2, #202
 453 02d4 9200     		lsl	r2, r2, #2
 454 02d6 D219     		add	r2, r2, r7
 455 02d8 1360     		str	r3, [r2]
 456 02da 56E0     		b	.L13
 457              	.L12:
  65:../Sources/main.c **** 		} else if (media >= 64 && media < 90) {
 458              		.loc 1 65 0
 459 02dc 224B     		ldr	r3, .L339+56
 460 02de 1B68     		ldr	r3, [r3]
 461 02e0 3F2B     		cmp	r3, #63
 462 02e2 4DDD     		ble	.L14
 463              		.loc 1 65 0 is_stmt 0
 464 02e4 204B     		ldr	r3, .L339+56
 465 02e6 1B68     		ldr	r3, [r3]
 466 02e8 592B     		cmp	r3, #89
 467 02ea 49DC     		bgt	.L14
  66:../Sources/main.c **** 			graum = ((float) (-media / 26.0)) + ((float) (43.0 / 13)); // reta w da folha
 468              		.loc 1 66 0 is_stmt 1
 469 02ec 1E4B     		ldr	r3, .L339+56
 470 02ee 1B68     		ldr	r3, [r3]
 471 02f0 5B42     		neg	r3, r3
 472 02f2 181C     		mov	r0, r3
 473 02f4 FFF7FEFF 		bl	__aeabi_i2d
 474 02f8 031C     		mov	r3, r0
 475 02fa 0C1C     		mov	r4, r1
 476 02fc 181C     		mov	r0, r3
 477 02fe 211C     		mov	r1, r4
 478 0300 134A     		ldr	r2, .L339+32
 479 0302 144B     		ldr	r3, .L339+36
 480 0304 FFF7FEFF 		bl	__aeabi_ddiv
 481 0308 031C     		mov	r3, r0
 482 030a 0C1C     		mov	r4, r1
 483 030c 181C     		mov	r0, r3
 484 030e 211C     		mov	r1, r4
 485 0310 FFF7FEFF 		bl	__aeabi_d2f
 486 0314 031C     		add	r3, r0, #0
 487 0316 181C     		add	r0, r3, #0
 488 0318 1849     		ldr	r1, .L339+76
 489 031a FFF7FEFF 		bl	__aeabi_fadd
 490 031e 031C     		add	r3, r0, #0
 491 0320 CA24     		mov	r4, #202
 492 0322 A400     		lsl	r4, r4, #2
 493 0324 E419     		add	r4, r4, r7
 494 0326 2360     		str	r3, [r4]
 495 0328 2FE0     		b	.L13
 496              	.L340:
 497 032a C046C046 		.align	3
 497      C046
 498              	.L339:
 499 0330 00000000 		.word	0
 500 0334 00000000 		.word	0
 501 0338 00000000 		.word	0
 502 033c 0000F03F 		.word	1072693248
 503 0340 00000000 		.word	0
 504 0344 00003340 		.word	1077084160
 505 0348 00000000 		.word	0
 506 034c 00003840 		.word	1077411840
 507 0350 00000000 		.word	0
 508 0354 00003A40 		.word	1077542912
 509 0358 4CFCFFFF 		.word	-948
 510 035c 50460000 		.word	18000
 511 0360 00F10F40 		.word	1074786560
 512 0364 50FCFFFF 		.word	-944
 513 0368 00000000 		.word	media
 514 036c A2BC0640 		.word	1074183330
 515 0370 43798D3F 		.word	1066236227
 516 0374 A2BC4640 		.word	1078377634
 517 0378 5555D53F 		.word	1070945621
 518 037c 3BB15340 		.word	1079226683
 519              	.L14:
  67:../Sources/main.c **** 		} else
  68:../Sources/main.c **** 			graum = 0;
 520              		.loc 1 68 0
 521 0380 0023     		mov	r3, #0
 522 0382 CA21     		mov	r1, #202
 523 0384 8900     		lsl	r1, r1, #2
 524 0386 C919     		add	r1, r1, r7
 525 0388 0B60     		str	r3, [r1]
 526              	.L13:
  69:../Sources/main.c **** //---------- medium final-------------	
  70:../Sources/main.c **** 
  71:../Sources/main.c **** //-------------- right inicio------------------
  72:../Sources/main.c **** 
  73:../Sources/main.c **** 		if (media >= 64 && media < 90) {
 527              		.loc 1 73 0
 528 038a DB4B     		ldr	r3, .L341+56
 529 038c 1B68     		ldr	r3, [r3]
 530 038e 3F2B     		cmp	r3, #63
 531 0390 2ADD     		ble	.L15
 532              		.loc 1 73 0 is_stmt 0
 533 0392 D94B     		ldr	r3, .L341+56
 534 0394 1B68     		ldr	r3, [r3]
 535 0396 592B     		cmp	r3, #89
 536 0398 26DC     		bgt	.L15
  74:../Sources/main.c **** 			graur = ((float) (media / 21.0)) - (23.0 / 7); // reta v da folha
 537              		.loc 1 74 0 is_stmt 1
 538 039a D74B     		ldr	r3, .L341+56
 539 039c 1B68     		ldr	r3, [r3]
 540 039e 181C     		mov	r0, r3
 541 03a0 FFF7FEFF 		bl	__aeabi_i2d
 542 03a4 031C     		mov	r3, r0
 543 03a6 0C1C     		mov	r4, r1
 544 03a8 181C     		mov	r0, r3
 545 03aa 211C     		mov	r1, r4
 546 03ac C54B     		ldr	r3, .L341+4
 547 03ae C44A     		ldr	r2, .L341
 548 03b0 FFF7FEFF 		bl	__aeabi_ddiv
 549 03b4 031C     		mov	r3, r0
 550 03b6 0C1C     		mov	r4, r1
 551 03b8 181C     		mov	r0, r3
 552 03ba 211C     		mov	r1, r4
 553 03bc FFF7FEFF 		bl	__aeabi_d2f
 554 03c0 031C     		add	r3, r0, #0
 555 03c2 181C     		add	r0, r3, #0
 556 03c4 FFF7FEFF 		bl	__aeabi_f2d
 557 03c8 031C     		mov	r3, r0
 558 03ca 0C1C     		mov	r4, r1
 559 03cc 181C     		mov	r0, r3
 560 03ce 211C     		mov	r1, r4
 561 03d0 BD4A     		ldr	r2, .L341+8
 562 03d2 BE4B     		ldr	r3, .L341+12
 563 03d4 FFF7FEFF 		bl	__aeabi_dsub
 564 03d8 031C     		mov	r3, r0
 565 03da 0C1C     		mov	r4, r1
 566 03dc E622     		mov	r2, #230
 567 03de 9200     		lsl	r2, r2, #2
 568 03e0 D219     		add	r2, r2, r7
 569 03e2 1360     		str	r3, [r2]
 570 03e4 5460     		str	r4, [r2, #4]
 571 03e6 33E0     		b	.L16
 572              	.L15:
  75:../Sources/main.c **** 		} else if (media >= 90 && media < 109) {
 573              		.loc 1 75 0
 574 03e8 C34B     		ldr	r3, .L341+56
 575 03ea 1B68     		ldr	r3, [r3]
 576 03ec 592B     		cmp	r3, #89
 577 03ee 28DD     		ble	.L17
 578              		.loc 1 75 0 is_stmt 0
 579 03f0 C14B     		ldr	r3, .L341+56
 580 03f2 1B68     		ldr	r3, [r3]
 581 03f4 6C2B     		cmp	r3, #108
 582 03f6 24DC     		bgt	.L17
  76:../Sources/main.c **** 			graur = ((float) (-media / 19.0)) + ((float) (109.0 / 19)); // reta y da folha
 583              		.loc 1 76 0 is_stmt 1
 584 03f8 BF4B     		ldr	r3, .L341+56
 585 03fa 1B68     		ldr	r3, [r3]
 586 03fc 5B42     		neg	r3, r3
 587 03fe 181C     		mov	r0, r3
 588 0400 FFF7FEFF 		bl	__aeabi_i2d
 589 0404 031C     		mov	r3, r0
 590 0406 0C1C     		mov	r4, r1
 591 0408 181C     		mov	r0, r3
 592 040a 211C     		mov	r1, r4
 593 040c B04A     		ldr	r2, .L341+16
 594 040e B14B     		ldr	r3, .L341+20
 595 0410 FFF7FEFF 		bl	__aeabi_ddiv
 596 0414 031C     		mov	r3, r0
 597 0416 0C1C     		mov	r4, r1
 598 0418 181C     		mov	r0, r3
 599 041a 211C     		mov	r1, r4
 600 041c FFF7FEFF 		bl	__aeabi_d2f
 601 0420 031C     		add	r3, r0, #0
 602 0422 181C     		add	r0, r3, #0
 603 0424 B549     		ldr	r1, .L341+60
 604 0426 FFF7FEFF 		bl	__aeabi_fadd
 605 042a 031C     		add	r3, r0, #0
 606 042c 181C     		add	r0, r3, #0
 607 042e FFF7FEFF 		bl	__aeabi_f2d
 608 0432 031C     		mov	r3, r0
 609 0434 0C1C     		mov	r4, r1
 610 0436 E621     		mov	r1, #230
 611 0438 8900     		lsl	r1, r1, #2
 612 043a C919     		add	r1, r1, r7
 613 043c 0B60     		str	r3, [r1]
 614 043e 4C60     		str	r4, [r1, #4]
 615 0440 06E0     		b	.L16
 616              	.L17:
  77:../Sources/main.c **** 		} else
  78:../Sources/main.c **** 			graur = 0;
 617              		.loc 1 78 0
 618 0442 A54B     		ldr	r3, .L341+24
 619 0444 A54C     		ldr	r4, .L341+28
 620 0446 E622     		mov	r2, #230
 621 0448 9200     		lsl	r2, r2, #2
 622 044a D219     		add	r2, r2, r7
 623 044c 1360     		str	r3, [r2]
 624 044e 5460     		str	r4, [r2, #4]
 625              	.L16:
  79:../Sources/main.c **** //-------------- right final-------------			
  80:../Sources/main.c **** 
  81:../Sources/main.c **** //-------------- very right inicio------------------
  82:../Sources/main.c **** 
  83:../Sources/main.c **** 		if (media >= 90 && media < 109) {
 626              		.loc 1 83 0
 627 0450 A94B     		ldr	r3, .L341+56
 628 0452 1B68     		ldr	r3, [r3]
 629 0454 592B     		cmp	r3, #89
 630 0456 27DD     		ble	.L18
 631              		.loc 1 83 0 is_stmt 0
 632 0458 A74B     		ldr	r3, .L341+56
 633 045a 1B68     		ldr	r3, [r3]
 634 045c 6C2B     		cmp	r3, #108
 635 045e 23DC     		bgt	.L18
  84:../Sources/main.c **** 			grauvr = ((float) (media / 19.0)) - ((float) (90.0 / 19)); // reta x da folha
 636              		.loc 1 84 0 is_stmt 1
 637 0460 A54B     		ldr	r3, .L341+56
 638 0462 1B68     		ldr	r3, [r3]
 639 0464 181C     		mov	r0, r3
 640 0466 FFF7FEFF 		bl	__aeabi_i2d
 641 046a 031C     		mov	r3, r0
 642 046c 0C1C     		mov	r4, r1
 643 046e 181C     		mov	r0, r3
 644 0470 211C     		mov	r1, r4
 645 0472 974A     		ldr	r2, .L341+16
 646 0474 974B     		ldr	r3, .L341+20
 647 0476 FFF7FEFF 		bl	__aeabi_ddiv
 648 047a 031C     		mov	r3, r0
 649 047c 0C1C     		mov	r4, r1
 650 047e 181C     		mov	r0, r3
 651 0480 211C     		mov	r1, r4
 652 0482 FFF7FEFF 		bl	__aeabi_d2f
 653 0486 031C     		add	r3, r0, #0
 654 0488 181C     		add	r0, r3, #0
 655 048a 9D49     		ldr	r1, .L341+64
 656 048c FFF7FEFF 		bl	__aeabi_fsub
 657 0490 031C     		add	r3, r0, #0
 658 0492 181C     		add	r0, r3, #0
 659 0494 FFF7FEFF 		bl	__aeabi_f2d
 660 0498 031C     		mov	r3, r0
 661 049a 0C1C     		mov	r4, r1
 662 049c E421     		mov	r1, #228
 663 049e 8900     		lsl	r1, r1, #2
 664 04a0 C919     		add	r1, r1, r7
 665 04a2 0B60     		str	r3, [r1]
 666 04a4 4C60     		str	r4, [r1, #4]
 667 04a6 12E0     		b	.L19
 668              	.L18:
  85:../Sources/main.c **** 		} else if (media >= 109) {
 669              		.loc 1 85 0
 670 04a8 934B     		ldr	r3, .L341+56
 671 04aa 1B68     		ldr	r3, [r3]
 672 04ac 6C2B     		cmp	r3, #108
 673 04ae 07DD     		ble	.L20
  86:../Sources/main.c **** 			grauvr = 1; // reta y da folha
 674              		.loc 1 86 0
 675 04b0 8B4B     		ldr	r3, .L341+32
 676 04b2 8C4C     		ldr	r4, .L341+36
 677 04b4 E422     		mov	r2, #228
 678 04b6 9200     		lsl	r2, r2, #2
 679 04b8 D219     		add	r2, r2, r7
 680 04ba 1360     		str	r3, [r2]
 681 04bc 5460     		str	r4, [r2, #4]
 682 04be 06E0     		b	.L19
 683              	.L20:
  87:../Sources/main.c **** 		} else
  88:../Sources/main.c **** 			grauvr = 0;
 684              		.loc 1 88 0
 685 04c0 854B     		ldr	r3, .L341+24
 686 04c2 864C     		ldr	r4, .L341+28
 687 04c4 E421     		mov	r1, #228
 688 04c6 8900     		lsl	r1, r1, #2
 689 04c8 C919     		add	r1, r1, r7
 690 04ca 0B60     		str	r3, [r1]
 691 04cc 4C60     		str	r4, [r1, #4]
 692              	.L19:
  89:../Sources/main.c **** //-------------- very right final-------------			
  90:../Sources/main.c **** 
  91:../Sources/main.c **** //----------- FIM DA OBTENÇÃO DOS GRAUS DA FAIXA-------------
  92:../Sources/main.c **** 
  93:../Sources/main.c **** //----------- GRAU VELOCIDADE ----------------
  94:../Sources/main.c **** 
  95:../Sources/main.c **** //---------- SLOW --------------------------
  96:../Sources/main.c **** 
  97:../Sources/main.c **** 		if (spd < 2000) {
 693              		.loc 1 97 0
 694 04ce CF23     		mov	r3, #207
 695 04d0 9B00     		lsl	r3, r3, #2
 696 04d2 DB19     		add	r3, r3, r7
 697 04d4 1A68     		ldr	r2, [r3]
 698 04d6 8B4B     		ldr	r3, .L341+68
 699 04d8 9A42     		cmp	r2, r3
 700 04da 06DC     		bgt	.L21
  98:../Sources/main.c **** 			grausl = 1;
 701              		.loc 1 98 0
 702 04dc FE23     		mov	r3, #254
 703 04de 9B05     		lsl	r3, r3, #22
 704 04e0 C924     		mov	r4, #201
 705 04e2 A400     		lsl	r4, r4, #2
 706 04e4 E419     		add	r4, r4, r7
 707 04e6 2360     		str	r3, [r4]
 708 04e8 2DE0     		b	.L22
 709              	.L21:
  99:../Sources/main.c **** 
 100:../Sources/main.c **** 		} else if (spd >= 2000 && spd < 11000) {
 710              		.loc 1 100 0
 711 04ea CF21     		mov	r1, #207
 712 04ec 8900     		lsl	r1, r1, #2
 713 04ee C919     		add	r1, r1, r7
 714 04f0 0A68     		ldr	r2, [r1]
 715 04f2 844B     		ldr	r3, .L341+68
 716 04f4 9A42     		cmp	r2, r3
 717 04f6 26DD     		ble	.L22
 718              		.loc 1 100 0 is_stmt 0
 719 04f8 CF23     		mov	r3, #207
 720 04fa 9B00     		lsl	r3, r3, #2
 721 04fc DB19     		add	r3, r3, r7
 722 04fe 1A68     		ldr	r2, [r3]
 723 0500 814B     		ldr	r3, .L341+72
 724 0502 9A42     		cmp	r2, r3
 725 0504 1FDC     		bgt	.L22
 101:../Sources/main.c **** 			grausl = ((float) (-spd / 9000.0)) + ((float) (11.0 / 9));
 726              		.loc 1 101 0 is_stmt 1
 727 0506 CF24     		mov	r4, #207
 728 0508 A400     		lsl	r4, r4, #2
 729 050a E419     		add	r4, r4, r7
 730 050c 2368     		ldr	r3, [r4]
 731 050e 5B42     		neg	r3, r3
 732 0510 181C     		mov	r0, r3
 733 0512 FFF7FEFF 		bl	__aeabi_i2d
 734 0516 031C     		mov	r3, r0
 735 0518 0C1C     		mov	r4, r1
 736 051a 181C     		mov	r0, r3
 737 051c 211C     		mov	r1, r4
 738 051e 724A     		ldr	r2, .L341+40
 739 0520 724B     		ldr	r3, .L341+44
 740 0522 FFF7FEFF 		bl	__aeabi_ddiv
 741 0526 031C     		mov	r3, r0
 742 0528 0C1C     		mov	r4, r1
 743 052a 181C     		mov	r0, r3
 744 052c 211C     		mov	r1, r4
 745 052e FFF7FEFF 		bl	__aeabi_d2f
 746 0532 031C     		add	r3, r0, #0
 747 0534 181C     		add	r0, r3, #0
 748 0536 7549     		ldr	r1, .L341+76
 749 0538 FFF7FEFF 		bl	__aeabi_fadd
 750 053c 031C     		add	r3, r0, #0
 751 053e C921     		mov	r1, #201
 752 0540 8900     		lsl	r1, r1, #2
 753 0542 C919     		add	r1, r1, r7
 754 0544 0B60     		str	r3, [r1]
 755              	.L22:
 102:../Sources/main.c **** 		}
 103:../Sources/main.c **** 
 104:../Sources/main.c **** //--------------- FAST ---------------------
 105:../Sources/main.c **** 
 106:../Sources/main.c **** 		if (spd > 2000 && spd < 11000) {
 756              		.loc 1 106 0
 757 0546 CF23     		mov	r3, #207
 758 0548 9B00     		lsl	r3, r3, #2
 759 054a DB19     		add	r3, r3, r7
 760 054c 1A68     		ldr	r2, [r3]
 761 054e FA23     		mov	r3, #250
 762 0550 DB00     		lsl	r3, r3, #3
 763 0552 9A42     		cmp	r2, r3
 764 0554 25DD     		ble	.L23
 765              		.loc 1 106 0 is_stmt 0
 766 0556 CF24     		mov	r4, #207
 767 0558 A400     		lsl	r4, r4, #2
 768 055a E419     		add	r4, r4, r7
 769 055c 2268     		ldr	r2, [r4]
 770 055e 6A4B     		ldr	r3, .L341+72
 771 0560 9A42     		cmp	r2, r3
 772 0562 1EDC     		bgt	.L23
 107:../Sources/main.c **** 			grauf = ((float) (spd / 9000.0)) - ((float) (2.0 / 9));
 773              		.loc 1 107 0 is_stmt 1
 774 0564 CF21     		mov	r1, #207
 775 0566 8900     		lsl	r1, r1, #2
 776 0568 C919     		add	r1, r1, r7
 777 056a 0868     		ldr	r0, [r1]
 778 056c FFF7FEFF 		bl	__aeabi_i2d
 779 0570 031C     		mov	r3, r0
 780 0572 0C1C     		mov	r4, r1
 781 0574 181C     		mov	r0, r3
 782 0576 211C     		mov	r1, r4
 783 0578 5B4A     		ldr	r2, .L341+40
 784 057a 5C4B     		ldr	r3, .L341+44
 785 057c FFF7FEFF 		bl	__aeabi_ddiv
 786 0580 031C     		mov	r3, r0
 787 0582 0C1C     		mov	r4, r1
 788 0584 181C     		mov	r0, r3
 789 0586 211C     		mov	r1, r4
 790 0588 FFF7FEFF 		bl	__aeabi_d2f
 791 058c 031C     		add	r3, r0, #0
 792 058e 181C     		add	r0, r3, #0
 793 0590 5F49     		ldr	r1, .L341+80
 794 0592 FFF7FEFF 		bl	__aeabi_fsub
 795 0596 031C     		add	r3, r0, #0
 796 0598 C822     		mov	r2, #200
 797 059a 9200     		lsl	r2, r2, #2
 798 059c D219     		add	r2, r2, r7
 799 059e 1360     		str	r3, [r2]
 800 05a0 2DE0     		b	.L24
 801              	.L23:
 108:../Sources/main.c **** 		}
 109:../Sources/main.c **** 
 110:../Sources/main.c **** 		else if (spd >= 11000 && spd < 18000) {
 802              		.loc 1 110 0
 803 05a2 CF23     		mov	r3, #207
 804 05a4 9B00     		lsl	r3, r3, #2
 805 05a6 DB19     		add	r3, r3, r7
 806 05a8 1A68     		ldr	r2, [r3]
 807 05aa 574B     		ldr	r3, .L341+72
 808 05ac 9A42     		cmp	r2, r3
 809 05ae 26DD     		ble	.L24
 810              		.loc 1 110 0 is_stmt 0
 811 05b0 CF24     		mov	r4, #207
 812 05b2 A400     		lsl	r4, r4, #2
 813 05b4 E419     		add	r4, r4, r7
 814 05b6 2268     		ldr	r2, [r4]
 815 05b8 564B     		ldr	r3, .L341+84
 816 05ba 9A42     		cmp	r2, r3
 817 05bc 1FDC     		bgt	.L24
 111:../Sources/main.c **** 			grauf = ((float) (-spd / 7000.0)) + ((float) (18.0 / 7));
 818              		.loc 1 111 0 is_stmt 1
 819 05be CF21     		mov	r1, #207
 820 05c0 8900     		lsl	r1, r1, #2
 821 05c2 C919     		add	r1, r1, r7
 822 05c4 0B68     		ldr	r3, [r1]
 823 05c6 5B42     		neg	r3, r3
 824 05c8 181C     		mov	r0, r3
 825 05ca FFF7FEFF 		bl	__aeabi_i2d
 826 05ce 031C     		mov	r3, r0
 827 05d0 0C1C     		mov	r4, r1
 828 05d2 181C     		mov	r0, r3
 829 05d4 211C     		mov	r1, r4
 830 05d6 464A     		ldr	r2, .L341+48
 831 05d8 464B     		ldr	r3, .L341+52
 832 05da FFF7FEFF 		bl	__aeabi_ddiv
 833 05de 031C     		mov	r3, r0
 834 05e0 0C1C     		mov	r4, r1
 835 05e2 181C     		mov	r0, r3
 836 05e4 211C     		mov	r1, r4
 837 05e6 FFF7FEFF 		bl	__aeabi_d2f
 838 05ea 031C     		add	r3, r0, #0
 839 05ec 181C     		add	r0, r3, #0
 840 05ee 4A49     		ldr	r1, .L341+88
 841 05f0 FFF7FEFF 		bl	__aeabi_fadd
 842 05f4 031C     		add	r3, r0, #0
 843 05f6 C822     		mov	r2, #200
 844 05f8 9200     		lsl	r2, r2, #2
 845 05fa D219     		add	r2, r2, r7
 846 05fc 1360     		str	r3, [r2]
 847              	.L24:
 112:../Sources/main.c **** 		}
 113:../Sources/main.c **** 
 114:../Sources/main.c **** //------------ RAPID ---------------------
 115:../Sources/main.c **** 
 116:../Sources/main.c **** 		if (spd > 11000 && spd <= 18000) {
 848              		.loc 1 116 0
 849 05fe CF23     		mov	r3, #207
 850 0600 9B00     		lsl	r3, r3, #2
 851 0602 DB19     		add	r3, r3, r7
 852 0604 1A68     		ldr	r2, [r3]
 853 0606 454B     		ldr	r3, .L341+92
 854 0608 9A42     		cmp	r2, r3
 855 060a 2BDD     		ble	.L25
 856              		.loc 1 116 0 is_stmt 0
 857 060c CF24     		mov	r4, #207
 858 060e A400     		lsl	r4, r4, #2
 859 0610 E419     		add	r4, r4, r7
 860 0612 2268     		ldr	r2, [r4]
 861 0614 424B     		ldr	r3, .L341+96
 862 0616 9A42     		cmp	r2, r3
 863 0618 24DC     		bgt	.L25
 117:../Sources/main.c **** 			graura = ((float) (spd / 7000.0)) - ((float) (11.0 / 7));
 864              		.loc 1 117 0 is_stmt 1
 865 061a CF21     		mov	r1, #207
 866 061c 8900     		lsl	r1, r1, #2
 867 061e C919     		add	r1, r1, r7
 868 0620 0868     		ldr	r0, [r1]
 869 0622 FFF7FEFF 		bl	__aeabi_i2d
 870 0626 031C     		mov	r3, r0
 871 0628 0C1C     		mov	r4, r1
 872 062a 181C     		mov	r0, r3
 873 062c 211C     		mov	r1, r4
 874 062e 304A     		ldr	r2, .L341+48
 875 0630 304B     		ldr	r3, .L341+52
 876 0632 FFF7FEFF 		bl	__aeabi_ddiv
 877 0636 031C     		mov	r3, r0
 878 0638 0C1C     		mov	r4, r1
 879 063a 181C     		mov	r0, r3
 880 063c 211C     		mov	r1, r4
 881 063e FFF7FEFF 		bl	__aeabi_d2f
 882 0642 031C     		add	r3, r0, #0
 883 0644 181C     		add	r0, r3, #0
 884 0646 3749     		ldr	r1, .L341+100
 885 0648 FFF7FEFF 		bl	__aeabi_fsub
 886 064c 031C     		add	r3, r0, #0
 887 064e 181C     		add	r0, r3, #0
 888 0650 FFF7FEFF 		bl	__aeabi_f2d
 889 0654 031C     		mov	r3, r0
 890 0656 0C1C     		mov	r4, r1
 891 0658 E222     		mov	r2, #226
 892 065a 9200     		lsl	r2, r2, #2
 893 065c D219     		add	r2, r2, r7
 894 065e 1360     		str	r3, [r2]
 895 0660 5460     		str	r4, [r2, #4]
 896 0662 0DE0     		b	.L26
 897              	.L25:
 118:../Sources/main.c **** 		} else if (spd > 18000)
 898              		.loc 1 118 0
 899 0664 CF23     		mov	r3, #207
 900 0666 9B00     		lsl	r3, r3, #2
 901 0668 DB19     		add	r3, r3, r7
 902 066a 1A68     		ldr	r2, [r3]
 903 066c 2C4B     		ldr	r3, .L341+96
 904 066e 9A42     		cmp	r2, r3
 905 0670 06DD     		ble	.L26
 119:../Sources/main.c **** 			graura = 1;
 906              		.loc 1 119 0
 907 0672 1B4B     		ldr	r3, .L341+32
 908 0674 1B4C     		ldr	r4, .L341+36
 909 0676 E221     		mov	r1, #226
 910 0678 8900     		lsl	r1, r1, #2
 911 067a C919     		add	r1, r1, r7
 912 067c 0B60     		str	r3, [r1]
 913 067e 4C60     		str	r4, [r1, #4]
 914              	.L26:
 120:../Sources/main.c **** 
 121:../Sources/main.c **** //------------- FIM DOS GRAUS ---------------	
 122:../Sources/main.c **** 
 123:../Sources/main.c **** //---------- COMPARAÇÃO DOS GRAUS -------------
 124:../Sources/main.c **** 
 125:../Sources/main.c **** // --------------- SL e VL --------------
 126:../Sources/main.c **** 
 127:../Sources/main.c **** 		if (grauvl < grausl) {
 915              		.loc 1 127 0
 916 0680 C922     		mov	r2, #201
 917 0682 9200     		lsl	r2, r2, #2
 918 0684 D219     		add	r2, r2, r7
 919 0686 1368     		ldr	r3, [r2]
 920 0688 181C     		add	r0, r3, #0
 921 068a FFF7FEFF 		bl	__aeabi_f2d
 922 068e 031C     		mov	r3, r0
 923 0690 0C1C     		mov	r4, r1
 924 0692 181C     		mov	r0, r3
 925 0694 211C     		mov	r1, r4
 926 0696 E824     		mov	r4, #232
 927 0698 A400     		lsl	r4, r4, #2
 928 069a E419     		add	r4, r4, r7
 929 069c 2268     		ldr	r2, [r4]
 930 069e 6368     		ldr	r3, [r4, #4]
 931 06a0 FFF7FEFF 		bl	__aeabi_dcmpgt
 932 06a4 031C     		mov	r3, r0
 933 06a6 002B     		cmp	r3, #0
 934 06a8 3ED0     		beq	.L322
 935              	.L251:
 128:../Sources/main.c **** 			ns = grauvl;
 936              		.loc 1 128 0
 937 06aa E821     		mov	r1, #232
 938 06ac 8900     		lsl	r1, r1, #2
 939 06ae C919     		add	r1, r1, r7
 940 06b0 0B68     		ldr	r3, [r1]
 941 06b2 4C68     		ldr	r4, [r1, #4]
 942 06b4 E022     		mov	r2, #224
 943 06b6 9200     		lsl	r2, r2, #2
 944 06b8 D219     		add	r2, r2, r7
 945 06ba 1360     		str	r3, [r2]
 946 06bc 5460     		str	r4, [r2, #4]
 947 06be 41E0     		b	.L29
 948              	.L342:
 949              		.align	3
 950              	.L341:
 951 06c0 00000000 		.word	0
 952 06c4 00003540 		.word	1077215232
 953 06c8 92244992 		.word	-1840700270
 954 06cc 24490A40 		.word	1074415908
 955 06d0 00000000 		.word	0
 956 06d4 00003340 		.word	1077084160
 957 06d8 00000000 		.word	0
 958 06dc 00000000 		.word	0
 959 06e0 00000000 		.word	0
 960 06e4 0000F03F 		.word	1072693248
 961 06e8 00000000 		.word	0
 962 06ec 0094C140 		.word	1086428160
 963 06f0 00000000 		.word	0
 964 06f4 0058BB40 		.word	1086019584
 965 06f8 00000000 		.word	media
 966 06fc 3694B740 		.word	1085772854
 967 0700 36949740 		.word	1083675702
 968 0704 CF070000 		.word	1999
 969 0708 F72A0000 		.word	10999
 970 070c C7719C3F 		.word	1067217351
 971 0710 398E633E 		.word	1046711865
 972 0714 4F460000 		.word	17999
 973 0718 49922440 		.word	1076138569
 974 071c F82A0000 		.word	11000
 975 0720 50460000 		.word	18000
 976 0724 9224C93F 		.word	1070146706
 977              	.L322:
 129:../Sources/main.c **** 		} else
 130:../Sources/main.c **** 			ns = grausl;
 978              		.loc 1 130 0
 979 0728 C924     		mov	r4, #201
 980 072a A400     		lsl	r4, r4, #2
 981 072c E419     		add	r4, r4, r7
 982 072e 2368     		ldr	r3, [r4]
 983 0730 181C     		add	r0, r3, #0
 984 0732 FFF7FEFF 		bl	__aeabi_f2d
 985 0736 031C     		mov	r3, r0
 986 0738 0C1C     		mov	r4, r1
 987 073a E021     		mov	r1, #224
 988 073c 8900     		lsl	r1, r1, #2
 989 073e C919     		add	r1, r1, r7
 990 0740 0B60     		str	r3, [r1]
 991 0742 4C60     		str	r4, [r1, #4]
 992              	.L29:
 131:../Sources/main.c **** 
 132:../Sources/main.c **** 		for (i = 0; i < 100; i++) {
 993              		.loc 1 132 0
 994 0744 0023     		mov	r3, #0
 995 0746 EB22     		mov	r2, #235
 996 0748 9200     		lsl	r2, r2, #2
 997 074a D219     		add	r2, r2, r7
 998 074c 1360     		str	r3, [r2]
 999 074e 1FE1     		b	.L30
 1000              	.L42:
 133:../Sources/main.c **** 			if (servang < 1250 || servang > 1500) {
 1001              		.loc 1 133 0
 1002 0750 D723     		mov	r3, #215
 1003 0752 9B00     		lsl	r3, r3, #2
 1004 0754 DB19     		add	r3, r3, r7
 1005 0756 1A68     		ldr	r2, [r3]
 1006 0758 C14B     		ldr	r3, .L343+32
 1007 075a 9A42     		cmp	r2, r3
 1008 075c 06DD     		ble	.L31
 1009              		.loc 1 133 0 is_stmt 0
 1010 075e D724     		mov	r4, #215
 1011 0760 A400     		lsl	r4, r4, #2
 1012 0762 E419     		add	r4, r4, r7
 1013 0764 2268     		ldr	r2, [r4]
 1014 0766 BF4B     		ldr	r3, .L343+36
 1015 0768 9A42     		cmp	r2, r3
 1016 076a 07DD     		ble	.L32
 1017              	.L31:
 134:../Sources/main.c **** 				grausaida = 0;
 1018              		.loc 1 134 0 is_stmt 1
 1019 076c B54C     		ldr	r4, .L343+4
 1020 076e B44B     		ldr	r3, .L343
 1021 0770 D421     		mov	r1, #212
 1022 0772 8900     		lsl	r1, r1, #2
 1023 0774 C919     		add	r1, r1, r7
 1024 0776 0B60     		str	r3, [r1]
 1025 0778 4C60     		str	r4, [r1, #4]
 1026 077a F7E0     		b	.L33
 1027              	.L32:
 135:../Sources/main.c **** 				//if(area[i]<=grausaida) area[i]=grausaida;
 136:../Sources/main.c **** 
 137:../Sources/main.c **** 			} else if (servang >= 1250 && servang <= 1375) {
 1028              		.loc 1 137 0
 1029 077c D723     		mov	r3, #215
 1030 077e 9B00     		lsl	r3, r3, #2
 1031 0780 DB19     		add	r3, r3, r7
 1032 0782 1A68     		ldr	r2, [r3]
 1033 0784 B64B     		ldr	r3, .L343+32
 1034 0786 9A42     		cmp	r2, r3
 1035 0788 00DC     		bgt	.LCB883
 1036 078a 73E0     		b	.L34	@long jump
 1037              	.LCB883:
 1038              		.loc 1 137 0 is_stmt 0
 1039 078c D724     		mov	r4, #215
 1040 078e A400     		lsl	r4, r4, #2
 1041 0790 E419     		add	r4, r4, r7
 1042 0792 2268     		ldr	r2, [r4]
 1043 0794 B44B     		ldr	r3, .L343+40
 1044 0796 9A42     		cmp	r2, r3
 1045 0798 6CDC     		bgt	.L34
 138:../Sources/main.c **** 
 139:../Sources/main.c **** 				grausaida = ((float) (servang / 125.0)) - (10.0); // reta b
 1046              		.loc 1 139 0 is_stmt 1
 1047 079a D721     		mov	r1, #215
 1048 079c 8900     		lsl	r1, r1, #2
 1049 079e C919     		add	r1, r1, r7
 1050 07a0 0868     		ldr	r0, [r1]
 1051 07a2 FFF7FEFF 		bl	__aeabi_i2d
 1052 07a6 031C     		mov	r3, r0
 1053 07a8 0C1C     		mov	r4, r1
 1054 07aa 181C     		mov	r0, r3
 1055 07ac 211C     		mov	r1, r4
 1056 07ae A64A     		ldr	r2, .L343+8
 1057 07b0 A64B     		ldr	r3, .L343+12
 1058 07b2 FFF7FEFF 		bl	__aeabi_ddiv
 1059 07b6 031C     		mov	r3, r0
 1060 07b8 0C1C     		mov	r4, r1
 1061 07ba 181C     		mov	r0, r3
 1062 07bc 211C     		mov	r1, r4
 1063 07be FFF7FEFF 		bl	__aeabi_d2f
 1064 07c2 031C     		add	r3, r0, #0
 1065 07c4 181C     		add	r0, r3, #0
 1066 07c6 FFF7FEFF 		bl	__aeabi_f2d
 1067 07ca 031C     		mov	r3, r0
 1068 07cc 0C1C     		mov	r4, r1
 1069 07ce 181C     		mov	r0, r3
 1070 07d0 211C     		mov	r1, r4
 1071 07d2 9F4A     		ldr	r2, .L343+16
 1072 07d4 9F4B     		ldr	r3, .L343+20
 1073 07d6 FFF7FEFF 		bl	__aeabi_dsub
 1074 07da 031C     		mov	r3, r0
 1075 07dc 0C1C     		mov	r4, r1
 1076 07de D422     		mov	r2, #212
 1077 07e0 9200     		lsl	r2, r2, #2
 1078 07e2 D219     		add	r2, r2, r7
 1079 07e4 1360     		str	r3, [r2]
 1080 07e6 5460     		str	r4, [r2, #4]
 140:../Sources/main.c **** 
 141:../Sources/main.c **** 				if (grausaida > ns)
 1081              		.loc 1 141 0
 1082 07e8 D423     		mov	r3, #212
 1083 07ea 9B00     		lsl	r3, r3, #2
 1084 07ec DB19     		add	r3, r3, r7
 1085 07ee 1868     		ldr	r0, [r3]
 1086 07f0 5968     		ldr	r1, [r3, #4]
 1087 07f2 E024     		mov	r4, #224
 1088 07f4 A400     		lsl	r4, r4, #2
 1089 07f6 E419     		add	r4, r4, r7
 1090 07f8 2268     		ldr	r2, [r4]
 1091 07fa 6368     		ldr	r3, [r4, #4]
 1092 07fc FFF7FEFF 		bl	__aeabi_dcmpgt
 1093 0800 031C     		mov	r3, r0
 1094 0802 002B     		cmp	r3, #0
 1095 0804 09D0     		beq	.L35
 1096              	.L252:
 142:../Sources/main.c **** 					grausaida = ns;
 1097              		.loc 1 142 0
 1098 0806 E021     		mov	r1, #224
 1099 0808 8900     		lsl	r1, r1, #2
 1100 080a C919     		add	r1, r1, r7
 1101 080c 0B68     		ldr	r3, [r1]
 1102 080e 4C68     		ldr	r4, [r1, #4]
 1103 0810 D422     		mov	r2, #212
 1104 0812 9200     		lsl	r2, r2, #2
 1105 0814 D219     		add	r2, r2, r7
 1106 0816 1360     		str	r3, [r2]
 1107 0818 5460     		str	r4, [r2, #4]
 1108              	.L35:
 143:../Sources/main.c **** 				if (area[i] <= grausaida)
 1109              		.loc 1 143 0
 1110 081a 944B     		ldr	r3, .L343+44
 1111 081c EC24     		mov	r4, #236
 1112 081e A400     		lsl	r4, r4, #2
 1113 0820 E419     		add	r4, r4, r7
 1114 0822 E218     		add	r2, r4, r3
 1115 0824 EB21     		mov	r1, #235
 1116 0826 8900     		lsl	r1, r1, #2
 1117 0828 C919     		add	r1, r1, r7
 1118 082a 0B68     		ldr	r3, [r1]
 1119 082c DB00     		lsl	r3, r3, #3
 1120 082e D318     		add	r3, r2, r3
 1121 0830 5C68     		ldr	r4, [r3, #4]
 1122 0832 1B68     		ldr	r3, [r3]
 1123 0834 181C     		mov	r0, r3
 1124 0836 211C     		mov	r1, r4
 1125 0838 D424     		mov	r4, #212
 1126 083a A400     		lsl	r4, r4, #2
 1127 083c E419     		add	r4, r4, r7
 1128 083e 2268     		ldr	r2, [r4]
 1129 0840 6368     		ldr	r3, [r4, #4]
 1130 0842 FFF7FEFF 		bl	__aeabi_dcmple
 1131 0846 031C     		mov	r3, r0
 1132 0848 002B     		cmp	r3, #0
 1133 084a 00D1     		bne	.LCB966
 1134 084c 8EE0     		b	.L33	@long jump
 1135              	.LCB966:
 1136              	.L253:
 144:../Sources/main.c **** 					area[i] = grausaida;
 1137              		.loc 1 144 0
 1138 084e 874B     		ldr	r3, .L343+44
 1139 0850 EC21     		mov	r1, #236
 1140 0852 8900     		lsl	r1, r1, #2
 1141 0854 C919     		add	r1, r1, r7
 1142 0856 CA18     		add	r2, r1, r3
 1143 0858 EB24     		mov	r4, #235
 1144 085a A400     		lsl	r4, r4, #2
 1145 085c E419     		add	r4, r4, r7
 1146 085e 2368     		ldr	r3, [r4]
 1147 0860 DB00     		lsl	r3, r3, #3
 1148 0862 D218     		add	r2, r2, r3
 1149 0864 D421     		mov	r1, #212
 1150 0866 8900     		lsl	r1, r1, #2
 1151 0868 C919     		add	r1, r1, r7
 1152 086a 0B68     		ldr	r3, [r1]
 1153 086c 4C68     		ldr	r4, [r1, #4]
 1154 086e 1360     		str	r3, [r2]
 1155 0870 5460     		str	r4, [r2, #4]
 143:../Sources/main.c **** 				if (area[i] <= grausaida)
 1156              		.loc 1 143 0
 1157 0872 7BE0     		b	.L33
 1158              	.L34:
 145:../Sources/main.c **** 			}
 146:../Sources/main.c **** 
 147:../Sources/main.c **** 			else if (servang >= 1375 && servang <= 1500) {
 1159              		.loc 1 147 0
 1160 0874 D723     		mov	r3, #215
 1161 0876 9B00     		lsl	r3, r3, #2
 1162 0878 DB19     		add	r3, r3, r7
 1163 087a 1A68     		ldr	r2, [r3]
 1164 087c 7C4B     		ldr	r3, .L343+48
 1165 087e 9A42     		cmp	r2, r3
 1166 0880 00DC     		bgt	.LCB994
 1167 0882 73E0     		b	.L33	@long jump
 1168              	.LCB994:
 1169              		.loc 1 147 0 is_stmt 0
 1170 0884 D724     		mov	r4, #215
 1171 0886 A400     		lsl	r4, r4, #2
 1172 0888 E419     		add	r4, r4, r7
 1173 088a 2268     		ldr	r2, [r4]
 1174 088c 754B     		ldr	r3, .L343+36
 1175 088e 9A42     		cmp	r2, r3
 1176 0890 6CDC     		bgt	.L33
 148:../Sources/main.c **** 
 149:../Sources/main.c **** 				grausaida = ((float) (-servang / 125.0)) + (12.0); //reta c
 1177              		.loc 1 149 0 is_stmt 1
 1178 0892 D721     		mov	r1, #215
 1179 0894 8900     		lsl	r1, r1, #2
 1180 0896 C919     		add	r1, r1, r7
 1181 0898 0B68     		ldr	r3, [r1]
 1182 089a 5B42     		neg	r3, r3
 1183 089c 181C     		mov	r0, r3
 1184 089e FFF7FEFF 		bl	__aeabi_i2d
 1185 08a2 031C     		mov	r3, r0
 1186 08a4 0C1C     		mov	r4, r1
 1187 08a6 181C     		mov	r0, r3
 1188 08a8 211C     		mov	r1, r4
 1189 08aa 674A     		ldr	r2, .L343+8
 1190 08ac 674B     		ldr	r3, .L343+12
 1191 08ae FFF7FEFF 		bl	__aeabi_ddiv
 1192 08b2 031C     		mov	r3, r0
 1193 08b4 0C1C     		mov	r4, r1
 1194 08b6 181C     		mov	r0, r3
 1195 08b8 211C     		mov	r1, r4
 1196 08ba FFF7FEFF 		bl	__aeabi_d2f
 1197 08be 031C     		add	r3, r0, #0
 1198 08c0 181C     		add	r0, r3, #0
 1199 08c2 FFF7FEFF 		bl	__aeabi_f2d
 1200 08c6 031C     		mov	r3, r0
 1201 08c8 0C1C     		mov	r4, r1
 1202 08ca 181C     		mov	r0, r3
 1203 08cc 211C     		mov	r1, r4
 1204 08ce 624A     		ldr	r2, .L343+24
 1205 08d0 624B     		ldr	r3, .L343+28
 1206 08d2 FFF7FEFF 		bl	__aeabi_dadd
 1207 08d6 031C     		mov	r3, r0
 1208 08d8 0C1C     		mov	r4, r1
 1209 08da D422     		mov	r2, #212
 1210 08dc 9200     		lsl	r2, r2, #2
 1211 08de D219     		add	r2, r2, r7
 1212 08e0 1360     		str	r3, [r2]
 1213 08e2 5460     		str	r4, [r2, #4]
 150:../Sources/main.c **** 				if (grausaida > ns)
 1214              		.loc 1 150 0
 1215 08e4 D423     		mov	r3, #212
 1216 08e6 9B00     		lsl	r3, r3, #2
 1217 08e8 DB19     		add	r3, r3, r7
 1218 08ea 1868     		ldr	r0, [r3]
 1219 08ec 5968     		ldr	r1, [r3, #4]
 1220 08ee E024     		mov	r4, #224
 1221 08f0 A400     		lsl	r4, r4, #2
 1222 08f2 E419     		add	r4, r4, r7
 1223 08f4 2268     		ldr	r2, [r4]
 1224 08f6 6368     		ldr	r3, [r4, #4]
 1225 08f8 FFF7FEFF 		bl	__aeabi_dcmpgt
 1226 08fc 031C     		mov	r3, r0
 1227 08fe 002B     		cmp	r3, #0
 1228 0900 09D0     		beq	.L39
 1229              	.L254:
 151:../Sources/main.c **** 					grausaida = ns;
 1230              		.loc 1 151 0
 1231 0902 E021     		mov	r1, #224
 1232 0904 8900     		lsl	r1, r1, #2
 1233 0906 C919     		add	r1, r1, r7
 1234 0908 0B68     		ldr	r3, [r1]
 1235 090a 4C68     		ldr	r4, [r1, #4]
 1236 090c D422     		mov	r2, #212
 1237 090e 9200     		lsl	r2, r2, #2
 1238 0910 D219     		add	r2, r2, r7
 1239 0912 1360     		str	r3, [r2]
 1240 0914 5460     		str	r4, [r2, #4]
 1241              	.L39:
 152:../Sources/main.c **** 				if (area[i] <= grausaida)
 1242              		.loc 1 152 0
 1243 0916 554B     		ldr	r3, .L343+44
 1244 0918 EC24     		mov	r4, #236
 1245 091a A400     		lsl	r4, r4, #2
 1246 091c E419     		add	r4, r4, r7
 1247 091e E218     		add	r2, r4, r3
 1248 0920 EB21     		mov	r1, #235
 1249 0922 8900     		lsl	r1, r1, #2
 1250 0924 C919     		add	r1, r1, r7
 1251 0926 0B68     		ldr	r3, [r1]
 1252 0928 DB00     		lsl	r3, r3, #3
 1253 092a D318     		add	r3, r2, r3
 1254 092c 5C68     		ldr	r4, [r3, #4]
 1255 092e 1B68     		ldr	r3, [r3]
 1256 0930 181C     		mov	r0, r3
 1257 0932 211C     		mov	r1, r4
 1258 0934 D424     		mov	r4, #212
 1259 0936 A400     		lsl	r4, r4, #2
 1260 0938 E419     		add	r4, r4, r7
 1261 093a 2268     		ldr	r2, [r4]
 1262 093c 6368     		ldr	r3, [r4, #4]
 1263 093e FFF7FEFF 		bl	__aeabi_dcmple
 1264 0942 031C     		mov	r3, r0
 1265 0944 002B     		cmp	r3, #0
 1266 0946 11D0     		beq	.L33
 1267              	.L255:
 153:../Sources/main.c **** 					area[i] = grausaida;
 1268              		.loc 1 153 0
 1269 0948 484B     		ldr	r3, .L343+44
 1270 094a EC21     		mov	r1, #236
 1271 094c 8900     		lsl	r1, r1, #2
 1272 094e C919     		add	r1, r1, r7
 1273 0950 CA18     		add	r2, r1, r3
 1274 0952 EB24     		mov	r4, #235
 1275 0954 A400     		lsl	r4, r4, #2
 1276 0956 E419     		add	r4, r4, r7
 1277 0958 2368     		ldr	r3, [r4]
 1278 095a DB00     		lsl	r3, r3, #3
 1279 095c D218     		add	r2, r2, r3
 1280 095e D421     		mov	r1, #212
 1281 0960 8900     		lsl	r1, r1, #2
 1282 0962 C919     		add	r1, r1, r7
 1283 0964 0B68     		ldr	r3, [r1]
 1284 0966 4C68     		ldr	r4, [r1, #4]
 1285 0968 1360     		str	r3, [r2]
 1286 096a 5460     		str	r4, [r2, #4]
 1287              	.L33:
 154:../Sources/main.c **** 			}
 155:../Sources/main.c **** 			servang = servang + 10;
 1288              		.loc 1 155 0
 1289 096c D722     		mov	r2, #215
 1290 096e 9200     		lsl	r2, r2, #2
 1291 0970 D219     		add	r2, r2, r7
 1292 0972 1368     		ldr	r3, [r2]
 1293 0974 0A33     		add	r3, r3, #10
 1294 0976 D724     		mov	r4, #215
 1295 0978 A400     		lsl	r4, r4, #2
 1296 097a E419     		add	r4, r4, r7
 1297 097c 2360     		str	r3, [r4]
 132:../Sources/main.c **** 		for (i = 0; i < 100; i++) {
 1298              		.loc 1 132 0
 1299 097e EB21     		mov	r1, #235
 1300 0980 8900     		lsl	r1, r1, #2
 1301 0982 C919     		add	r1, r1, r7
 1302 0984 0B68     		ldr	r3, [r1]
 1303 0986 0133     		add	r3, r3, #1
 1304 0988 EB22     		mov	r2, #235
 1305 098a 9200     		lsl	r2, r2, #2
 1306 098c D219     		add	r2, r2, r7
 1307 098e 1360     		str	r3, [r2]
 1308              	.L30:
 132:../Sources/main.c **** 		for (i = 0; i < 100; i++) {
 1309              		.loc 1 132 0 is_stmt 0
 1310 0990 EB24     		mov	r4, #235
 1311 0992 A400     		lsl	r4, r4, #2
 1312 0994 E419     		add	r4, r4, r7
 1313 0996 2368     		ldr	r3, [r4]
 1314 0998 632B     		cmp	r3, #99
 1315 099a 00DC     		bgt	.LCB1124
 1316 099c D8E6     		b	.L42	@long jump
 1317              	.LCB1124:
 156:../Sources/main.c **** 		}
 157:../Sources/main.c **** 		servang = 1000;
 1318              		.loc 1 157 0 is_stmt 1
 1319 099e FA23     		mov	r3, #250
 1320 09a0 9B00     		lsl	r3, r3, #2
 1321 09a2 D721     		mov	r1, #215
 1322 09a4 8900     		lsl	r1, r1, #2
 1323 09a6 C919     		add	r1, r1, r7
 1324 09a8 0B60     		str	r3, [r1]
 158:../Sources/main.c **** 
 159:../Sources/main.c **** //-------------- SL e L ---------------
 160:../Sources/main.c **** 		if (graul < grausl) {
 1325              		.loc 1 160 0
 1326 09aa CB23     		mov	r3, #203
 1327 09ac 9B00     		lsl	r3, r3, #2
 1328 09ae DB19     		add	r3, r3, r7
 1329 09b0 1A68     		ldr	r2, [r3]
 1330 09b2 C924     		mov	r4, #201
 1331 09b4 A400     		lsl	r4, r4, #2
 1332 09b6 E419     		add	r4, r4, r7
 1333 09b8 2368     		ldr	r3, [r4]
 1334 09ba 101C     		add	r0, r2, #0
 1335 09bc 191C     		add	r1, r3, #0
 1336 09be FFF7FEFF 		bl	__aeabi_fcmplt
 1337 09c2 031C     		mov	r3, r0
 1338 09c4 002B     		cmp	r3, #0
 1339 09c6 0ED0     		beq	.L323
 1340              	.L256:
 161:../Sources/main.c **** 			ns = graul;
 1341              		.loc 1 161 0
 1342 09c8 CB21     		mov	r1, #203
 1343 09ca 8900     		lsl	r1, r1, #2
 1344 09cc C919     		add	r1, r1, r7
 1345 09ce 0B68     		ldr	r3, [r1]
 1346 09d0 181C     		add	r0, r3, #0
 1347 09d2 FFF7FEFF 		bl	__aeabi_f2d
 1348 09d6 031C     		mov	r3, r0
 1349 09d8 0C1C     		mov	r4, r1
 1350 09da E022     		mov	r2, #224
 1351 09dc 9200     		lsl	r2, r2, #2
 1352 09de D219     		add	r2, r2, r7
 1353 09e0 1360     		str	r3, [r2]
 1354 09e2 5460     		str	r4, [r2, #4]
 1355 09e4 0DE0     		b	.L45
 1356              	.L323:
 162:../Sources/main.c **** 		} else
 163:../Sources/main.c **** 			ns = grausl;
 1357              		.loc 1 163 0
 1358 09e6 C924     		mov	r4, #201
 1359 09e8 A400     		lsl	r4, r4, #2
 1360 09ea E419     		add	r4, r4, r7
 1361 09ec 2368     		ldr	r3, [r4]
 1362 09ee 181C     		add	r0, r3, #0
 1363 09f0 FFF7FEFF 		bl	__aeabi_f2d
 1364 09f4 031C     		mov	r3, r0
 1365 09f6 0C1C     		mov	r4, r1
 1366 09f8 E021     		mov	r1, #224
 1367 09fa 8900     		lsl	r1, r1, #2
 1368 09fc C919     		add	r1, r1, r7
 1369 09fe 0B60     		str	r3, [r1]
 1370 0a00 4C60     		str	r4, [r1, #4]
 1371              	.L45:
 164:../Sources/main.c **** 
 165:../Sources/main.c **** 		for (i = 0; i < 100; i++) {
 1372              		.loc 1 165 0
 1373 0a02 0023     		mov	r3, #0
 1374 0a04 EB22     		mov	r2, #235
 1375 0a06 9200     		lsl	r2, r2, #2
 1376 0a08 D219     		add	r2, r2, r7
 1377 0a0a 1360     		str	r3, [r2]
 1378 0a0c 3CE1     		b	.L46
 1379              	.L58:
 166:../Sources/main.c **** 			if (servang < 1250 || servang > 1500) {
 1380              		.loc 1 166 0
 1381 0a0e D723     		mov	r3, #215
 1382 0a10 9B00     		lsl	r3, r3, #2
 1383 0a12 DB19     		add	r3, r3, r7
 1384 0a14 1A68     		ldr	r2, [r3]
 1385 0a16 124B     		ldr	r3, .L343+32
 1386 0a18 9A42     		cmp	r2, r3
 1387 0a1a 06DD     		ble	.L47
 1388              		.loc 1 166 0 is_stmt 0
 1389 0a1c D724     		mov	r4, #215
 1390 0a1e A400     		lsl	r4, r4, #2
 1391 0a20 E419     		add	r4, r4, r7
 1392 0a22 2268     		ldr	r2, [r4]
 1393 0a24 0F4B     		ldr	r3, .L343+36
 1394 0a26 9A42     		cmp	r2, r3
 1395 0a28 24DD     		ble	.L48
 1396              	.L47:
 167:../Sources/main.c **** 				grausaida = 0;
 1397              		.loc 1 167 0 is_stmt 1
 1398 0a2a 064C     		ldr	r4, .L343+4
 1399 0a2c 044B     		ldr	r3, .L343
 1400 0a2e D421     		mov	r1, #212
 1401 0a30 8900     		lsl	r1, r1, #2
 1402 0a32 C919     		add	r1, r1, r7
 1403 0a34 0B60     		str	r3, [r1]
 1404 0a36 4C60     		str	r4, [r1, #4]
 1405 0a38 14E1     		b	.L49
 1406              	.L344:
 1407 0a3a C046C046 		.align	3
 1407      C046
 1408              	.L343:
 1409 0a40 00000000 		.word	0
 1410 0a44 00000000 		.word	0
 1411 0a48 00000000 		.word	0
 1412 0a4c 00405F40 		.word	1079984128
 1413 0a50 00000000 		.word	0
 1414 0a54 00002440 		.word	1076101120
 1415 0a58 00000000 		.word	0
 1416 0a5c 00002840 		.word	1076363264
 1417 0a60 E1040000 		.word	1249
 1418 0a64 DC050000 		.word	1500
 1419 0a68 5F050000 		.word	1375
 1420 0a6c 50FCFFFF 		.word	-944
 1421 0a70 5E050000 		.word	1374
 1422              	.L48:
 168:../Sources/main.c **** 				//if(area[i]<=grausaida) area[i]=grausaida;
 169:../Sources/main.c **** 
 170:../Sources/main.c **** 			} else if (servang >= 1250 && servang <= 1375) {
 1423              		.loc 1 170 0
 1424 0a74 D723     		mov	r3, #215
 1425 0a76 9B00     		lsl	r3, r3, #2
 1426 0a78 DB19     		add	r3, r3, r7
 1427 0a7a 1A68     		ldr	r2, [r3]
 1428 0a7c B64B     		ldr	r3, .L345+32
 1429 0a7e 9A42     		cmp	r2, r3
 1430 0a80 00DC     		bgt	.LCB1229
 1431 0a82 73E0     		b	.L50	@long jump
 1432              	.LCB1229:
 1433              		.loc 1 170 0 is_stmt 0
 1434 0a84 D724     		mov	r4, #215
 1435 0a86 A400     		lsl	r4, r4, #2
 1436 0a88 E419     		add	r4, r4, r7
 1437 0a8a 2268     		ldr	r2, [r4]
 1438 0a8c B34B     		ldr	r3, .L345+36
 1439 0a8e 9A42     		cmp	r2, r3
 1440 0a90 6CDC     		bgt	.L50
 171:../Sources/main.c **** 
 172:../Sources/main.c **** 				grausaida = ((float) (servang / 125.0)) - (10.0); // reta b
 1441              		.loc 1 172 0 is_stmt 1
 1442 0a92 D721     		mov	r1, #215
 1443 0a94 8900     		lsl	r1, r1, #2
 1444 0a96 C919     		add	r1, r1, r7
 1445 0a98 0868     		ldr	r0, [r1]
 1446 0a9a FFF7FEFF 		bl	__aeabi_i2d
 1447 0a9e 031C     		mov	r3, r0
 1448 0aa0 0C1C     		mov	r4, r1
 1449 0aa2 181C     		mov	r0, r3
 1450 0aa4 211C     		mov	r1, r4
 1451 0aa6 A54B     		ldr	r3, .L345+4
 1452 0aa8 A34A     		ldr	r2, .L345
 1453 0aaa FFF7FEFF 		bl	__aeabi_ddiv
 1454 0aae 031C     		mov	r3, r0
 1455 0ab0 0C1C     		mov	r4, r1
 1456 0ab2 181C     		mov	r0, r3
 1457 0ab4 211C     		mov	r1, r4
 1458 0ab6 FFF7FEFF 		bl	__aeabi_d2f
 1459 0aba 031C     		add	r3, r0, #0
 1460 0abc 181C     		add	r0, r3, #0
 1461 0abe FFF7FEFF 		bl	__aeabi_f2d
 1462 0ac2 031C     		mov	r3, r0
 1463 0ac4 0C1C     		mov	r4, r1
 1464 0ac6 181C     		mov	r0, r3
 1465 0ac8 211C     		mov	r1, r4
 1466 0aca 9D4A     		ldr	r2, .L345+8
 1467 0acc 9D4B     		ldr	r3, .L345+12
 1468 0ace FFF7FEFF 		bl	__aeabi_dsub
 1469 0ad2 031C     		mov	r3, r0
 1470 0ad4 0C1C     		mov	r4, r1
 1471 0ad6 D422     		mov	r2, #212
 1472 0ad8 9200     		lsl	r2, r2, #2
 1473 0ada D219     		add	r2, r2, r7
 1474 0adc 1360     		str	r3, [r2]
 1475 0ade 5460     		str	r4, [r2, #4]
 173:../Sources/main.c **** 				if (grausaida > ns)
 1476              		.loc 1 173 0
 1477 0ae0 D423     		mov	r3, #212
 1478 0ae2 9B00     		lsl	r3, r3, #2
 1479 0ae4 DB19     		add	r3, r3, r7
 1480 0ae6 1868     		ldr	r0, [r3]
 1481 0ae8 5968     		ldr	r1, [r3, #4]
 1482 0aea E024     		mov	r4, #224
 1483 0aec A400     		lsl	r4, r4, #2
 1484 0aee E419     		add	r4, r4, r7
 1485 0af0 2268     		ldr	r2, [r4]
 1486 0af2 6368     		ldr	r3, [r4, #4]
 1487 0af4 FFF7FEFF 		bl	__aeabi_dcmpgt
 1488 0af8 031C     		mov	r3, r0
 1489 0afa 002B     		cmp	r3, #0
 1490 0afc 09D0     		beq	.L51
 1491              	.L257:
 174:../Sources/main.c **** 					grausaida = ns;
 1492              		.loc 1 174 0
 1493 0afe E021     		mov	r1, #224
 1494 0b00 8900     		lsl	r1, r1, #2
 1495 0b02 C919     		add	r1, r1, r7
 1496 0b04 0B68     		ldr	r3, [r1]
 1497 0b06 4C68     		ldr	r4, [r1, #4]
 1498 0b08 D422     		mov	r2, #212
 1499 0b0a 9200     		lsl	r2, r2, #2
 1500 0b0c D219     		add	r2, r2, r7
 1501 0b0e 1360     		str	r3, [r2]
 1502 0b10 5460     		str	r4, [r2, #4]
 1503              	.L51:
 175:../Sources/main.c **** 				if (area[i] <= grausaida)
 1504              		.loc 1 175 0
 1505 0b12 934B     		ldr	r3, .L345+40
 1506 0b14 EC24     		mov	r4, #236
 1507 0b16 A400     		lsl	r4, r4, #2
 1508 0b18 E419     		add	r4, r4, r7
 1509 0b1a E218     		add	r2, r4, r3
 1510 0b1c EB21     		mov	r1, #235
 1511 0b1e 8900     		lsl	r1, r1, #2
 1512 0b20 C919     		add	r1, r1, r7
 1513 0b22 0B68     		ldr	r3, [r1]
 1514 0b24 DB00     		lsl	r3, r3, #3
 1515 0b26 D318     		add	r3, r2, r3
 1516 0b28 5C68     		ldr	r4, [r3, #4]
 1517 0b2a 1B68     		ldr	r3, [r3]
 1518 0b2c 181C     		mov	r0, r3
 1519 0b2e 211C     		mov	r1, r4
 1520 0b30 D424     		mov	r4, #212
 1521 0b32 A400     		lsl	r4, r4, #2
 1522 0b34 E419     		add	r4, r4, r7
 1523 0b36 2268     		ldr	r2, [r4]
 1524 0b38 6368     		ldr	r3, [r4, #4]
 1525 0b3a FFF7FEFF 		bl	__aeabi_dcmple
 1526 0b3e 031C     		mov	r3, r0
 1527 0b40 002B     		cmp	r3, #0
 1528 0b42 00D1     		bne	.LCB1312
 1529 0b44 8EE0     		b	.L49	@long jump
 1530              	.LCB1312:
 1531              	.L258:
 176:../Sources/main.c **** 					area[i] = grausaida;
 1532              		.loc 1 176 0
 1533 0b46 864B     		ldr	r3, .L345+40
 1534 0b48 EC21     		mov	r1, #236
 1535 0b4a 8900     		lsl	r1, r1, #2
 1536 0b4c C919     		add	r1, r1, r7
 1537 0b4e CA18     		add	r2, r1, r3
 1538 0b50 EB24     		mov	r4, #235
 1539 0b52 A400     		lsl	r4, r4, #2
 1540 0b54 E419     		add	r4, r4, r7
 1541 0b56 2368     		ldr	r3, [r4]
 1542 0b58 DB00     		lsl	r3, r3, #3
 1543 0b5a D218     		add	r2, r2, r3
 1544 0b5c D421     		mov	r1, #212
 1545 0b5e 8900     		lsl	r1, r1, #2
 1546 0b60 C919     		add	r1, r1, r7
 1547 0b62 0B68     		ldr	r3, [r1]
 1548 0b64 4C68     		ldr	r4, [r1, #4]
 1549 0b66 1360     		str	r3, [r2]
 1550 0b68 5460     		str	r4, [r2, #4]
 175:../Sources/main.c **** 				if (area[i] <= grausaida)
 1551              		.loc 1 175 0
 1552 0b6a 7BE0     		b	.L49
 1553              	.L50:
 177:../Sources/main.c **** 			}
 178:../Sources/main.c **** 
 179:../Sources/main.c **** 			else if (servang >= 1375 && servang <= 1500) {
 1554              		.loc 1 179 0
 1555 0b6c D723     		mov	r3, #215
 1556 0b6e 9B00     		lsl	r3, r3, #2
 1557 0b70 DB19     		add	r3, r3, r7
 1558 0b72 1A68     		ldr	r2, [r3]
 1559 0b74 7B4B     		ldr	r3, .L345+44
 1560 0b76 9A42     		cmp	r2, r3
 1561 0b78 00DC     		bgt	.LCB1340
 1562 0b7a 73E0     		b	.L49	@long jump
 1563              	.LCB1340:
 1564              		.loc 1 179 0 is_stmt 0
 1565 0b7c D724     		mov	r4, #215
 1566 0b7e A400     		lsl	r4, r4, #2
 1567 0b80 E419     		add	r4, r4, r7
 1568 0b82 2268     		ldr	r2, [r4]
 1569 0b84 784B     		ldr	r3, .L345+48
 1570 0b86 9A42     		cmp	r2, r3
 1571 0b88 6CDC     		bgt	.L49
 180:../Sources/main.c **** 
 181:../Sources/main.c **** 				grausaida = ((float) (-servang / 125.0)) + (12.0); //reta c
 1572              		.loc 1 181 0 is_stmt 1
 1573 0b8a D721     		mov	r1, #215
 1574 0b8c 8900     		lsl	r1, r1, #2
 1575 0b8e C919     		add	r1, r1, r7
 1576 0b90 0B68     		ldr	r3, [r1]
 1577 0b92 5B42     		neg	r3, r3
 1578 0b94 181C     		mov	r0, r3
 1579 0b96 FFF7FEFF 		bl	__aeabi_i2d
 1580 0b9a 031C     		mov	r3, r0
 1581 0b9c 0C1C     		mov	r4, r1
 1582 0b9e 181C     		mov	r0, r3
 1583 0ba0 211C     		mov	r1, r4
 1584 0ba2 664B     		ldr	r3, .L345+4
 1585 0ba4 644A     		ldr	r2, .L345
 1586 0ba6 FFF7FEFF 		bl	__aeabi_ddiv
 1587 0baa 031C     		mov	r3, r0
 1588 0bac 0C1C     		mov	r4, r1
 1589 0bae 181C     		mov	r0, r3
 1590 0bb0 211C     		mov	r1, r4
 1591 0bb2 FFF7FEFF 		bl	__aeabi_d2f
 1592 0bb6 031C     		add	r3, r0, #0
 1593 0bb8 181C     		add	r0, r3, #0
 1594 0bba FFF7FEFF 		bl	__aeabi_f2d
 1595 0bbe 031C     		mov	r3, r0
 1596 0bc0 0C1C     		mov	r4, r1
 1597 0bc2 181C     		mov	r0, r3
 1598 0bc4 211C     		mov	r1, r4
 1599 0bc6 604A     		ldr	r2, .L345+16
 1600 0bc8 604B     		ldr	r3, .L345+20
 1601 0bca FFF7FEFF 		bl	__aeabi_dadd
 1602 0bce 031C     		mov	r3, r0
 1603 0bd0 0C1C     		mov	r4, r1
 1604 0bd2 D422     		mov	r2, #212
 1605 0bd4 9200     		lsl	r2, r2, #2
 1606 0bd6 D219     		add	r2, r2, r7
 1607 0bd8 1360     		str	r3, [r2]
 1608 0bda 5460     		str	r4, [r2, #4]
 182:../Sources/main.c **** 				if (grausaida > ns)
 1609              		.loc 1 182 0
 1610 0bdc D423     		mov	r3, #212
 1611 0bde 9B00     		lsl	r3, r3, #2
 1612 0be0 DB19     		add	r3, r3, r7
 1613 0be2 1868     		ldr	r0, [r3]
 1614 0be4 5968     		ldr	r1, [r3, #4]
 1615 0be6 E024     		mov	r4, #224
 1616 0be8 A400     		lsl	r4, r4, #2
 1617 0bea E419     		add	r4, r4, r7
 1618 0bec 2268     		ldr	r2, [r4]
 1619 0bee 6368     		ldr	r3, [r4, #4]
 1620 0bf0 FFF7FEFF 		bl	__aeabi_dcmpgt
 1621 0bf4 031C     		mov	r3, r0
 1622 0bf6 002B     		cmp	r3, #0
 1623 0bf8 09D0     		beq	.L55
 1624              	.L259:
 183:../Sources/main.c **** 					grausaida = ns;
 1625              		.loc 1 183 0
 1626 0bfa E021     		mov	r1, #224
 1627 0bfc 8900     		lsl	r1, r1, #2
 1628 0bfe C919     		add	r1, r1, r7
 1629 0c00 0B68     		ldr	r3, [r1]
 1630 0c02 4C68     		ldr	r4, [r1, #4]
 1631 0c04 D422     		mov	r2, #212
 1632 0c06 9200     		lsl	r2, r2, #2
 1633 0c08 D219     		add	r2, r2, r7
 1634 0c0a 1360     		str	r3, [r2]
 1635 0c0c 5460     		str	r4, [r2, #4]
 1636              	.L55:
 184:../Sources/main.c **** 				if (area[i] <= grausaida)
 1637              		.loc 1 184 0
 1638 0c0e 544B     		ldr	r3, .L345+40
 1639 0c10 EC24     		mov	r4, #236
 1640 0c12 A400     		lsl	r4, r4, #2
 1641 0c14 E419     		add	r4, r4, r7
 1642 0c16 E218     		add	r2, r4, r3
 1643 0c18 EB21     		mov	r1, #235
 1644 0c1a 8900     		lsl	r1, r1, #2
 1645 0c1c C919     		add	r1, r1, r7
 1646 0c1e 0B68     		ldr	r3, [r1]
 1647 0c20 DB00     		lsl	r3, r3, #3
 1648 0c22 D318     		add	r3, r2, r3
 1649 0c24 5C68     		ldr	r4, [r3, #4]
 1650 0c26 1B68     		ldr	r3, [r3]
 1651 0c28 181C     		mov	r0, r3
 1652 0c2a 211C     		mov	r1, r4
 1653 0c2c D424     		mov	r4, #212
 1654 0c2e A400     		lsl	r4, r4, #2
 1655 0c30 E419     		add	r4, r4, r7
 1656 0c32 2268     		ldr	r2, [r4]
 1657 0c34 6368     		ldr	r3, [r4, #4]
 1658 0c36 FFF7FEFF 		bl	__aeabi_dcmple
 1659 0c3a 031C     		mov	r3, r0
 1660 0c3c 002B     		cmp	r3, #0
 1661 0c3e 11D0     		beq	.L49
 1662              	.L260:
 185:../Sources/main.c **** 					area[i] = grausaida;
 1663              		.loc 1 185 0
 1664 0c40 474B     		ldr	r3, .L345+40
 1665 0c42 EC21     		mov	r1, #236
 1666 0c44 8900     		lsl	r1, r1, #2
 1667 0c46 C919     		add	r1, r1, r7
 1668 0c48 CA18     		add	r2, r1, r3
 1669 0c4a EB24     		mov	r4, #235
 1670 0c4c A400     		lsl	r4, r4, #2
 1671 0c4e E419     		add	r4, r4, r7
 1672 0c50 2368     		ldr	r3, [r4]
 1673 0c52 DB00     		lsl	r3, r3, #3
 1674 0c54 D218     		add	r2, r2, r3
 1675 0c56 D421     		mov	r1, #212
 1676 0c58 8900     		lsl	r1, r1, #2
 1677 0c5a C919     		add	r1, r1, r7
 1678 0c5c 0B68     		ldr	r3, [r1]
 1679 0c5e 4C68     		ldr	r4, [r1, #4]
 1680 0c60 1360     		str	r3, [r2]
 1681 0c62 5460     		str	r4, [r2, #4]
 1682              	.L49:
 186:../Sources/main.c **** 			}
 187:../Sources/main.c **** 			servang = servang + 10;
 1683              		.loc 1 187 0
 1684 0c64 D722     		mov	r2, #215
 1685 0c66 9200     		lsl	r2, r2, #2
 1686 0c68 D219     		add	r2, r2, r7
 1687 0c6a 1368     		ldr	r3, [r2]
 1688 0c6c 0A33     		add	r3, r3, #10
 1689 0c6e D724     		mov	r4, #215
 1690 0c70 A400     		lsl	r4, r4, #2
 1691 0c72 E419     		add	r4, r4, r7
 1692 0c74 2360     		str	r3, [r4]
 165:../Sources/main.c **** 		for (i = 0; i < 100; i++) {
 1693              		.loc 1 165 0
 1694 0c76 EB21     		mov	r1, #235
 1695 0c78 8900     		lsl	r1, r1, #2
 1696 0c7a C919     		add	r1, r1, r7
 1697 0c7c 0B68     		ldr	r3, [r1]
 1698 0c7e 0133     		add	r3, r3, #1
 1699 0c80 EB22     		mov	r2, #235
 1700 0c82 9200     		lsl	r2, r2, #2
 1701 0c84 D219     		add	r2, r2, r7
 1702 0c86 1360     		str	r3, [r2]
 1703              	.L46:
 165:../Sources/main.c **** 		for (i = 0; i < 100; i++) {
 1704              		.loc 1 165 0 is_stmt 0
 1705 0c88 EB24     		mov	r4, #235
 1706 0c8a A400     		lsl	r4, r4, #2
 1707 0c8c E419     		add	r4, r4, r7
 1708 0c8e 2368     		ldr	r3, [r4]
 1709 0c90 632B     		cmp	r3, #99
 1710 0c92 00DC     		bgt	.LCB1470
 1711 0c94 BBE6     		b	.L58	@long jump
 1712              	.LCB1470:
 188:../Sources/main.c **** 		}
 189:../Sources/main.c **** 
 190:../Sources/main.c **** 		servang = 1000;
 1713              		.loc 1 190 0 is_stmt 1
 1714 0c96 FA23     		mov	r3, #250
 1715 0c98 9B00     		lsl	r3, r3, #2
 1716 0c9a D721     		mov	r1, #215
 1717 0c9c 8900     		lsl	r1, r1, #2
 1718 0c9e C919     		add	r1, r1, r7
 1719 0ca0 0B60     		str	r3, [r1]
 191:../Sources/main.c **** 
 192:../Sources/main.c **** //-------------- SL e M ---------------
 193:../Sources/main.c **** 		if (graum < grausl) {
 1720              		.loc 1 193 0
 1721 0ca2 CA23     		mov	r3, #202
 1722 0ca4 9B00     		lsl	r3, r3, #2
 1723 0ca6 DB19     		add	r3, r3, r7
 1724 0ca8 1A68     		ldr	r2, [r3]
 1725 0caa C924     		mov	r4, #201
 1726 0cac A400     		lsl	r4, r4, #2
 1727 0cae E419     		add	r4, r4, r7
 1728 0cb0 2368     		ldr	r3, [r4]
 1729 0cb2 101C     		add	r0, r2, #0
 1730 0cb4 191C     		add	r1, r3, #0
 1731 0cb6 FFF7FEFF 		bl	__aeabi_fcmplt
 1732 0cba 031C     		mov	r3, r0
 1733 0cbc 002B     		cmp	r3, #0
 1734 0cbe 0ED0     		beq	.L324
 1735              	.L261:
 194:../Sources/main.c **** 			z = graum;
 1736              		.loc 1 194 0
 1737 0cc0 CA21     		mov	r1, #202
 1738 0cc2 8900     		lsl	r1, r1, #2
 1739 0cc4 C919     		add	r1, r1, r7
 1740 0cc6 0B68     		ldr	r3, [r1]
 1741 0cc8 181C     		add	r0, r3, #0
 1742 0cca FFF7FEFF 		bl	__aeabi_f2d
 1743 0cce 031C     		mov	r3, r0
 1744 0cd0 0C1C     		mov	r4, r1
 1745 0cd2 DC22     		mov	r2, #220
 1746 0cd4 9200     		lsl	r2, r2, #2
 1747 0cd6 D219     		add	r2, r2, r7
 1748 0cd8 1360     		str	r3, [r2]
 1749 0cda 5460     		str	r4, [r2, #4]
 1750 0cdc 0DE0     		b	.L61
 1751              	.L324:
 195:../Sources/main.c **** 		} else
 196:../Sources/main.c **** 			z = grausl;
 1752              		.loc 1 196 0
 1753 0cde C924     		mov	r4, #201
 1754 0ce0 A400     		lsl	r4, r4, #2
 1755 0ce2 E419     		add	r4, r4, r7
 1756 0ce4 2368     		ldr	r3, [r4]
 1757 0ce6 181C     		add	r0, r3, #0
 1758 0ce8 FFF7FEFF 		bl	__aeabi_f2d
 1759 0cec 031C     		mov	r3, r0
 1760 0cee 0C1C     		mov	r4, r1
 1761 0cf0 DC21     		mov	r1, #220
 1762 0cf2 8900     		lsl	r1, r1, #2
 1763 0cf4 C919     		add	r1, r1, r7
 1764 0cf6 0B60     		str	r3, [r1]
 1765 0cf8 4C60     		str	r4, [r1, #4]
 1766              	.L61:
 197:../Sources/main.c **** 
 198:../Sources/main.c **** 		for (i = 0; i < 100; i++) {
 1767              		.loc 1 198 0
 1768 0cfa 0023     		mov	r3, #0
 1769 0cfc EB22     		mov	r2, #235
 1770 0cfe 9200     		lsl	r2, r2, #2
 1771 0d00 D219     		add	r2, r2, r7
 1772 0d02 1360     		str	r3, [r2]
 1773 0d04 3EE1     		b	.L62
 1774              	.L74:
 199:../Sources/main.c **** 			if (servang < 1375 || servang > 1625) {
 1775              		.loc 1 199 0
 1776 0d06 D723     		mov	r3, #215
 1777 0d08 9B00     		lsl	r3, r3, #2
 1778 0d0a DB19     		add	r3, r3, r7
 1779 0d0c 1A68     		ldr	r2, [r3]
 1780 0d0e 154B     		ldr	r3, .L345+44
 1781 0d10 9A42     		cmp	r2, r3
 1782 0d12 06DD     		ble	.L63
 1783              		.loc 1 199 0 is_stmt 0
 1784 0d14 D724     		mov	r4, #215
 1785 0d16 A400     		lsl	r4, r4, #2
 1786 0d18 E419     		add	r4, r4, r7
 1787 0d1a 2268     		ldr	r2, [r4]
 1788 0d1c 134B     		ldr	r3, .L345+52
 1789 0d1e 9A42     		cmp	r2, r3
 1790 0d20 26DD     		ble	.L64
 1791              	.L63:
 200:../Sources/main.c **** 				grausaida = 0;
 1792              		.loc 1 200 0 is_stmt 1
 1793 0d22 0B4B     		ldr	r3, .L345+24
 1794 0d24 0B4C     		ldr	r4, .L345+28
 1795 0d26 D421     		mov	r1, #212
 1796 0d28 8900     		lsl	r1, r1, #2
 1797 0d2a C919     		add	r1, r1, r7
 1798 0d2c 0B60     		str	r3, [r1]
 1799 0d2e 4C60     		str	r4, [r1, #4]
 1800 0d30 16E1     		b	.L65
 1801              	.L346:
 1802 0d32 C046C046 		.align	3
 1802      C046
 1803              	.L345:
 1804 0d38 00000000 		.word	0
 1805 0d3c 00405F40 		.word	1079984128
 1806 0d40 00000000 		.word	0
 1807 0d44 00002440 		.word	1076101120
 1808 0d48 00000000 		.word	0
 1809 0d4c 00002840 		.word	1076363264
 1810 0d50 00000000 		.word	0
 1811 0d54 00000000 		.word	0
 1812 0d58 E1040000 		.word	1249
 1813 0d5c 5F050000 		.word	1375
 1814 0d60 50FCFFFF 		.word	-944
 1815 0d64 5E050000 		.word	1374
 1816 0d68 DC050000 		.word	1500
 1817 0d6c 59060000 		.word	1625
 1818              	.L64:
 201:../Sources/main.c **** 				//if(area[i]<=grausaida) area[i]=grausaida;
 202:../Sources/main.c **** 
 203:../Sources/main.c **** 			} else if (servang >= 1375 && servang <= 1500) {
 1819              		.loc 1 203 0
 1820 0d70 D723     		mov	r3, #215
 1821 0d72 9B00     		lsl	r3, r3, #2
 1822 0d74 DB19     		add	r3, r3, r7
 1823 0d76 1A68     		ldr	r2, [r3]
 1824 0d78 B74B     		ldr	r3, .L347+32
 1825 0d7a 9A42     		cmp	r2, r3
 1826 0d7c 00DC     		bgt	.LCB1576
 1827 0d7e 73E0     		b	.L66	@long jump
 1828              	.LCB1576:
 1829              		.loc 1 203 0 is_stmt 0
 1830 0d80 D724     		mov	r4, #215
 1831 0d82 A400     		lsl	r4, r4, #2
 1832 0d84 E419     		add	r4, r4, r7
 1833 0d86 2268     		ldr	r2, [r4]
 1834 0d88 B44B     		ldr	r3, .L347+36
 1835 0d8a 9A42     		cmp	r2, r3
 1836 0d8c 6CDC     		bgt	.L66
 204:../Sources/main.c **** 
 205:../Sources/main.c **** 				grausaida = ((float) (servang / 125.0)) - (11.0); // reta d
 1837              		.loc 1 205 0 is_stmt 1
 1838 0d8e D721     		mov	r1, #215
 1839 0d90 8900     		lsl	r1, r1, #2
 1840 0d92 C919     		add	r1, r1, r7
 1841 0d94 0868     		ldr	r0, [r1]
 1842 0d96 FFF7FEFF 		bl	__aeabi_i2d
 1843 0d9a 031C     		mov	r3, r0
 1844 0d9c 0C1C     		mov	r4, r1
 1845 0d9e 181C     		mov	r0, r3
 1846 0da0 211C     		mov	r1, r4
 1847 0da2 A64B     		ldr	r3, .L347+4
 1848 0da4 A44A     		ldr	r2, .L347
 1849 0da6 FFF7FEFF 		bl	__aeabi_ddiv
 1850 0daa 031C     		mov	r3, r0
 1851 0dac 0C1C     		mov	r4, r1
 1852 0dae 181C     		mov	r0, r3
 1853 0db0 211C     		mov	r1, r4
 1854 0db2 FFF7FEFF 		bl	__aeabi_d2f
 1855 0db6 031C     		add	r3, r0, #0
 1856 0db8 181C     		add	r0, r3, #0
 1857 0dba FFF7FEFF 		bl	__aeabi_f2d
 1858 0dbe 031C     		mov	r3, r0
 1859 0dc0 0C1C     		mov	r4, r1
 1860 0dc2 181C     		mov	r0, r3
 1861 0dc4 211C     		mov	r1, r4
 1862 0dc6 9E4A     		ldr	r2, .L347+8
 1863 0dc8 9E4B     		ldr	r3, .L347+12
 1864 0dca FFF7FEFF 		bl	__aeabi_dsub
 1865 0dce 031C     		mov	r3, r0
 1866 0dd0 0C1C     		mov	r4, r1
 1867 0dd2 D422     		mov	r2, #212
 1868 0dd4 9200     		lsl	r2, r2, #2
 1869 0dd6 D219     		add	r2, r2, r7
 1870 0dd8 1360     		str	r3, [r2]
 1871 0dda 5460     		str	r4, [r2, #4]
 206:../Sources/main.c **** 				if (grausaida > z)
 1872              		.loc 1 206 0
 1873 0ddc D423     		mov	r3, #212
 1874 0dde 9B00     		lsl	r3, r3, #2
 1875 0de0 DB19     		add	r3, r3, r7
 1876 0de2 1868     		ldr	r0, [r3]
 1877 0de4 5968     		ldr	r1, [r3, #4]
 1878 0de6 DC24     		mov	r4, #220
 1879 0de8 A400     		lsl	r4, r4, #2
 1880 0dea E419     		add	r4, r4, r7
 1881 0dec 2268     		ldr	r2, [r4]
 1882 0dee 6368     		ldr	r3, [r4, #4]
 1883 0df0 FFF7FEFF 		bl	__aeabi_dcmpgt
 1884 0df4 031C     		mov	r3, r0
 1885 0df6 002B     		cmp	r3, #0
 1886 0df8 09D0     		beq	.L67
 1887              	.L262:
 207:../Sources/main.c **** 					grausaida = z;
 1888              		.loc 1 207 0
 1889 0dfa DC21     		mov	r1, #220
 1890 0dfc 8900     		lsl	r1, r1, #2
 1891 0dfe C919     		add	r1, r1, r7
 1892 0e00 0B68     		ldr	r3, [r1]
 1893 0e02 4C68     		ldr	r4, [r1, #4]
 1894 0e04 D422     		mov	r2, #212
 1895 0e06 9200     		lsl	r2, r2, #2
 1896 0e08 D219     		add	r2, r2, r7
 1897 0e0a 1360     		str	r3, [r2]
 1898 0e0c 5460     		str	r4, [r2, #4]
 1899              	.L67:
 208:../Sources/main.c **** 				if (area[i] <= grausaida)
 1900              		.loc 1 208 0
 1901 0e0e 944B     		ldr	r3, .L347+40
 1902 0e10 EC24     		mov	r4, #236
 1903 0e12 A400     		lsl	r4, r4, #2
 1904 0e14 E419     		add	r4, r4, r7
 1905 0e16 E218     		add	r2, r4, r3
 1906 0e18 EB21     		mov	r1, #235
 1907 0e1a 8900     		lsl	r1, r1, #2
 1908 0e1c C919     		add	r1, r1, r7
 1909 0e1e 0B68     		ldr	r3, [r1]
 1910 0e20 DB00     		lsl	r3, r3, #3
 1911 0e22 D318     		add	r3, r2, r3
 1912 0e24 5C68     		ldr	r4, [r3, #4]
 1913 0e26 1B68     		ldr	r3, [r3]
 1914 0e28 181C     		mov	r0, r3
 1915 0e2a 211C     		mov	r1, r4
 1916 0e2c D424     		mov	r4, #212
 1917 0e2e A400     		lsl	r4, r4, #2
 1918 0e30 E419     		add	r4, r4, r7
 1919 0e32 2268     		ldr	r2, [r4]
 1920 0e34 6368     		ldr	r3, [r4, #4]
 1921 0e36 FFF7FEFF 		bl	__aeabi_dcmple
 1922 0e3a 031C     		mov	r3, r0
 1923 0e3c 002B     		cmp	r3, #0
 1924 0e3e 00D1     		bne	.LCB1659
 1925 0e40 8EE0     		b	.L65	@long jump
 1926              	.LCB1659:
 1927              	.L263:
 209:../Sources/main.c **** 					area[i] = grausaida;
 1928              		.loc 1 209 0
 1929 0e42 874B     		ldr	r3, .L347+40
 1930 0e44 EC21     		mov	r1, #236
 1931 0e46 8900     		lsl	r1, r1, #2
 1932 0e48 C919     		add	r1, r1, r7
 1933 0e4a CA18     		add	r2, r1, r3
 1934 0e4c EB24     		mov	r4, #235
 1935 0e4e A400     		lsl	r4, r4, #2
 1936 0e50 E419     		add	r4, r4, r7
 1937 0e52 2368     		ldr	r3, [r4]
 1938 0e54 DB00     		lsl	r3, r3, #3
 1939 0e56 D218     		add	r2, r2, r3
 1940 0e58 D421     		mov	r1, #212
 1941 0e5a 8900     		lsl	r1, r1, #2
 1942 0e5c C919     		add	r1, r1, r7
 1943 0e5e 0B68     		ldr	r3, [r1]
 1944 0e60 4C68     		ldr	r4, [r1, #4]
 1945 0e62 1360     		str	r3, [r2]
 1946 0e64 5460     		str	r4, [r2, #4]
 208:../Sources/main.c **** 				if (area[i] <= grausaida)
 1947              		.loc 1 208 0
 1948 0e66 7BE0     		b	.L65
 1949              	.L66:
 210:../Sources/main.c **** 			}
 211:../Sources/main.c **** 
 212:../Sources/main.c **** 			else if (servang >= 1500 && servang <= 1625) {
 1950              		.loc 1 212 0
 1951 0e68 D723     		mov	r3, #215
 1952 0e6a 9B00     		lsl	r3, r3, #2
 1953 0e6c DB19     		add	r3, r3, r7
 1954 0e6e 1A68     		ldr	r2, [r3]
 1955 0e70 7C4B     		ldr	r3, .L347+44
 1956 0e72 9A42     		cmp	r2, r3
 1957 0e74 00DC     		bgt	.LCB1687
 1958 0e76 73E0     		b	.L65	@long jump
 1959              	.LCB1687:
 1960              		.loc 1 212 0 is_stmt 0
 1961 0e78 D724     		mov	r4, #215
 1962 0e7a A400     		lsl	r4, r4, #2
 1963 0e7c E419     		add	r4, r4, r7
 1964 0e7e 2268     		ldr	r2, [r4]
 1965 0e80 794B     		ldr	r3, .L347+48
 1966 0e82 9A42     		cmp	r2, r3
 1967 0e84 6CDC     		bgt	.L65
 213:../Sources/main.c **** 
 214:../Sources/main.c **** 				grausaida = ((float) (-servang / 125.0)) + (13.0); //reta e
 1968              		.loc 1 214 0 is_stmt 1
 1969 0e86 D721     		mov	r1, #215
 1970 0e88 8900     		lsl	r1, r1, #2
 1971 0e8a C919     		add	r1, r1, r7
 1972 0e8c 0B68     		ldr	r3, [r1]
 1973 0e8e 5B42     		neg	r3, r3
 1974 0e90 181C     		mov	r0, r3
 1975 0e92 FFF7FEFF 		bl	__aeabi_i2d
 1976 0e96 031C     		mov	r3, r0
 1977 0e98 0C1C     		mov	r4, r1
 1978 0e9a 181C     		mov	r0, r3
 1979 0e9c 211C     		mov	r1, r4
 1980 0e9e 674B     		ldr	r3, .L347+4
 1981 0ea0 654A     		ldr	r2, .L347
 1982 0ea2 FFF7FEFF 		bl	__aeabi_ddiv
 1983 0ea6 031C     		mov	r3, r0
 1984 0ea8 0C1C     		mov	r4, r1
 1985 0eaa 181C     		mov	r0, r3
 1986 0eac 211C     		mov	r1, r4
 1987 0eae FFF7FEFF 		bl	__aeabi_d2f
 1988 0eb2 031C     		add	r3, r0, #0
 1989 0eb4 181C     		add	r0, r3, #0
 1990 0eb6 FFF7FEFF 		bl	__aeabi_f2d
 1991 0eba 031C     		mov	r3, r0
 1992 0ebc 0C1C     		mov	r4, r1
 1993 0ebe 181C     		mov	r0, r3
 1994 0ec0 211C     		mov	r1, r4
 1995 0ec2 614A     		ldr	r2, .L347+16
 1996 0ec4 614B     		ldr	r3, .L347+20
 1997 0ec6 FFF7FEFF 		bl	__aeabi_dadd
 1998 0eca 031C     		mov	r3, r0
 1999 0ecc 0C1C     		mov	r4, r1
 2000 0ece D422     		mov	r2, #212
 2001 0ed0 9200     		lsl	r2, r2, #2
 2002 0ed2 D219     		add	r2, r2, r7
 2003 0ed4 1360     		str	r3, [r2]
 2004 0ed6 5460     		str	r4, [r2, #4]
 215:../Sources/main.c **** 				if (grausaida > z)
 2005              		.loc 1 215 0
 2006 0ed8 D423     		mov	r3, #212
 2007 0eda 9B00     		lsl	r3, r3, #2
 2008 0edc DB19     		add	r3, r3, r7
 2009 0ede 1868     		ldr	r0, [r3]
 2010 0ee0 5968     		ldr	r1, [r3, #4]
 2011 0ee2 DC24     		mov	r4, #220
 2012 0ee4 A400     		lsl	r4, r4, #2
 2013 0ee6 E419     		add	r4, r4, r7
 2014 0ee8 2268     		ldr	r2, [r4]
 2015 0eea 6368     		ldr	r3, [r4, #4]
 2016 0eec FFF7FEFF 		bl	__aeabi_dcmpgt
 2017 0ef0 031C     		mov	r3, r0
 2018 0ef2 002B     		cmp	r3, #0
 2019 0ef4 09D0     		beq	.L71
 2020              	.L264:
 216:../Sources/main.c **** 					grausaida = z;
 2021              		.loc 1 216 0
 2022 0ef6 DC21     		mov	r1, #220
 2023 0ef8 8900     		lsl	r1, r1, #2
 2024 0efa C919     		add	r1, r1, r7
 2025 0efc 0B68     		ldr	r3, [r1]
 2026 0efe 4C68     		ldr	r4, [r1, #4]
 2027 0f00 D422     		mov	r2, #212
 2028 0f02 9200     		lsl	r2, r2, #2
 2029 0f04 D219     		add	r2, r2, r7
 2030 0f06 1360     		str	r3, [r2]
 2031 0f08 5460     		str	r4, [r2, #4]
 2032              	.L71:
 217:../Sources/main.c **** 				if (area[i] <= grausaida)
 2033              		.loc 1 217 0
 2034 0f0a 554B     		ldr	r3, .L347+40
 2035 0f0c EC24     		mov	r4, #236
 2036 0f0e A400     		lsl	r4, r4, #2
 2037 0f10 E419     		add	r4, r4, r7
 2038 0f12 E218     		add	r2, r4, r3
 2039 0f14 EB21     		mov	r1, #235
 2040 0f16 8900     		lsl	r1, r1, #2
 2041 0f18 C919     		add	r1, r1, r7
 2042 0f1a 0B68     		ldr	r3, [r1]
 2043 0f1c DB00     		lsl	r3, r3, #3
 2044 0f1e D318     		add	r3, r2, r3
 2045 0f20 5C68     		ldr	r4, [r3, #4]
 2046 0f22 1B68     		ldr	r3, [r3]
 2047 0f24 181C     		mov	r0, r3
 2048 0f26 211C     		mov	r1, r4
 2049 0f28 D424     		mov	r4, #212
 2050 0f2a A400     		lsl	r4, r4, #2
 2051 0f2c E419     		add	r4, r4, r7
 2052 0f2e 2268     		ldr	r2, [r4]
 2053 0f30 6368     		ldr	r3, [r4, #4]
 2054 0f32 FFF7FEFF 		bl	__aeabi_dcmple
 2055 0f36 031C     		mov	r3, r0
 2056 0f38 002B     		cmp	r3, #0
 2057 0f3a 11D0     		beq	.L65
 2058              	.L265:
 218:../Sources/main.c **** 					area[i] = grausaida;
 2059              		.loc 1 218 0
 2060 0f3c 484B     		ldr	r3, .L347+40
 2061 0f3e EC21     		mov	r1, #236
 2062 0f40 8900     		lsl	r1, r1, #2
 2063 0f42 C919     		add	r1, r1, r7
 2064 0f44 CA18     		add	r2, r1, r3
 2065 0f46 EB24     		mov	r4, #235
 2066 0f48 A400     		lsl	r4, r4, #2
 2067 0f4a E419     		add	r4, r4, r7
 2068 0f4c 2368     		ldr	r3, [r4]
 2069 0f4e DB00     		lsl	r3, r3, #3
 2070 0f50 D218     		add	r2, r2, r3
 2071 0f52 D421     		mov	r1, #212
 2072 0f54 8900     		lsl	r1, r1, #2
 2073 0f56 C919     		add	r1, r1, r7
 2074 0f58 0B68     		ldr	r3, [r1]
 2075 0f5a 4C68     		ldr	r4, [r1, #4]
 2076 0f5c 1360     		str	r3, [r2]
 2077 0f5e 5460     		str	r4, [r2, #4]
 2078              	.L65:
 219:../Sources/main.c **** 			}
 220:../Sources/main.c **** 			servang = servang + 10;
 2079              		.loc 1 220 0
 2080 0f60 D722     		mov	r2, #215
 2081 0f62 9200     		lsl	r2, r2, #2
 2082 0f64 D219     		add	r2, r2, r7
 2083 0f66 1368     		ldr	r3, [r2]
 2084 0f68 0A33     		add	r3, r3, #10
 2085 0f6a D724     		mov	r4, #215
 2086 0f6c A400     		lsl	r4, r4, #2
 2087 0f6e E419     		add	r4, r4, r7
 2088 0f70 2360     		str	r3, [r4]
 198:../Sources/main.c **** 		for (i = 0; i < 100; i++) {
 2089              		.loc 1 198 0
 2090 0f72 EB21     		mov	r1, #235
 2091 0f74 8900     		lsl	r1, r1, #2
 2092 0f76 C919     		add	r1, r1, r7
 2093 0f78 0B68     		ldr	r3, [r1]
 2094 0f7a 0133     		add	r3, r3, #1
 2095 0f7c EB22     		mov	r2, #235
 2096 0f7e 9200     		lsl	r2, r2, #2
 2097 0f80 D219     		add	r2, r2, r7
 2098 0f82 1360     		str	r3, [r2]
 2099              	.L62:
 198:../Sources/main.c **** 		for (i = 0; i < 100; i++) {
 2100              		.loc 1 198 0 is_stmt 0
 2101 0f84 EB24     		mov	r4, #235
 2102 0f86 A400     		lsl	r4, r4, #2
 2103 0f88 E419     		add	r4, r4, r7
 2104 0f8a 2368     		ldr	r3, [r4]
 2105 0f8c 632B     		cmp	r3, #99
 2106 0f8e 00DC     		bgt	.LCB1817
 2107 0f90 B9E6     		b	.L74	@long jump
 2108              	.LCB1817:
 221:../Sources/main.c **** 		}
 222:../Sources/main.c **** 		servang = 1000;
 2109              		.loc 1 222 0 is_stmt 1
 2110 0f92 FA23     		mov	r3, #250
 2111 0f94 9B00     		lsl	r3, r3, #2
 2112 0f96 D721     		mov	r1, #215
 2113 0f98 8900     		lsl	r1, r1, #2
 2114 0f9a C919     		add	r1, r1, r7
 2115 0f9c 0B60     		str	r3, [r1]
 223:../Sources/main.c **** //------------ SL e R ----------------
 224:../Sources/main.c **** 		if (graur < grausl) {
 2116              		.loc 1 224 0
 2117 0f9e C922     		mov	r2, #201
 2118 0fa0 9200     		lsl	r2, r2, #2
 2119 0fa2 D219     		add	r2, r2, r7
 2120 0fa4 1368     		ldr	r3, [r2]
 2121 0fa6 181C     		add	r0, r3, #0
 2122 0fa8 FFF7FEFF 		bl	__aeabi_f2d
 2123 0fac 031C     		mov	r3, r0
 2124 0fae 0C1C     		mov	r4, r1
 2125 0fb0 181C     		mov	r0, r3
 2126 0fb2 211C     		mov	r1, r4
 2127 0fb4 E624     		mov	r4, #230
 2128 0fb6 A400     		lsl	r4, r4, #2
 2129 0fb8 E419     		add	r4, r4, r7
 2130 0fba 2268     		ldr	r2, [r4]
 2131 0fbc 6368     		ldr	r3, [r4, #4]
 2132 0fbe FFF7FEFF 		bl	__aeabi_dcmpgt
 2133 0fc2 031C     		mov	r3, r0
 2134 0fc4 002B     		cmp	r3, #0
 2135 0fc6 0AD0     		beq	.L325
 2136              	.L266:
 225:../Sources/main.c **** 			ps = graur;
 2137              		.loc 1 225 0
 2138 0fc8 E621     		mov	r1, #230
 2139 0fca 8900     		lsl	r1, r1, #2
 2140 0fcc C919     		add	r1, r1, r7
 2141 0fce 0B68     		ldr	r3, [r1]
 2142 0fd0 4C68     		ldr	r4, [r1, #4]
 2143 0fd2 DA22     		mov	r2, #218
 2144 0fd4 9200     		lsl	r2, r2, #2
 2145 0fd6 D219     		add	r2, r2, r7
 2146 0fd8 1360     		str	r3, [r2]
 2147 0fda 5460     		str	r4, [r2, #4]
 2148 0fdc 0DE0     		b	.L77
 2149              	.L325:
 226:../Sources/main.c **** 		} else
 227:../Sources/main.c **** 			ps = grausl;
 2150              		.loc 1 227 0
 2151 0fde C924     		mov	r4, #201
 2152 0fe0 A400     		lsl	r4, r4, #2
 2153 0fe2 E419     		add	r4, r4, r7
 2154 0fe4 2368     		ldr	r3, [r4]
 2155 0fe6 181C     		add	r0, r3, #0
 2156 0fe8 FFF7FEFF 		bl	__aeabi_f2d
 2157 0fec 031C     		mov	r3, r0
 2158 0fee 0C1C     		mov	r4, r1
 2159 0ff0 DA21     		mov	r1, #218
 2160 0ff2 8900     		lsl	r1, r1, #2
 2161 0ff4 C919     		add	r1, r1, r7
 2162 0ff6 0B60     		str	r3, [r1]
 2163 0ff8 4C60     		str	r4, [r1, #4]
 2164              	.L77:
 228:../Sources/main.c **** 
 229:../Sources/main.c **** 		for (i = 0; i < 100; i++) {
 2165              		.loc 1 229 0
 2166 0ffa 0023     		mov	r3, #0
 2167 0ffc EB22     		mov	r2, #235
 2168 0ffe 9200     		lsl	r2, r2, #2
 2169 1000 D219     		add	r2, r2, r7
 2170 1002 1360     		str	r3, [r2]
 2171 1004 3FE1     		b	.L78
 2172              	.L90:
 230:../Sources/main.c **** 			if (servang < 1500 || servang > 1750) {
 2173              		.loc 1 230 0
 2174 1006 D723     		mov	r3, #215
 2175 1008 9B00     		lsl	r3, r3, #2
 2176 100a DB19     		add	r3, r3, r7
 2177 100c 1A68     		ldr	r2, [r3]
 2178 100e 154B     		ldr	r3, .L347+44
 2179 1010 9A42     		cmp	r2, r3
 2180 1012 06DD     		ble	.L79
 2181              		.loc 1 230 0 is_stmt 0
 2182 1014 D724     		mov	r4, #215
 2183 1016 A400     		lsl	r4, r4, #2
 2184 1018 E419     		add	r4, r4, r7
 2185 101a 2268     		ldr	r2, [r4]
 2186 101c 134B     		ldr	r3, .L347+52
 2187 101e 9A42     		cmp	r2, r3
 2188 1020 26DD     		ble	.L80
 2189              	.L79:
 231:../Sources/main.c **** 				grausaida = 0;
 2190              		.loc 1 231 0 is_stmt 1
 2191 1022 0B4B     		ldr	r3, .L347+24
 2192 1024 0B4C     		ldr	r4, .L347+28
 2193 1026 D421     		mov	r1, #212
 2194 1028 8900     		lsl	r1, r1, #2
 2195 102a C919     		add	r1, r1, r7
 2196 102c 0B60     		str	r3, [r1]
 2197 102e 4C60     		str	r4, [r1, #4]
 2198 1030 17E1     		b	.L81
 2199              	.L348:
 2200 1032 C046C046 		.align	3
 2200      C046
 2201              	.L347:
 2202 1038 00000000 		.word	0
 2203 103c 00405F40 		.word	1079984128
 2204 1040 00000000 		.word	0
 2205 1044 00002640 		.word	1076232192
 2206 1048 00000000 		.word	0
 2207 104c 00002A40 		.word	1076494336
 2208 1050 00000000 		.word	0
 2209 1054 00000000 		.word	0
 2210 1058 5E050000 		.word	1374
 2211 105c DC050000 		.word	1500
 2212 1060 50FCFFFF 		.word	-944
 2213 1064 DB050000 		.word	1499
 2214 1068 59060000 		.word	1625
 2215 106c D6060000 		.word	1750
 2216              	.L80:
 232:../Sources/main.c **** 				//if(area[i]<=grausaida) area[i]=grausaida;
 233:../Sources/main.c **** 
 234:../Sources/main.c **** 			} else if (servang >= 1500 && servang <= 1625) {
 2217              		.loc 1 234 0
 2218 1070 D723     		mov	r3, #215
 2219 1072 9B00     		lsl	r3, r3, #2
 2220 1074 DB19     		add	r3, r3, r7
 2221 1076 1A68     		ldr	r2, [r3]
 2222 1078 B74B     		ldr	r3, .L349+32
 2223 107a 9A42     		cmp	r2, r3
 2224 107c 00DC     		bgt	.LCB1923
 2225 107e 73E0     		b	.L82	@long jump
 2226              	.LCB1923:
 2227              		.loc 1 234 0 is_stmt 0
 2228 1080 D724     		mov	r4, #215
 2229 1082 A400     		lsl	r4, r4, #2
 2230 1084 E419     		add	r4, r4, r7
 2231 1086 2268     		ldr	r2, [r4]
 2232 1088 B44B     		ldr	r3, .L349+36
 2233 108a 9A42     		cmp	r2, r3
 2234 108c 6CDC     		bgt	.L82
 235:../Sources/main.c **** 
 236:../Sources/main.c **** 				grausaida = ((float) (servang / 125.0)) - (12.0); // reta f
 2235              		.loc 1 236 0 is_stmt 1
 2236 108e D721     		mov	r1, #215
 2237 1090 8900     		lsl	r1, r1, #2
 2238 1092 C919     		add	r1, r1, r7
 2239 1094 0868     		ldr	r0, [r1]
 2240 1096 FFF7FEFF 		bl	__aeabi_i2d
 2241 109a 031C     		mov	r3, r0
 2242 109c 0C1C     		mov	r4, r1
 2243 109e 181C     		mov	r0, r3
 2244 10a0 211C     		mov	r1, r4
 2245 10a2 A64B     		ldr	r3, .L349+4
 2246 10a4 A44A     		ldr	r2, .L349
 2247 10a6 FFF7FEFF 		bl	__aeabi_ddiv
 2248 10aa 031C     		mov	r3, r0
 2249 10ac 0C1C     		mov	r4, r1
 2250 10ae 181C     		mov	r0, r3
 2251 10b0 211C     		mov	r1, r4
 2252 10b2 FFF7FEFF 		bl	__aeabi_d2f
 2253 10b6 031C     		add	r3, r0, #0
 2254 10b8 181C     		add	r0, r3, #0
 2255 10ba FFF7FEFF 		bl	__aeabi_f2d
 2256 10be 031C     		mov	r3, r0
 2257 10c0 0C1C     		mov	r4, r1
 2258 10c2 181C     		mov	r0, r3
 2259 10c4 211C     		mov	r1, r4
 2260 10c6 9E4A     		ldr	r2, .L349+8
 2261 10c8 9E4B     		ldr	r3, .L349+12
 2262 10ca FFF7FEFF 		bl	__aeabi_dsub
 2263 10ce 031C     		mov	r3, r0
 2264 10d0 0C1C     		mov	r4, r1
 2265 10d2 D422     		mov	r2, #212
 2266 10d4 9200     		lsl	r2, r2, #2
 2267 10d6 D219     		add	r2, r2, r7
 2268 10d8 1360     		str	r3, [r2]
 2269 10da 5460     		str	r4, [r2, #4]
 237:../Sources/main.c **** 				if (grausaida > ps)
 2270              		.loc 1 237 0
 2271 10dc D423     		mov	r3, #212
 2272 10de 9B00     		lsl	r3, r3, #2
 2273 10e0 DB19     		add	r3, r3, r7
 2274 10e2 1868     		ldr	r0, [r3]
 2275 10e4 5968     		ldr	r1, [r3, #4]
 2276 10e6 DA24     		mov	r4, #218
 2277 10e8 A400     		lsl	r4, r4, #2
 2278 10ea E419     		add	r4, r4, r7
 2279 10ec 2268     		ldr	r2, [r4]
 2280 10ee 6368     		ldr	r3, [r4, #4]
 2281 10f0 FFF7FEFF 		bl	__aeabi_dcmpgt
 2282 10f4 031C     		mov	r3, r0
 2283 10f6 002B     		cmp	r3, #0
 2284 10f8 09D0     		beq	.L83
 2285              	.L267:
 238:../Sources/main.c **** 					grausaida = ps;
 2286              		.loc 1 238 0
 2287 10fa DA21     		mov	r1, #218
 2288 10fc 8900     		lsl	r1, r1, #2
 2289 10fe C919     		add	r1, r1, r7
 2290 1100 0B68     		ldr	r3, [r1]
 2291 1102 4C68     		ldr	r4, [r1, #4]
 2292 1104 D422     		mov	r2, #212
 2293 1106 9200     		lsl	r2, r2, #2
 2294 1108 D219     		add	r2, r2, r7
 2295 110a 1360     		str	r3, [r2]
 2296 110c 5460     		str	r4, [r2, #4]
 2297              	.L83:
 239:../Sources/main.c **** 				if (area[i] <= grausaida)
 2298              		.loc 1 239 0
 2299 110e 944B     		ldr	r3, .L349+40
 2300 1110 EC24     		mov	r4, #236
 2301 1112 A400     		lsl	r4, r4, #2
 2302 1114 E419     		add	r4, r4, r7
 2303 1116 E218     		add	r2, r4, r3
 2304 1118 EB21     		mov	r1, #235
 2305 111a 8900     		lsl	r1, r1, #2
 2306 111c C919     		add	r1, r1, r7
 2307 111e 0B68     		ldr	r3, [r1]
 2308 1120 DB00     		lsl	r3, r3, #3
 2309 1122 D318     		add	r3, r2, r3
 2310 1124 5C68     		ldr	r4, [r3, #4]
 2311 1126 1B68     		ldr	r3, [r3]
 2312 1128 181C     		mov	r0, r3
 2313 112a 211C     		mov	r1, r4
 2314 112c D424     		mov	r4, #212
 2315 112e A400     		lsl	r4, r4, #2
 2316 1130 E419     		add	r4, r4, r7
 2317 1132 2268     		ldr	r2, [r4]
 2318 1134 6368     		ldr	r3, [r4, #4]
 2319 1136 FFF7FEFF 		bl	__aeabi_dcmple
 2320 113a 031C     		mov	r3, r0
 2321 113c 002B     		cmp	r3, #0
 2322 113e 00D1     		bne	.LCB2006
 2323 1140 8FE0     		b	.L81	@long jump
 2324              	.LCB2006:
 2325              	.L268:
 240:../Sources/main.c **** 					area[i] = grausaida;
 2326              		.loc 1 240 0
 2327 1142 874B     		ldr	r3, .L349+40
 2328 1144 EC21     		mov	r1, #236
 2329 1146 8900     		lsl	r1, r1, #2
 2330 1148 C919     		add	r1, r1, r7
 2331 114a CA18     		add	r2, r1, r3
 2332 114c EB24     		mov	r4, #235
 2333 114e A400     		lsl	r4, r4, #2
 2334 1150 E419     		add	r4, r4, r7
 2335 1152 2368     		ldr	r3, [r4]
 2336 1154 DB00     		lsl	r3, r3, #3
 2337 1156 D218     		add	r2, r2, r3
 2338 1158 D421     		mov	r1, #212
 2339 115a 8900     		lsl	r1, r1, #2
 2340 115c C919     		add	r1, r1, r7
 2341 115e 0B68     		ldr	r3, [r1]
 2342 1160 4C68     		ldr	r4, [r1, #4]
 2343 1162 1360     		str	r3, [r2]
 2344 1164 5460     		str	r4, [r2, #4]
 239:../Sources/main.c **** 				if (area[i] <= grausaida)
 2345              		.loc 1 239 0
 2346 1166 7CE0     		b	.L81
 2347              	.L82:
 241:../Sources/main.c **** 			}
 242:../Sources/main.c **** 
 243:../Sources/main.c **** 			else if (servang >= 1625 && servang <= 1750) {
 2348              		.loc 1 243 0
 2349 1168 D723     		mov	r3, #215
 2350 116a 9B00     		lsl	r3, r3, #2
 2351 116c DB19     		add	r3, r3, r7
 2352 116e 1A68     		ldr	r2, [r3]
 2353 1170 CB23     		mov	r3, #203
 2354 1172 DB00     		lsl	r3, r3, #3
 2355 1174 9A42     		cmp	r2, r3
 2356 1176 00DC     		bgt	.LCB2035
 2357 1178 73E0     		b	.L81	@long jump
 2358              	.LCB2035:
 2359              		.loc 1 243 0 is_stmt 0
 2360 117a D724     		mov	r4, #215
 2361 117c A400     		lsl	r4, r4, #2
 2362 117e E419     		add	r4, r4, r7
 2363 1180 2268     		ldr	r2, [r4]
 2364 1182 784B     		ldr	r3, .L349+44
 2365 1184 9A42     		cmp	r2, r3
 2366 1186 6CDC     		bgt	.L81
 244:../Sources/main.c **** 
 245:../Sources/main.c **** 				grausaida = ((float) (-servang / 125.0)) + (14.0); //reta g
 2367              		.loc 1 245 0 is_stmt 1
 2368 1188 D721     		mov	r1, #215
 2369 118a 8900     		lsl	r1, r1, #2
 2370 118c C919     		add	r1, r1, r7
 2371 118e 0B68     		ldr	r3, [r1]
 2372 1190 5B42     		neg	r3, r3
 2373 1192 181C     		mov	r0, r3
 2374 1194 FFF7FEFF 		bl	__aeabi_i2d
 2375 1198 031C     		mov	r3, r0
 2376 119a 0C1C     		mov	r4, r1
 2377 119c 181C     		mov	r0, r3
 2378 119e 211C     		mov	r1, r4
 2379 11a0 664B     		ldr	r3, .L349+4
 2380 11a2 654A     		ldr	r2, .L349
 2381 11a4 FFF7FEFF 		bl	__aeabi_ddiv
 2382 11a8 031C     		mov	r3, r0
 2383 11aa 0C1C     		mov	r4, r1
 2384 11ac 181C     		mov	r0, r3
 2385 11ae 211C     		mov	r1, r4
 2386 11b0 FFF7FEFF 		bl	__aeabi_d2f
 2387 11b4 031C     		add	r3, r0, #0
 2388 11b6 181C     		add	r0, r3, #0
 2389 11b8 FFF7FEFF 		bl	__aeabi_f2d
 2390 11bc 031C     		mov	r3, r0
 2391 11be 0C1C     		mov	r4, r1
 2392 11c0 181C     		mov	r0, r3
 2393 11c2 211C     		mov	r1, r4
 2394 11c4 604A     		ldr	r2, .L349+16
 2395 11c6 614B     		ldr	r3, .L349+20
 2396 11c8 FFF7FEFF 		bl	__aeabi_dadd
 2397 11cc 031C     		mov	r3, r0
 2398 11ce 0C1C     		mov	r4, r1
 2399 11d0 D422     		mov	r2, #212
 2400 11d2 9200     		lsl	r2, r2, #2
 2401 11d4 D219     		add	r2, r2, r7
 2402 11d6 1360     		str	r3, [r2]
 2403 11d8 5460     		str	r4, [r2, #4]
 246:../Sources/main.c **** 				if (grausaida > ps)
 2404              		.loc 1 246 0
 2405 11da D423     		mov	r3, #212
 2406 11dc 9B00     		lsl	r3, r3, #2
 2407 11de DB19     		add	r3, r3, r7
 2408 11e0 1868     		ldr	r0, [r3]
 2409 11e2 5968     		ldr	r1, [r3, #4]
 2410 11e4 DA24     		mov	r4, #218
 2411 11e6 A400     		lsl	r4, r4, #2
 2412 11e8 E419     		add	r4, r4, r7
 2413 11ea 2268     		ldr	r2, [r4]
 2414 11ec 6368     		ldr	r3, [r4, #4]
 2415 11ee FFF7FEFF 		bl	__aeabi_dcmpgt
 2416 11f2 031C     		mov	r3, r0
 2417 11f4 002B     		cmp	r3, #0
 2418 11f6 09D0     		beq	.L87
 2419              	.L269:
 247:../Sources/main.c **** 					grausaida = ps;
 2420              		.loc 1 247 0
 2421 11f8 DA21     		mov	r1, #218
 2422 11fa 8900     		lsl	r1, r1, #2
 2423 11fc C919     		add	r1, r1, r7
 2424 11fe 0B68     		ldr	r3, [r1]
 2425 1200 4C68     		ldr	r4, [r1, #4]
 2426 1202 D422     		mov	r2, #212
 2427 1204 9200     		lsl	r2, r2, #2
 2428 1206 D219     		add	r2, r2, r7
 2429 1208 1360     		str	r3, [r2]
 2430 120a 5460     		str	r4, [r2, #4]
 2431              	.L87:
 248:../Sources/main.c **** 				if (area[i] <= grausaida)
 2432              		.loc 1 248 0
 2433 120c 544B     		ldr	r3, .L349+40
 2434 120e EC24     		mov	r4, #236
 2435 1210 A400     		lsl	r4, r4, #2
 2436 1212 E419     		add	r4, r4, r7
 2437 1214 E218     		add	r2, r4, r3
 2438 1216 EB21     		mov	r1, #235
 2439 1218 8900     		lsl	r1, r1, #2
 2440 121a C919     		add	r1, r1, r7
 2441 121c 0B68     		ldr	r3, [r1]
 2442 121e DB00     		lsl	r3, r3, #3
 2443 1220 D318     		add	r3, r2, r3
 2444 1222 5C68     		ldr	r4, [r3, #4]
 2445 1224 1B68     		ldr	r3, [r3]
 2446 1226 181C     		mov	r0, r3
 2447 1228 211C     		mov	r1, r4
 2448 122a D424     		mov	r4, #212
 2449 122c A400     		lsl	r4, r4, #2
 2450 122e E419     		add	r4, r4, r7
 2451 1230 2268     		ldr	r2, [r4]
 2452 1232 6368     		ldr	r3, [r4, #4]
 2453 1234 FFF7FEFF 		bl	__aeabi_dcmple
 2454 1238 031C     		mov	r3, r0
 2455 123a 002B     		cmp	r3, #0
 2456 123c 11D0     		beq	.L81
 2457              	.L270:
 249:../Sources/main.c **** 					area[i] = grausaida;
 2458              		.loc 1 249 0
 2459 123e 484B     		ldr	r3, .L349+40
 2460 1240 EC21     		mov	r1, #236
 2461 1242 8900     		lsl	r1, r1, #2
 2462 1244 C919     		add	r1, r1, r7
 2463 1246 CA18     		add	r2, r1, r3
 2464 1248 EB24     		mov	r4, #235
 2465 124a A400     		lsl	r4, r4, #2
 2466 124c E419     		add	r4, r4, r7
 2467 124e 2368     		ldr	r3, [r4]
 2468 1250 DB00     		lsl	r3, r3, #3
 2469 1252 D218     		add	r2, r2, r3
 2470 1254 D421     		mov	r1, #212
 2471 1256 8900     		lsl	r1, r1, #2
 2472 1258 C919     		add	r1, r1, r7
 2473 125a 0B68     		ldr	r3, [r1]
 2474 125c 4C68     		ldr	r4, [r1, #4]
 2475 125e 1360     		str	r3, [r2]
 2476 1260 5460     		str	r4, [r2, #4]
 2477              	.L81:
 250:../Sources/main.c **** 			}
 251:../Sources/main.c **** 			servang = servang + 10;
 2478              		.loc 1 251 0
 2479 1262 D722     		mov	r2, #215
 2480 1264 9200     		lsl	r2, r2, #2
 2481 1266 D219     		add	r2, r2, r7
 2482 1268 1368     		ldr	r3, [r2]
 2483 126a 0A33     		add	r3, r3, #10
 2484 126c D724     		mov	r4, #215
 2485 126e A400     		lsl	r4, r4, #2
 2486 1270 E419     		add	r4, r4, r7
 2487 1272 2360     		str	r3, [r4]
 229:../Sources/main.c **** 		for (i = 0; i < 100; i++) {
 2488              		.loc 1 229 0
 2489 1274 EB21     		mov	r1, #235
 2490 1276 8900     		lsl	r1, r1, #2
 2491 1278 C919     		add	r1, r1, r7
 2492 127a 0B68     		ldr	r3, [r1]
 2493 127c 0133     		add	r3, r3, #1
 2494 127e EB22     		mov	r2, #235
 2495 1280 9200     		lsl	r2, r2, #2
 2496 1282 D219     		add	r2, r2, r7
 2497 1284 1360     		str	r3, [r2]
 2498              	.L78:
 229:../Sources/main.c **** 		for (i = 0; i < 100; i++) {
 2499              		.loc 1 229 0 is_stmt 0
 2500 1286 EB24     		mov	r4, #235
 2501 1288 A400     		lsl	r4, r4, #2
 2502 128a E419     		add	r4, r4, r7
 2503 128c 2368     		ldr	r3, [r4]
 2504 128e 632B     		cmp	r3, #99
 2505 1290 00DC     		bgt	.LCB2165
 2506 1292 B8E6     		b	.L90	@long jump
 2507              	.LCB2165:
 252:../Sources/main.c **** 		}
 253:../Sources/main.c **** 		servang = 1000;
 2508              		.loc 1 253 0 is_stmt 1
 2509 1294 FA23     		mov	r3, #250
 2510 1296 9B00     		lsl	r3, r3, #2
 2511 1298 D721     		mov	r1, #215
 2512 129a 8900     		lsl	r1, r1, #2
 2513 129c C919     		add	r1, r1, r7
 2514 129e 0B60     		str	r3, [r1]
 254:../Sources/main.c **** //------------- SL e VR -------------
 255:../Sources/main.c **** 		if (grauvr < grausl) {
 2515              		.loc 1 255 0
 2516 12a0 C922     		mov	r2, #201
 2517 12a2 9200     		lsl	r2, r2, #2
 2518 12a4 D219     		add	r2, r2, r7
 2519 12a6 1368     		ldr	r3, [r2]
 2520 12a8 181C     		add	r0, r3, #0
 2521 12aa FFF7FEFF 		bl	__aeabi_f2d
 2522 12ae 031C     		mov	r3, r0
 2523 12b0 0C1C     		mov	r4, r1
 2524 12b2 181C     		mov	r0, r3
 2525 12b4 211C     		mov	r1, r4
 2526 12b6 E424     		mov	r4, #228
 2527 12b8 A400     		lsl	r4, r4, #2
 2528 12ba E419     		add	r4, r4, r7
 2529 12bc 2268     		ldr	r2, [r4]
 2530 12be 6368     		ldr	r3, [r4, #4]
 2531 12c0 FFF7FEFF 		bl	__aeabi_dcmpgt
 2532 12c4 031C     		mov	r3, r0
 2533 12c6 002B     		cmp	r3, #0
 2534 12c8 0AD0     		beq	.L326
 2535              	.L271:
 256:../Sources/main.c **** 			ps = grauvr;
 2536              		.loc 1 256 0
 2537 12ca E421     		mov	r1, #228
 2538 12cc 8900     		lsl	r1, r1, #2
 2539 12ce C919     		add	r1, r1, r7
 2540 12d0 0B68     		ldr	r3, [r1]
 2541 12d2 4C68     		ldr	r4, [r1, #4]
 2542 12d4 DA22     		mov	r2, #218
 2543 12d6 9200     		lsl	r2, r2, #2
 2544 12d8 D219     		add	r2, r2, r7
 2545 12da 1360     		str	r3, [r2]
 2546 12dc 5460     		str	r4, [r2, #4]
 2547 12de 0DE0     		b	.L93
 2548              	.L326:
 257:../Sources/main.c **** 		} else
 258:../Sources/main.c **** 			ps = grausl;
 2549              		.loc 1 258 0
 2550 12e0 C924     		mov	r4, #201
 2551 12e2 A400     		lsl	r4, r4, #2
 2552 12e4 E419     		add	r4, r4, r7
 2553 12e6 2368     		ldr	r3, [r4]
 2554 12e8 181C     		add	r0, r3, #0
 2555 12ea FFF7FEFF 		bl	__aeabi_f2d
 2556 12ee 031C     		mov	r3, r0
 2557 12f0 0C1C     		mov	r4, r1
 2558 12f2 DA21     		mov	r1, #218
 2559 12f4 8900     		lsl	r1, r1, #2
 2560 12f6 C919     		add	r1, r1, r7
 2561 12f8 0B60     		str	r3, [r1]
 2562 12fa 4C60     		str	r4, [r1, #4]
 2563              	.L93:
 259:../Sources/main.c **** 
 260:../Sources/main.c **** 		for (i = 0; i < 100; i++) {
 2564              		.loc 1 260 0
 2565 12fc 0023     		mov	r3, #0
 2566 12fe EB22     		mov	r2, #235
 2567 1300 9200     		lsl	r2, r2, #2
 2568 1302 D219     		add	r2, r2, r7
 2569 1304 1360     		str	r3, [r2]
 2570 1306 3AE1     		b	.L94
 2571              	.L106:
 261:../Sources/main.c **** 			if (servang < 1500 || servang > 1750) {
 2572              		.loc 1 261 0
 2573 1308 D723     		mov	r3, #215
 2574 130a 9B00     		lsl	r3, r3, #2
 2575 130c DB19     		add	r3, r3, r7
 2576 130e 1A68     		ldr	r2, [r3]
 2577 1310 114B     		ldr	r3, .L349+32
 2578 1312 9A42     		cmp	r2, r3
 2579 1314 06DD     		ble	.L95
 2580              		.loc 1 261 0 is_stmt 0
 2581 1316 D724     		mov	r4, #215
 2582 1318 A400     		lsl	r4, r4, #2
 2583 131a E419     		add	r4, r4, r7
 2584 131c 2268     		ldr	r2, [r4]
 2585 131e 114B     		ldr	r3, .L349+44
 2586 1320 9A42     		cmp	r2, r3
 2587 1322 21DD     		ble	.L96
 2588              	.L95:
 262:../Sources/main.c **** 				grausaida = 0;
 2589              		.loc 1 262 0 is_stmt 1
 2590 1324 0A4B     		ldr	r3, .L349+24
 2591 1326 0B4C     		ldr	r4, .L349+28
 2592 1328 D421     		mov	r1, #212
 2593 132a 8900     		lsl	r1, r1, #2
 2594 132c C919     		add	r1, r1, r7
 2595 132e 0B60     		str	r3, [r1]
 2596 1330 4C60     		str	r4, [r1, #4]
 2597 1332 12E1     		b	.L97
 2598              	.L350:
 2599 1334 C046C046 		.align	3
 2600              	.L349:
 2601 1338 00000000 		.word	0
 2602 133c 00405F40 		.word	1079984128
 2603 1340 00000000 		.word	0
 2604 1344 00002840 		.word	1076363264
 2605 1348 00000000 		.word	0
 2606 134c 00002C40 		.word	1076625408
 2607 1350 00000000 		.word	0
 2608 1354 00000000 		.word	0
 2609 1358 DB050000 		.word	1499
 2610 135c 59060000 		.word	1625
 2611 1360 50FCFFFF 		.word	-944
 2612 1364 D6060000 		.word	1750
 2613              	.L96:
 263:../Sources/main.c **** 				//if(area[i]<=grausaida) area[i]=grausaida;
 264:../Sources/main.c **** 
 265:../Sources/main.c **** 			} else if (servang >= 1500 && servang <= 1625) {
 2614              		.loc 1 265 0
 2615 1368 D723     		mov	r3, #215
 2616 136a 9B00     		lsl	r3, r3, #2
 2617 136c DB19     		add	r3, r3, r7
 2618 136e 1A68     		ldr	r2, [r3]
 2619 1370 D34B     		ldr	r3, .L351+32
 2620 1372 9A42     		cmp	r2, r3
 2621 1374 00DC     		bgt	.LCB2269
 2622 1376 73E0     		b	.L98	@long jump
 2623              	.LCB2269:
 2624              		.loc 1 265 0 is_stmt 0
 2625 1378 D724     		mov	r4, #215
 2626 137a A400     		lsl	r4, r4, #2
 2627 137c E419     		add	r4, r4, r7
 2628 137e 2268     		ldr	r2, [r4]
 2629 1380 D04B     		ldr	r3, .L351+36
 2630 1382 9A42     		cmp	r2, r3
 2631 1384 6CDC     		bgt	.L98
 266:../Sources/main.c **** 
 267:../Sources/main.c **** 				grausaida = ((float) (servang / 125.0)) - (12.0); // reta f
 2632              		.loc 1 267 0 is_stmt 1
 2633 1386 D721     		mov	r1, #215
 2634 1388 8900     		lsl	r1, r1, #2
 2635 138a C919     		add	r1, r1, r7
 2636 138c 0868     		ldr	r0, [r1]
 2637 138e FFF7FEFF 		bl	__aeabi_i2d
 2638 1392 031C     		mov	r3, r0
 2639 1394 0C1C     		mov	r4, r1
 2640 1396 181C     		mov	r0, r3
 2641 1398 211C     		mov	r1, r4
 2642 139a C24B     		ldr	r3, .L351+4
 2643 139c C04A     		ldr	r2, .L351
 2644 139e FFF7FEFF 		bl	__aeabi_ddiv
 2645 13a2 031C     		mov	r3, r0
 2646 13a4 0C1C     		mov	r4, r1
 2647 13a6 181C     		mov	r0, r3
 2648 13a8 211C     		mov	r1, r4
 2649 13aa FFF7FEFF 		bl	__aeabi_d2f
 2650 13ae 031C     		add	r3, r0, #0
 2651 13b0 181C     		add	r0, r3, #0
 2652 13b2 FFF7FEFF 		bl	__aeabi_f2d
 2653 13b6 031C     		mov	r3, r0
 2654 13b8 0C1C     		mov	r4, r1
 2655 13ba 181C     		mov	r0, r3
 2656 13bc 211C     		mov	r1, r4
 2657 13be BA4A     		ldr	r2, .L351+8
 2658 13c0 BA4B     		ldr	r3, .L351+12
 2659 13c2 FFF7FEFF 		bl	__aeabi_dsub
 2660 13c6 031C     		mov	r3, r0
 2661 13c8 0C1C     		mov	r4, r1
 2662 13ca D422     		mov	r2, #212
 2663 13cc 9200     		lsl	r2, r2, #2
 2664 13ce D219     		add	r2, r2, r7
 2665 13d0 1360     		str	r3, [r2]
 2666 13d2 5460     		str	r4, [r2, #4]
 268:../Sources/main.c **** 				if (grausaida > ps)
 2667              		.loc 1 268 0
 2668 13d4 D423     		mov	r3, #212
 2669 13d6 9B00     		lsl	r3, r3, #2
 2670 13d8 DB19     		add	r3, r3, r7
 2671 13da 1868     		ldr	r0, [r3]
 2672 13dc 5968     		ldr	r1, [r3, #4]
 2673 13de DA24     		mov	r4, #218
 2674 13e0 A400     		lsl	r4, r4, #2
 2675 13e2 E419     		add	r4, r4, r7
 2676 13e4 2268     		ldr	r2, [r4]
 2677 13e6 6368     		ldr	r3, [r4, #4]
 2678 13e8 FFF7FEFF 		bl	__aeabi_dcmpgt
 2679 13ec 031C     		mov	r3, r0
 2680 13ee 002B     		cmp	r3, #0
 2681 13f0 09D0     		beq	.L99
 2682              	.L272:
 269:../Sources/main.c **** 					grausaida = ps;
 2683              		.loc 1 269 0
 2684 13f2 DA21     		mov	r1, #218
 2685 13f4 8900     		lsl	r1, r1, #2
 2686 13f6 C919     		add	r1, r1, r7
 2687 13f8 0B68     		ldr	r3, [r1]
 2688 13fa 4C68     		ldr	r4, [r1, #4]
 2689 13fc D422     		mov	r2, #212
 2690 13fe 9200     		lsl	r2, r2, #2
 2691 1400 D219     		add	r2, r2, r7
 2692 1402 1360     		str	r3, [r2]
 2693 1404 5460     		str	r4, [r2, #4]
 2694              	.L99:
 270:../Sources/main.c **** 				if (area[i] <= grausaida)
 2695              		.loc 1 270 0
 2696 1406 B04B     		ldr	r3, .L351+40
 2697 1408 EC24     		mov	r4, #236
 2698 140a A400     		lsl	r4, r4, #2
 2699 140c E419     		add	r4, r4, r7
 2700 140e E218     		add	r2, r4, r3
 2701 1410 EB21     		mov	r1, #235
 2702 1412 8900     		lsl	r1, r1, #2
 2703 1414 C919     		add	r1, r1, r7
 2704 1416 0B68     		ldr	r3, [r1]
 2705 1418 DB00     		lsl	r3, r3, #3
 2706 141a D318     		add	r3, r2, r3
 2707 141c 5C68     		ldr	r4, [r3, #4]
 2708 141e 1B68     		ldr	r3, [r3]
 2709 1420 181C     		mov	r0, r3
 2710 1422 211C     		mov	r1, r4
 2711 1424 D424     		mov	r4, #212
 2712 1426 A400     		lsl	r4, r4, #2
 2713 1428 E419     		add	r4, r4, r7
 2714 142a 2268     		ldr	r2, [r4]
 2715 142c 6368     		ldr	r3, [r4, #4]
 2716 142e FFF7FEFF 		bl	__aeabi_dcmple
 2717 1432 031C     		mov	r3, r0
 2718 1434 002B     		cmp	r3, #0
 2719 1436 00D1     		bne	.LCB2352
 2720 1438 8FE0     		b	.L97	@long jump
 2721              	.LCB2352:
 2722              	.L273:
 271:../Sources/main.c **** 					area[i] = grausaida;
 2723              		.loc 1 271 0
 2724 143a A34B     		ldr	r3, .L351+40
 2725 143c EC21     		mov	r1, #236
 2726 143e 8900     		lsl	r1, r1, #2
 2727 1440 C919     		add	r1, r1, r7
 2728 1442 CA18     		add	r2, r1, r3
 2729 1444 EB24     		mov	r4, #235
 2730 1446 A400     		lsl	r4, r4, #2
 2731 1448 E419     		add	r4, r4, r7
 2732 144a 2368     		ldr	r3, [r4]
 2733 144c DB00     		lsl	r3, r3, #3
 2734 144e D218     		add	r2, r2, r3
 2735 1450 D421     		mov	r1, #212
 2736 1452 8900     		lsl	r1, r1, #2
 2737 1454 C919     		add	r1, r1, r7
 2738 1456 0B68     		ldr	r3, [r1]
 2739 1458 4C68     		ldr	r4, [r1, #4]
 2740 145a 1360     		str	r3, [r2]
 2741 145c 5460     		str	r4, [r2, #4]
 270:../Sources/main.c **** 				if (area[i] <= grausaida)
 2742              		.loc 1 270 0
 2743 145e 7CE0     		b	.L97
 2744              	.L98:
 272:../Sources/main.c **** 			}
 273:../Sources/main.c **** 
 274:../Sources/main.c **** 			else if (servang >= 1625 && servang <= 1750) {
 2745              		.loc 1 274 0
 2746 1460 D723     		mov	r3, #215
 2747 1462 9B00     		lsl	r3, r3, #2
 2748 1464 DB19     		add	r3, r3, r7
 2749 1466 1A68     		ldr	r2, [r3]
 2750 1468 CB23     		mov	r3, #203
 2751 146a DB00     		lsl	r3, r3, #3
 2752 146c 9A42     		cmp	r2, r3
 2753 146e 00DC     		bgt	.LCB2381
 2754 1470 73E0     		b	.L97	@long jump
 2755              	.LCB2381:
 2756              		.loc 1 274 0 is_stmt 0
 2757 1472 D724     		mov	r4, #215
 2758 1474 A400     		lsl	r4, r4, #2
 2759 1476 E419     		add	r4, r4, r7
 2760 1478 2268     		ldr	r2, [r4]
 2761 147a 944B     		ldr	r3, .L351+44
 2762 147c 9A42     		cmp	r2, r3
 2763 147e 6CDC     		bgt	.L97
 275:../Sources/main.c **** 
 276:../Sources/main.c **** 				grausaida = ((float) (-servang / 125.0)) + (14.0); //reta g
 2764              		.loc 1 276 0 is_stmt 1
 2765 1480 D721     		mov	r1, #215
 2766 1482 8900     		lsl	r1, r1, #2
 2767 1484 C919     		add	r1, r1, r7
 2768 1486 0B68     		ldr	r3, [r1]
 2769 1488 5B42     		neg	r3, r3
 2770 148a 181C     		mov	r0, r3
 2771 148c FFF7FEFF 		bl	__aeabi_i2d
 2772 1490 031C     		mov	r3, r0
 2773 1492 0C1C     		mov	r4, r1
 2774 1494 181C     		mov	r0, r3
 2775 1496 211C     		mov	r1, r4
 2776 1498 824B     		ldr	r3, .L351+4
 2777 149a 814A     		ldr	r2, .L351
 2778 149c FFF7FEFF 		bl	__aeabi_ddiv
 2779 14a0 031C     		mov	r3, r0
 2780 14a2 0C1C     		mov	r4, r1
 2781 14a4 181C     		mov	r0, r3
 2782 14a6 211C     		mov	r1, r4
 2783 14a8 FFF7FEFF 		bl	__aeabi_d2f
 2784 14ac 031C     		add	r3, r0, #0
 2785 14ae 181C     		add	r0, r3, #0
 2786 14b0 FFF7FEFF 		bl	__aeabi_f2d
 2787 14b4 031C     		mov	r3, r0
 2788 14b6 0C1C     		mov	r4, r1
 2789 14b8 181C     		mov	r0, r3
 2790 14ba 211C     		mov	r1, r4
 2791 14bc 7C4A     		ldr	r2, .L351+16
 2792 14be 7D4B     		ldr	r3, .L351+20
 2793 14c0 FFF7FEFF 		bl	__aeabi_dadd
 2794 14c4 031C     		mov	r3, r0
 2795 14c6 0C1C     		mov	r4, r1
 2796 14c8 D422     		mov	r2, #212
 2797 14ca 9200     		lsl	r2, r2, #2
 2798 14cc D219     		add	r2, r2, r7
 2799 14ce 1360     		str	r3, [r2]
 2800 14d0 5460     		str	r4, [r2, #4]
 277:../Sources/main.c **** 				if (grausaida > ps)
 2801              		.loc 1 277 0
 2802 14d2 D423     		mov	r3, #212
 2803 14d4 9B00     		lsl	r3, r3, #2
 2804 14d6 DB19     		add	r3, r3, r7
 2805 14d8 1868     		ldr	r0, [r3]
 2806 14da 5968     		ldr	r1, [r3, #4]
 2807 14dc DA24     		mov	r4, #218
 2808 14de A400     		lsl	r4, r4, #2
 2809 14e0 E419     		add	r4, r4, r7
 2810 14e2 2268     		ldr	r2, [r4]
 2811 14e4 6368     		ldr	r3, [r4, #4]
 2812 14e6 FFF7FEFF 		bl	__aeabi_dcmpgt
 2813 14ea 031C     		mov	r3, r0
 2814 14ec 002B     		cmp	r3, #0
 2815 14ee 09D0     		beq	.L103
 2816              	.L274:
 278:../Sources/main.c **** 					grausaida = ps;
 2817              		.loc 1 278 0
 2818 14f0 DA21     		mov	r1, #218
 2819 14f2 8900     		lsl	r1, r1, #2
 2820 14f4 C919     		add	r1, r1, r7
 2821 14f6 0B68     		ldr	r3, [r1]
 2822 14f8 4C68     		ldr	r4, [r1, #4]
 2823 14fa D422     		mov	r2, #212
 2824 14fc 9200     		lsl	r2, r2, #2
 2825 14fe D219     		add	r2, r2, r7
 2826 1500 1360     		str	r3, [r2]
 2827 1502 5460     		str	r4, [r2, #4]
 2828              	.L103:
 279:../Sources/main.c **** 				if (area[i] <= grausaida)
 2829              		.loc 1 279 0
 2830 1504 704B     		ldr	r3, .L351+40
 2831 1506 EC24     		mov	r4, #236
 2832 1508 A400     		lsl	r4, r4, #2
 2833 150a E419     		add	r4, r4, r7
 2834 150c E218     		add	r2, r4, r3
 2835 150e EB21     		mov	r1, #235
 2836 1510 8900     		lsl	r1, r1, #2
 2837 1512 C919     		add	r1, r1, r7
 2838 1514 0B68     		ldr	r3, [r1]
 2839 1516 DB00     		lsl	r3, r3, #3
 2840 1518 D318     		add	r3, r2, r3
 2841 151a 5C68     		ldr	r4, [r3, #4]
 2842 151c 1B68     		ldr	r3, [r3]
 2843 151e 181C     		mov	r0, r3
 2844 1520 211C     		mov	r1, r4
 2845 1522 D424     		mov	r4, #212
 2846 1524 A400     		lsl	r4, r4, #2
 2847 1526 E419     		add	r4, r4, r7
 2848 1528 2268     		ldr	r2, [r4]
 2849 152a 6368     		ldr	r3, [r4, #4]
 2850 152c FFF7FEFF 		bl	__aeabi_dcmple
 2851 1530 031C     		mov	r3, r0
 2852 1532 002B     		cmp	r3, #0
 2853 1534 11D0     		beq	.L97
 2854              	.L275:
 280:../Sources/main.c **** 					area[i] = grausaida;
 2855              		.loc 1 280 0
 2856 1536 644B     		ldr	r3, .L351+40
 2857 1538 EC21     		mov	r1, #236
 2858 153a 8900     		lsl	r1, r1, #2
 2859 153c C919     		add	r1, r1, r7
 2860 153e CA18     		add	r2, r1, r3
 2861 1540 EB24     		mov	r4, #235
 2862 1542 A400     		lsl	r4, r4, #2
 2863 1544 E419     		add	r4, r4, r7
 2864 1546 2368     		ldr	r3, [r4]
 2865 1548 DB00     		lsl	r3, r3, #3
 2866 154a D218     		add	r2, r2, r3
 2867 154c D421     		mov	r1, #212
 2868 154e 8900     		lsl	r1, r1, #2
 2869 1550 C919     		add	r1, r1, r7
 2870 1552 0B68     		ldr	r3, [r1]
 2871 1554 4C68     		ldr	r4, [r1, #4]
 2872 1556 1360     		str	r3, [r2]
 2873 1558 5460     		str	r4, [r2, #4]
 2874              	.L97:
 281:../Sources/main.c **** 			}
 282:../Sources/main.c **** 			servang = servang + 10;
 2875              		.loc 1 282 0
 2876 155a D722     		mov	r2, #215
 2877 155c 9200     		lsl	r2, r2, #2
 2878 155e D219     		add	r2, r2, r7
 2879 1560 1368     		ldr	r3, [r2]
 2880 1562 0A33     		add	r3, r3, #10
 2881 1564 D724     		mov	r4, #215
 2882 1566 A400     		lsl	r4, r4, #2
 2883 1568 E419     		add	r4, r4, r7
 2884 156a 2360     		str	r3, [r4]
 260:../Sources/main.c **** 		for (i = 0; i < 100; i++) {
 2885              		.loc 1 260 0
 2886 156c EB21     		mov	r1, #235
 2887 156e 8900     		lsl	r1, r1, #2
 2888 1570 C919     		add	r1, r1, r7
 2889 1572 0B68     		ldr	r3, [r1]
 2890 1574 0133     		add	r3, r3, #1
 2891 1576 EB22     		mov	r2, #235
 2892 1578 9200     		lsl	r2, r2, #2
 2893 157a D219     		add	r2, r2, r7
 2894 157c 1360     		str	r3, [r2]
 2895              	.L94:
 260:../Sources/main.c **** 		for (i = 0; i < 100; i++) {
 2896              		.loc 1 260 0 is_stmt 0
 2897 157e EB24     		mov	r4, #235
 2898 1580 A400     		lsl	r4, r4, #2
 2899 1582 E419     		add	r4, r4, r7
 2900 1584 2368     		ldr	r3, [r4]
 2901 1586 632B     		cmp	r3, #99
 2902 1588 00DC     		bgt	.LCB2511
 2903 158a BDE6     		b	.L106	@long jump
 2904              	.LCB2511:
 283:../Sources/main.c **** 		}
 284:../Sources/main.c **** 		servang = 1000;
 2905              		.loc 1 284 0 is_stmt 1
 2906 158c FA23     		mov	r3, #250
 2907 158e 9B00     		lsl	r3, r3, #2
 2908 1590 D721     		mov	r1, #215
 2909 1592 8900     		lsl	r1, r1, #2
 2910 1594 C919     		add	r1, r1, r7
 2911 1596 0B60     		str	r3, [r1]
 285:../Sources/main.c **** //------------- F e VL ----------
 286:../Sources/main.c **** 		if (grauvl < grauf) {
 2912              		.loc 1 286 0
 2913 1598 C822     		mov	r2, #200
 2914 159a 9200     		lsl	r2, r2, #2
 2915 159c D219     		add	r2, r2, r7
 2916 159e 1368     		ldr	r3, [r2]
 2917 15a0 181C     		add	r0, r3, #0
 2918 15a2 FFF7FEFF 		bl	__aeabi_f2d
 2919 15a6 031C     		mov	r3, r0
 2920 15a8 0C1C     		mov	r4, r1
 2921 15aa 181C     		mov	r0, r3
 2922 15ac 211C     		mov	r1, r4
 2923 15ae E824     		mov	r4, #232
 2924 15b0 A400     		lsl	r4, r4, #2
 2925 15b2 E419     		add	r4, r4, r7
 2926 15b4 2268     		ldr	r2, [r4]
 2927 15b6 6368     		ldr	r3, [r4, #4]
 2928 15b8 FFF7FEFF 		bl	__aeabi_dcmpgt
 2929 15bc 031C     		mov	r3, r0
 2930 15be 002B     		cmp	r3, #0
 2931 15c0 0AD0     		beq	.L327
 2932              	.L276:
 287:../Sources/main.c **** 			nb = grauvl;
 2933              		.loc 1 287 0
 2934 15c2 E821     		mov	r1, #232
 2935 15c4 8900     		lsl	r1, r1, #2
 2936 15c6 C919     		add	r1, r1, r7
 2937 15c8 0B68     		ldr	r3, [r1]
 2938 15ca 4C68     		ldr	r4, [r1, #4]
 2939 15cc DE22     		mov	r2, #222
 2940 15ce 9200     		lsl	r2, r2, #2
 2941 15d0 D219     		add	r2, r2, r7
 2942 15d2 1360     		str	r3, [r2]
 2943 15d4 5460     		str	r4, [r2, #4]
 2944 15d6 0DE0     		b	.L109
 2945              	.L327:
 288:../Sources/main.c **** 		} else
 289:../Sources/main.c **** 			nb = grauf;
 2946              		.loc 1 289 0
 2947 15d8 C824     		mov	r4, #200
 2948 15da A400     		lsl	r4, r4, #2
 2949 15dc E419     		add	r4, r4, r7
 2950 15de 2368     		ldr	r3, [r4]
 2951 15e0 181C     		add	r0, r3, #0
 2952 15e2 FFF7FEFF 		bl	__aeabi_f2d
 2953 15e6 031C     		mov	r3, r0
 2954 15e8 0C1C     		mov	r4, r1
 2955 15ea DE21     		mov	r1, #222
 2956 15ec 8900     		lsl	r1, r1, #2
 2957 15ee C919     		add	r1, r1, r7
 2958 15f0 0B60     		str	r3, [r1]
 2959 15f2 4C60     		str	r4, [r1, #4]
 2960              	.L109:
 290:../Sources/main.c **** 
 291:../Sources/main.c **** 		for (i = 0; i < 100; i++) {
 2961              		.loc 1 291 0
 2962 15f4 0023     		mov	r3, #0
 2963 15f6 EB22     		mov	r2, #235
 2964 15f8 9200     		lsl	r2, r2, #2
 2965 15fa D219     		add	r2, r2, r7
 2966 15fc 1360     		str	r3, [r2]
 2967 15fe F9E0     		b	.L110
 2968              	.L118:
 292:../Sources/main.c **** 			if (servang < 1250) {
 2969              		.loc 1 292 0
 2970 1600 D723     		mov	r3, #215
 2971 1602 9B00     		lsl	r3, r3, #2
 2972 1604 DB19     		add	r3, r3, r7
 2973 1606 1A68     		ldr	r2, [r3]
 2974 1608 314B     		ldr	r3, .L351+48
 2975 160a 9A42     		cmp	r2, r3
 2976 160c 36DC     		bgt	.L111
 293:../Sources/main.c **** 				grausaida = nb;
 2977              		.loc 1 293 0
 2978 160e DE21     		mov	r1, #222
 2979 1610 8900     		lsl	r1, r1, #2
 2980 1612 C919     		add	r1, r1, r7
 2981 1614 0B68     		ldr	r3, [r1]
 2982 1616 4C68     		ldr	r4, [r1, #4]
 2983 1618 D422     		mov	r2, #212
 2984 161a 9200     		lsl	r2, r2, #2
 2985 161c D219     		add	r2, r2, r7
 2986 161e 1360     		str	r3, [r2]
 2987 1620 5460     		str	r4, [r2, #4]
 294:../Sources/main.c **** 				if (area[i] <= grausaida)
 2988              		.loc 1 294 0
 2989 1622 294B     		ldr	r3, .L351+40
 2990 1624 EC24     		mov	r4, #236
 2991 1626 A400     		lsl	r4, r4, #2
 2992 1628 E419     		add	r4, r4, r7
 2993 162a E218     		add	r2, r4, r3
 2994 162c EB21     		mov	r1, #235
 2995 162e 8900     		lsl	r1, r1, #2
 2996 1630 C919     		add	r1, r1, r7
 2997 1632 0B68     		ldr	r3, [r1]
 2998 1634 DB00     		lsl	r3, r3, #3
 2999 1636 D318     		add	r3, r2, r3
 3000 1638 5C68     		ldr	r4, [r3, #4]
 3001 163a 1B68     		ldr	r3, [r3]
 3002 163c 181C     		mov	r0, r3
 3003 163e 211C     		mov	r1, r4
 3004 1640 D424     		mov	r4, #212
 3005 1642 A400     		lsl	r4, r4, #2
 3006 1644 E419     		add	r4, r4, r7
 3007 1646 2268     		ldr	r2, [r4]
 3008 1648 6368     		ldr	r3, [r4, #4]
 3009 164a FFF7FEFF 		bl	__aeabi_dcmple
 3010 164e 031C     		mov	r3, r0
 3011 1650 002B     		cmp	r3, #0
 3012 1652 00D1     		bne	.LCB2608
 3013 1654 BCE0     		b	.L112	@long jump
 3014              	.LCB2608:
 3015              	.L277:
 295:../Sources/main.c **** 					area[i] = grausaida;
 3016              		.loc 1 295 0
 3017 1656 1C4B     		ldr	r3, .L351+40
 3018 1658 EC21     		mov	r1, #236
 3019 165a 8900     		lsl	r1, r1, #2
 3020 165c C919     		add	r1, r1, r7
 3021 165e CA18     		add	r2, r1, r3
 3022 1660 EB24     		mov	r4, #235
 3023 1662 A400     		lsl	r4, r4, #2
 3024 1664 E419     		add	r4, r4, r7
 3025 1666 2368     		ldr	r3, [r4]
 3026 1668 DB00     		lsl	r3, r3, #3
 3027 166a D218     		add	r2, r2, r3
 3028 166c D421     		mov	r1, #212
 3029 166e 8900     		lsl	r1, r1, #2
 3030 1670 C919     		add	r1, r1, r7
 3031 1672 0B68     		ldr	r3, [r1]
 3032 1674 4C68     		ldr	r4, [r1, #4]
 3033 1676 1360     		str	r3, [r2]
 3034 1678 5460     		str	r4, [r2, #4]
 3035 167a A9E0     		b	.L112
 3036              	.L111:
 296:../Sources/main.c **** 
 297:../Sources/main.c **** 			} else if (servang > 1375) {
 3037              		.loc 1 297 0
 3038 167c D723     		mov	r3, #215
 3039 167e 9B00     		lsl	r3, r3, #2
 3040 1680 DB19     		add	r3, r3, r7
 3041 1682 1A68     		ldr	r2, [r3]
 3042 1684 134B     		ldr	r3, .L351+52
 3043 1686 9A42     		cmp	r2, r3
 3044 1688 26DD     		ble	.L114
 298:../Sources/main.c **** 				grausaida = 0;
 3045              		.loc 1 298 0
 3046 168a 0B4B     		ldr	r3, .L351+24
 3047 168c 0B4C     		ldr	r4, .L351+28
 3048 168e D421     		mov	r1, #212
 3049 1690 8900     		lsl	r1, r1, #2
 3050 1692 C919     		add	r1, r1, r7
 3051 1694 0B60     		str	r3, [r1]
 3052 1696 4C60     		str	r4, [r1, #4]
 3053 1698 9AE0     		b	.L112
 3054              	.L352:
 3055 169a C046C046 		.align	3
 3055      C046
 3056              	.L351:
 3057 16a0 00000000 		.word	0
 3058 16a4 00405F40 		.word	1079984128
 3059 16a8 00000000 		.word	0
 3060 16ac 00002840 		.word	1076363264
 3061 16b0 00000000 		.word	0
 3062 16b4 00002C40 		.word	1076625408
 3063 16b8 00000000 		.word	0
 3064 16bc 00000000 		.word	0
 3065 16c0 DB050000 		.word	1499
 3066 16c4 59060000 		.word	1625
 3067 16c8 50FCFFFF 		.word	-944
 3068 16cc D6060000 		.word	1750
 3069 16d0 E1040000 		.word	1249
 3070 16d4 5F050000 		.word	1375
 3071              	.L114:
 299:../Sources/main.c **** 			} else if (servang >= 1250 && servang <= 1375) {
 3072              		.loc 1 299 0
 3073 16d8 D723     		mov	r3, #215
 3074 16da 9B00     		lsl	r3, r3, #2
 3075 16dc DB19     		add	r3, r3, r7
 3076 16de 1A68     		ldr	r2, [r3]
 3077 16e0 B54B     		ldr	r3, .L353+32
 3078 16e2 9A42     		cmp	r2, r3
 3079 16e4 00DC     		bgt	.LCB2667
 3080 16e6 73E0     		b	.L112	@long jump
 3081              	.LCB2667:
 3082              		.loc 1 299 0 is_stmt 0
 3083 16e8 D724     		mov	r4, #215
 3084 16ea A400     		lsl	r4, r4, #2
 3085 16ec E419     		add	r4, r4, r7
 3086 16ee 2268     		ldr	r2, [r4]
 3087 16f0 B24B     		ldr	r3, .L353+36
 3088 16f2 9A42     		cmp	r2, r3
 3089 16f4 6CDC     		bgt	.L112
 300:../Sources/main.c **** 
 301:../Sources/main.c **** 				grausaida = ((float) (-servang / (125.0))) + (11.0); // reta a
 3090              		.loc 1 301 0 is_stmt 1
 3091 16f6 D721     		mov	r1, #215
 3092 16f8 8900     		lsl	r1, r1, #2
 3093 16fa C919     		add	r1, r1, r7
 3094 16fc 0B68     		ldr	r3, [r1]
 3095 16fe 5B42     		neg	r3, r3
 3096 1700 181C     		mov	r0, r3
 3097 1702 FFF7FEFF 		bl	__aeabi_i2d
 3098 1706 031C     		mov	r3, r0
 3099 1708 0C1C     		mov	r4, r1
 3100 170a 181C     		mov	r0, r3
 3101 170c 211C     		mov	r1, r4
 3102 170e A34B     		ldr	r3, .L353+4
 3103 1710 A14A     		ldr	r2, .L353
 3104 1712 FFF7FEFF 		bl	__aeabi_ddiv
 3105 1716 031C     		mov	r3, r0
 3106 1718 0C1C     		mov	r4, r1
 3107 171a 181C     		mov	r0, r3
 3108 171c 211C     		mov	r1, r4
 3109 171e FFF7FEFF 		bl	__aeabi_d2f
 3110 1722 031C     		add	r3, r0, #0
 3111 1724 181C     		add	r0, r3, #0
 3112 1726 FFF7FEFF 		bl	__aeabi_f2d
 3113 172a 031C     		mov	r3, r0
 3114 172c 0C1C     		mov	r4, r1
 3115 172e 181C     		mov	r0, r3
 3116 1730 211C     		mov	r1, r4
 3117 1732 9B4A     		ldr	r2, .L353+8
 3118 1734 9B4B     		ldr	r3, .L353+12
 3119 1736 FFF7FEFF 		bl	__aeabi_dadd
 3120 173a 031C     		mov	r3, r0
 3121 173c 0C1C     		mov	r4, r1
 3122 173e D422     		mov	r2, #212
 3123 1740 9200     		lsl	r2, r2, #2
 3124 1742 D219     		add	r2, r2, r7
 3125 1744 1360     		str	r3, [r2]
 3126 1746 5460     		str	r4, [r2, #4]
 302:../Sources/main.c **** 				if (grausaida > nb)
 3127              		.loc 1 302 0
 3128 1748 D423     		mov	r3, #212
 3129 174a 9B00     		lsl	r3, r3, #2
 3130 174c DB19     		add	r3, r3, r7
 3131 174e 1868     		ldr	r0, [r3]
 3132 1750 5968     		ldr	r1, [r3, #4]
 3133 1752 DE24     		mov	r4, #222
 3134 1754 A400     		lsl	r4, r4, #2
 3135 1756 E419     		add	r4, r4, r7
 3136 1758 2268     		ldr	r2, [r4]
 3137 175a 6368     		ldr	r3, [r4, #4]
 3138 175c FFF7FEFF 		bl	__aeabi_dcmpgt
 3139 1760 031C     		mov	r3, r0
 3140 1762 002B     		cmp	r3, #0
 3141 1764 09D0     		beq	.L115
 3142              	.L278:
 303:../Sources/main.c **** 					grausaida = nb;
 3143              		.loc 1 303 0
 3144 1766 DE21     		mov	r1, #222
 3145 1768 8900     		lsl	r1, r1, #2
 3146 176a C919     		add	r1, r1, r7
 3147 176c 0B68     		ldr	r3, [r1]
 3148 176e 4C68     		ldr	r4, [r1, #4]
 3149 1770 D422     		mov	r2, #212
 3150 1772 9200     		lsl	r2, r2, #2
 3151 1774 D219     		add	r2, r2, r7
 3152 1776 1360     		str	r3, [r2]
 3153 1778 5460     		str	r4, [r2, #4]
 3154              	.L115:
 304:../Sources/main.c **** 				if (area[i] <= grausaida)
 3155              		.loc 1 304 0
 3156 177a 914B     		ldr	r3, .L353+40
 3157 177c EC24     		mov	r4, #236
 3158 177e A400     		lsl	r4, r4, #2
 3159 1780 E419     		add	r4, r4, r7
 3160 1782 E218     		add	r2, r4, r3
 3161 1784 EB21     		mov	r1, #235
 3162 1786 8900     		lsl	r1, r1, #2
 3163 1788 C919     		add	r1, r1, r7
 3164 178a 0B68     		ldr	r3, [r1]
 3165 178c DB00     		lsl	r3, r3, #3
 3166 178e D318     		add	r3, r2, r3
 3167 1790 5C68     		ldr	r4, [r3, #4]
 3168 1792 1B68     		ldr	r3, [r3]
 3169 1794 181C     		mov	r0, r3
 3170 1796 211C     		mov	r1, r4
 3171 1798 D424     		mov	r4, #212
 3172 179a A400     		lsl	r4, r4, #2
 3173 179c E419     		add	r4, r4, r7
 3174 179e 2268     		ldr	r2, [r4]
 3175 17a0 6368     		ldr	r3, [r4, #4]
 3176 17a2 FFF7FEFF 		bl	__aeabi_dcmple
 3177 17a6 031C     		mov	r3, r0
 3178 17a8 002B     		cmp	r3, #0
 3179 17aa 11D0     		beq	.L112
 3180              	.L279:
 305:../Sources/main.c **** 					area[i] = grausaida;
 3181              		.loc 1 305 0
 3182 17ac 844B     		ldr	r3, .L353+40
 3183 17ae EC21     		mov	r1, #236
 3184 17b0 8900     		lsl	r1, r1, #2
 3185 17b2 C919     		add	r1, r1, r7
 3186 17b4 CA18     		add	r2, r1, r3
 3187 17b6 EB24     		mov	r4, #235
 3188 17b8 A400     		lsl	r4, r4, #2
 3189 17ba E419     		add	r4, r4, r7
 3190 17bc 2368     		ldr	r3, [r4]
 3191 17be DB00     		lsl	r3, r3, #3
 3192 17c0 D218     		add	r2, r2, r3
 3193 17c2 D421     		mov	r1, #212
 3194 17c4 8900     		lsl	r1, r1, #2
 3195 17c6 C919     		add	r1, r1, r7
 3196 17c8 0B68     		ldr	r3, [r1]
 3197 17ca 4C68     		ldr	r4, [r1, #4]
 3198 17cc 1360     		str	r3, [r2]
 3199 17ce 5460     		str	r4, [r2, #4]
 3200              	.L112:
 306:../Sources/main.c **** 			}
 307:../Sources/main.c **** 
 308:../Sources/main.c **** 			servang = servang + 10;
 3201              		.loc 1 308 0
 3202 17d0 D722     		mov	r2, #215
 3203 17d2 9200     		lsl	r2, r2, #2
 3204 17d4 D219     		add	r2, r2, r7
 3205 17d6 1368     		ldr	r3, [r2]
 3206 17d8 0A33     		add	r3, r3, #10
 3207 17da D724     		mov	r4, #215
 3208 17dc A400     		lsl	r4, r4, #2
 3209 17de E419     		add	r4, r4, r7
 3210 17e0 2360     		str	r3, [r4]
 291:../Sources/main.c **** 		for (i = 0; i < 100; i++) {
 3211              		.loc 1 291 0
 3212 17e2 EB21     		mov	r1, #235
 3213 17e4 8900     		lsl	r1, r1, #2
 3214 17e6 C919     		add	r1, r1, r7
 3215 17e8 0B68     		ldr	r3, [r1]
 3216 17ea 0133     		add	r3, r3, #1
 3217 17ec EB22     		mov	r2, #235
 3218 17ee 9200     		lsl	r2, r2, #2
 3219 17f0 D219     		add	r2, r2, r7
 3220 17f2 1360     		str	r3, [r2]
 3221              	.L110:
 291:../Sources/main.c **** 		for (i = 0; i < 100; i++) {
 3222              		.loc 1 291 0 is_stmt 0
 3223 17f4 EB24     		mov	r4, #235
 3224 17f6 A400     		lsl	r4, r4, #2
 3225 17f8 E419     		add	r4, r4, r7
 3226 17fa 2368     		ldr	r3, [r4]
 3227 17fc 632B     		cmp	r3, #99
 3228 17fe 00DC     		bgt	.LCB2797
 3229 1800 FEE6     		b	.L118	@long jump
 3230              	.LCB2797:
 309:../Sources/main.c **** 		}
 310:../Sources/main.c **** 		servang = 1000;
 3231              		.loc 1 310 0 is_stmt 1
 3232 1802 FA23     		mov	r3, #250
 3233 1804 9B00     		lsl	r3, r3, #2
 3234 1806 D721     		mov	r1, #215
 3235 1808 8900     		lsl	r1, r1, #2
 3236 180a C919     		add	r1, r1, r7
 3237 180c 0B60     		str	r3, [r1]
 311:../Sources/main.c **** //------------ F e L -----------
 312:../Sources/main.c **** 		if (graul < grauf) {
 3238              		.loc 1 312 0
 3239 180e CB23     		mov	r3, #203
 3240 1810 9B00     		lsl	r3, r3, #2
 3241 1812 DB19     		add	r3, r3, r7
 3242 1814 1A68     		ldr	r2, [r3]
 3243 1816 C824     		mov	r4, #200
 3244 1818 A400     		lsl	r4, r4, #2
 3245 181a E419     		add	r4, r4, r7
 3246 181c 2368     		ldr	r3, [r4]
 3247 181e 101C     		add	r0, r2, #0
 3248 1820 191C     		add	r1, r3, #0
 3249 1822 FFF7FEFF 		bl	__aeabi_fcmplt
 3250 1826 031C     		mov	r3, r0
 3251 1828 002B     		cmp	r3, #0
 3252 182a 0ED0     		beq	.L328
 3253              	.L280:
 313:../Sources/main.c **** 			ns = graul;
 3254              		.loc 1 313 0
 3255 182c CB21     		mov	r1, #203
 3256 182e 8900     		lsl	r1, r1, #2
 3257 1830 C919     		add	r1, r1, r7
 3258 1832 0B68     		ldr	r3, [r1]
 3259 1834 181C     		add	r0, r3, #0
 3260 1836 FFF7FEFF 		bl	__aeabi_f2d
 3261 183a 031C     		mov	r3, r0
 3262 183c 0C1C     		mov	r4, r1
 3263 183e E022     		mov	r2, #224
 3264 1840 9200     		lsl	r2, r2, #2
 3265 1842 D219     		add	r2, r2, r7
 3266 1844 1360     		str	r3, [r2]
 3267 1846 5460     		str	r4, [r2, #4]
 3268 1848 0DE0     		b	.L121
 3269              	.L328:
 314:../Sources/main.c **** 		} else
 315:../Sources/main.c **** 			ns = grauf;
 3270              		.loc 1 315 0
 3271 184a C824     		mov	r4, #200
 3272 184c A400     		lsl	r4, r4, #2
 3273 184e E419     		add	r4, r4, r7
 3274 1850 2368     		ldr	r3, [r4]
 3275 1852 181C     		add	r0, r3, #0
 3276 1854 FFF7FEFF 		bl	__aeabi_f2d
 3277 1858 031C     		mov	r3, r0
 3278 185a 0C1C     		mov	r4, r1
 3279 185c E021     		mov	r1, #224
 3280 185e 8900     		lsl	r1, r1, #2
 3281 1860 C919     		add	r1, r1, r7
 3282 1862 0B60     		str	r3, [r1]
 3283 1864 4C60     		str	r4, [r1, #4]
 3284              	.L121:
 316:../Sources/main.c **** 
 317:../Sources/main.c **** 		for (i = 0; i < 100; i++) {
 3285              		.loc 1 317 0
 3286 1866 0023     		mov	r3, #0
 3287 1868 EB22     		mov	r2, #235
 3288 186a 9200     		lsl	r2, r2, #2
 3289 186c D219     		add	r2, r2, r7
 3290 186e 1360     		str	r3, [r2]
 3291 1870 38E1     		b	.L122
 3292              	.L134:
 318:../Sources/main.c **** 			if (servang < 1250 || servang > 1500) {
 3293              		.loc 1 318 0
 3294 1872 D723     		mov	r3, #215
 3295 1874 9B00     		lsl	r3, r3, #2
 3296 1876 DB19     		add	r3, r3, r7
 3297 1878 1A68     		ldr	r2, [r3]
 3298 187a 4F4B     		ldr	r3, .L353+32
 3299 187c 9A42     		cmp	r2, r3
 3300 187e 06DD     		ble	.L123
 3301              		.loc 1 318 0 is_stmt 0
 3302 1880 D724     		mov	r4, #215
 3303 1882 A400     		lsl	r4, r4, #2
 3304 1884 E419     		add	r4, r4, r7
 3305 1886 2268     		ldr	r2, [r4]
 3306 1888 4E4B     		ldr	r3, .L353+44
 3307 188a 9A42     		cmp	r2, r3
 3308 188c 07DD     		ble	.L124
 3309              	.L123:
 319:../Sources/main.c **** 				grausaida = 0;
 3310              		.loc 1 319 0 is_stmt 1
 3311 188e 464B     		ldr	r3, .L353+16
 3312 1890 464C     		ldr	r4, .L353+20
 3313 1892 D421     		mov	r1, #212
 3314 1894 8900     		lsl	r1, r1, #2
 3315 1896 C919     		add	r1, r1, r7
 3316 1898 0B60     		str	r3, [r1]
 3317 189a 4C60     		str	r4, [r1, #4]
 3318 189c 10E1     		b	.L125
 3319              	.L124:
 320:../Sources/main.c **** 				//if(area[i]<=grausaida) area[i]=grausaida;
 321:../Sources/main.c **** 
 322:../Sources/main.c **** 			} else if (servang >= 1250 && servang <= 1375) {
 3320              		.loc 1 322 0
 3321 189e D723     		mov	r3, #215
 3322 18a0 9B00     		lsl	r3, r3, #2
 3323 18a2 DB19     		add	r3, r3, r7
 3324 18a4 1A68     		ldr	r2, [r3]
 3325 18a6 444B     		ldr	r3, .L353+32
 3326 18a8 9A42     		cmp	r2, r3
 3327 18aa 00DC     		bgt	.LCB2888
 3328 18ac 8CE0     		b	.L126	@long jump
 3329              	.LCB2888:
 3330              		.loc 1 322 0 is_stmt 0
 3331 18ae D724     		mov	r4, #215
 3332 18b0 A400     		lsl	r4, r4, #2
 3333 18b2 E419     		add	r4, r4, r7
 3334 18b4 2268     		ldr	r2, [r4]
 3335 18b6 414B     		ldr	r3, .L353+36
 3336 18b8 9A42     		cmp	r2, r3
 3337 18ba 00DD     		ble	.LCB2895
 3338 18bc 84E0     		b	.L126	@long jump
 3339              	.LCB2895:
 323:../Sources/main.c **** 
 324:../Sources/main.c **** 				grausaida = ((float) (servang / 125.0)) - (10.0); // reta b
 3340              		.loc 1 324 0 is_stmt 1
 3341 18be D721     		mov	r1, #215
 3342 18c0 8900     		lsl	r1, r1, #2
 3343 18c2 C919     		add	r1, r1, r7
 3344 18c4 0868     		ldr	r0, [r1]
 3345 18c6 FFF7FEFF 		bl	__aeabi_i2d
 3346 18ca 031C     		mov	r3, r0
 3347 18cc 0C1C     		mov	r4, r1
 3348 18ce 181C     		mov	r0, r3
 3349 18d0 211C     		mov	r1, r4
 3350 18d2 324B     		ldr	r3, .L353+4
 3351 18d4 304A     		ldr	r2, .L353
 3352 18d6 FFF7FEFF 		bl	__aeabi_ddiv
 3353 18da 031C     		mov	r3, r0
 3354 18dc 0C1C     		mov	r4, r1
 3355 18de 181C     		mov	r0, r3
 3356 18e0 211C     		mov	r1, r4
 3357 18e2 FFF7FEFF 		bl	__aeabi_d2f
 3358 18e6 031C     		add	r3, r0, #0
 3359 18e8 181C     		add	r0, r3, #0
 3360 18ea FFF7FEFF 		bl	__aeabi_f2d
 3361 18ee 031C     		mov	r3, r0
 3362 18f0 0C1C     		mov	r4, r1
 3363 18f2 181C     		mov	r0, r3
 3364 18f4 211C     		mov	r1, r4
 3365 18f6 2E4A     		ldr	r2, .L353+24
 3366 18f8 2E4B     		ldr	r3, .L353+28
 3367 18fa FFF7FEFF 		bl	__aeabi_dsub
 3368 18fe 031C     		mov	r3, r0
 3369 1900 0C1C     		mov	r4, r1
 3370 1902 D422     		mov	r2, #212
 3371 1904 9200     		lsl	r2, r2, #2
 3372 1906 D219     		add	r2, r2, r7
 3373 1908 1360     		str	r3, [r2]
 3374 190a 5460     		str	r4, [r2, #4]
 325:../Sources/main.c **** 				if (grausaida > ns)
 3375              		.loc 1 325 0
 3376 190c D423     		mov	r3, #212
 3377 190e 9B00     		lsl	r3, r3, #2
 3378 1910 DB19     		add	r3, r3, r7
 3379 1912 1868     		ldr	r0, [r3]
 3380 1914 5968     		ldr	r1, [r3, #4]
 3381 1916 E024     		mov	r4, #224
 3382 1918 A400     		lsl	r4, r4, #2
 3383 191a E419     		add	r4, r4, r7
 3384 191c 2268     		ldr	r2, [r4]
 3385 191e 6368     		ldr	r3, [r4, #4]
 3386 1920 FFF7FEFF 		bl	__aeabi_dcmpgt
 3387 1924 031C     		mov	r3, r0
 3388 1926 002B     		cmp	r3, #0
 3389 1928 09D0     		beq	.L127
 3390              	.L281:
 326:../Sources/main.c **** 					grausaida = ns;
 3391              		.loc 1 326 0
 3392 192a E021     		mov	r1, #224
 3393 192c 8900     		lsl	r1, r1, #2
 3394 192e C919     		add	r1, r1, r7
 3395 1930 0B68     		ldr	r3, [r1]
 3396 1932 4C68     		ldr	r4, [r1, #4]
 3397 1934 D422     		mov	r2, #212
 3398 1936 9200     		lsl	r2, r2, #2
 3399 1938 D219     		add	r2, r2, r7
 3400 193a 1360     		str	r3, [r2]
 3401 193c 5460     		str	r4, [r2, #4]
 3402              	.L127:
 327:../Sources/main.c **** 				if (area[i] <= grausaida)
 3403              		.loc 1 327 0
 3404 193e 204B     		ldr	r3, .L353+40
 3405 1940 EC24     		mov	r4, #236
 3406 1942 A400     		lsl	r4, r4, #2
 3407 1944 E419     		add	r4, r4, r7
 3408 1946 E218     		add	r2, r4, r3
 3409 1948 EB21     		mov	r1, #235
 3410 194a 8900     		lsl	r1, r1, #2
 3411 194c C919     		add	r1, r1, r7
 3412 194e 0B68     		ldr	r3, [r1]
 3413 1950 DB00     		lsl	r3, r3, #3
 3414 1952 D318     		add	r3, r2, r3
 3415 1954 5C68     		ldr	r4, [r3, #4]
 3416 1956 1B68     		ldr	r3, [r3]
 3417 1958 181C     		mov	r0, r3
 3418 195a 211C     		mov	r1, r4
 3419 195c D424     		mov	r4, #212
 3420 195e A400     		lsl	r4, r4, #2
 3421 1960 E419     		add	r4, r4, r7
 3422 1962 2268     		ldr	r2, [r4]
 3423 1964 6368     		ldr	r3, [r4, #4]
 3424 1966 FFF7FEFF 		bl	__aeabi_dcmple
 3425 196a 031C     		mov	r3, r0
 3426 196c 002B     		cmp	r3, #0
 3427 196e 00D1     		bne	.LCB2971
 3428 1970 A6E0     		b	.L125	@long jump
 3429              	.LCB2971:
 3430              	.L282:
 328:../Sources/main.c **** 					area[i] = grausaida;
 3431              		.loc 1 328 0
 3432 1972 134B     		ldr	r3, .L353+40
 3433 1974 EC21     		mov	r1, #236
 3434 1976 8900     		lsl	r1, r1, #2
 3435 1978 C919     		add	r1, r1, r7
 3436 197a CA18     		add	r2, r1, r3
 3437 197c EB24     		mov	r4, #235
 3438 197e A400     		lsl	r4, r4, #2
 3439 1980 E419     		add	r4, r4, r7
 3440 1982 2368     		ldr	r3, [r4]
 3441 1984 DB00     		lsl	r3, r3, #3
 3442 1986 D218     		add	r2, r2, r3
 3443 1988 D421     		mov	r1, #212
 3444 198a 8900     		lsl	r1, r1, #2
 3445 198c C919     		add	r1, r1, r7
 3446 198e 0B68     		ldr	r3, [r1]
 3447 1990 4C68     		ldr	r4, [r1, #4]
 3448 1992 1360     		str	r3, [r2]
 3449 1994 5460     		str	r4, [r2, #4]
 327:../Sources/main.c **** 				if (area[i] <= grausaida)
 3450              		.loc 1 327 0
 3451 1996 93E0     		b	.L125
 3452              	.L354:
 3453              		.align	3
 3454              	.L353:
 3455 1998 00000000 		.word	0
 3456 199c 00405F40 		.word	1079984128
 3457 19a0 00000000 		.word	0
 3458 19a4 00002640 		.word	1076232192
 3459 19a8 00000000 		.word	0
 3460 19ac 00000000 		.word	0
 3461 19b0 00000000 		.word	0
 3462 19b4 00002440 		.word	1076101120
 3463 19b8 E1040000 		.word	1249
 3464 19bc 5F050000 		.word	1375
 3465 19c0 50FCFFFF 		.word	-944
 3466 19c4 DC050000 		.word	1500
 3467              	.L126:
 329:../Sources/main.c **** 			}
 330:../Sources/main.c **** 
 331:../Sources/main.c **** 			else if (servang >= 1375 && servang <= 1500) {
 3468              		.loc 1 331 0
 3469 19c8 D723     		mov	r3, #215
 3470 19ca 9B00     		lsl	r3, r3, #2
 3471 19cc DB19     		add	r3, r3, r7
 3472 19ce 1A68     		ldr	r2, [r3]
 3473 19d0 B54B     		ldr	r3, .L355+32
 3474 19d2 9A42     		cmp	r2, r3
 3475 19d4 00DC     		bgt	.LCB3012
 3476 19d6 73E0     		b	.L125	@long jump
 3477              	.LCB3012:
 3478              		.loc 1 331 0 is_stmt 0
 3479 19d8 D724     		mov	r4, #215
 3480 19da A400     		lsl	r4, r4, #2
 3481 19dc E419     		add	r4, r4, r7
 3482 19de 2268     		ldr	r2, [r4]
 3483 19e0 B24B     		ldr	r3, .L355+36
 3484 19e2 9A42     		cmp	r2, r3
 3485 19e4 6CDC     		bgt	.L125
 332:../Sources/main.c **** 
 333:../Sources/main.c **** 				grausaida = ((float) (-servang / 125.0)) + (12.0); //reta c
 3486              		.loc 1 333 0 is_stmt 1
 3487 19e6 D721     		mov	r1, #215
 3488 19e8 8900     		lsl	r1, r1, #2
 3489 19ea C919     		add	r1, r1, r7
 3490 19ec 0B68     		ldr	r3, [r1]
 3491 19ee 5B42     		neg	r3, r3
 3492 19f0 181C     		mov	r0, r3
 3493 19f2 FFF7FEFF 		bl	__aeabi_i2d
 3494 19f6 031C     		mov	r3, r0
 3495 19f8 0C1C     		mov	r4, r1
 3496 19fa 181C     		mov	r0, r3
 3497 19fc 211C     		mov	r1, r4
 3498 19fe A34B     		ldr	r3, .L355+4
 3499 1a00 A14A     		ldr	r2, .L355
 3500 1a02 FFF7FEFF 		bl	__aeabi_ddiv
 3501 1a06 031C     		mov	r3, r0
 3502 1a08 0C1C     		mov	r4, r1
 3503 1a0a 181C     		mov	r0, r3
 3504 1a0c 211C     		mov	r1, r4
 3505 1a0e FFF7FEFF 		bl	__aeabi_d2f
 3506 1a12 031C     		add	r3, r0, #0
 3507 1a14 181C     		add	r0, r3, #0
 3508 1a16 FFF7FEFF 		bl	__aeabi_f2d
 3509 1a1a 031C     		mov	r3, r0
 3510 1a1c 0C1C     		mov	r4, r1
 3511 1a1e 181C     		mov	r0, r3
 3512 1a20 211C     		mov	r1, r4
 3513 1a22 9B4A     		ldr	r2, .L355+8
 3514 1a24 9B4B     		ldr	r3, .L355+12
 3515 1a26 FFF7FEFF 		bl	__aeabi_dadd
 3516 1a2a 031C     		mov	r3, r0
 3517 1a2c 0C1C     		mov	r4, r1
 3518 1a2e D422     		mov	r2, #212
 3519 1a30 9200     		lsl	r2, r2, #2
 3520 1a32 D219     		add	r2, r2, r7
 3521 1a34 1360     		str	r3, [r2]
 3522 1a36 5460     		str	r4, [r2, #4]
 334:../Sources/main.c **** 				if (grausaida > ns)
 3523              		.loc 1 334 0
 3524 1a38 D423     		mov	r3, #212
 3525 1a3a 9B00     		lsl	r3, r3, #2
 3526 1a3c DB19     		add	r3, r3, r7
 3527 1a3e 1868     		ldr	r0, [r3]
 3528 1a40 5968     		ldr	r1, [r3, #4]
 3529 1a42 E024     		mov	r4, #224
 3530 1a44 A400     		lsl	r4, r4, #2
 3531 1a46 E419     		add	r4, r4, r7
 3532 1a48 2268     		ldr	r2, [r4]
 3533 1a4a 6368     		ldr	r3, [r4, #4]
 3534 1a4c FFF7FEFF 		bl	__aeabi_dcmpgt
 3535 1a50 031C     		mov	r3, r0
 3536 1a52 002B     		cmp	r3, #0
 3537 1a54 09D0     		beq	.L131
 3538              	.L283:
 335:../Sources/main.c **** 					grausaida = ns;
 3539              		.loc 1 335 0
 3540 1a56 E021     		mov	r1, #224
 3541 1a58 8900     		lsl	r1, r1, #2
 3542 1a5a C919     		add	r1, r1, r7
 3543 1a5c 0B68     		ldr	r3, [r1]
 3544 1a5e 4C68     		ldr	r4, [r1, #4]
 3545 1a60 D422     		mov	r2, #212
 3546 1a62 9200     		lsl	r2, r2, #2
 3547 1a64 D219     		add	r2, r2, r7
 3548 1a66 1360     		str	r3, [r2]
 3549 1a68 5460     		str	r4, [r2, #4]
 3550              	.L131:
 336:../Sources/main.c **** 				if (area[i] <= grausaida)
 3551              		.loc 1 336 0
 3552 1a6a 914B     		ldr	r3, .L355+40
 3553 1a6c EC24     		mov	r4, #236
 3554 1a6e A400     		lsl	r4, r4, #2
 3555 1a70 E419     		add	r4, r4, r7
 3556 1a72 E218     		add	r2, r4, r3
 3557 1a74 EB21     		mov	r1, #235
 3558 1a76 8900     		lsl	r1, r1, #2
 3559 1a78 C919     		add	r1, r1, r7
 3560 1a7a 0B68     		ldr	r3, [r1]
 3561 1a7c DB00     		lsl	r3, r3, #3
 3562 1a7e D318     		add	r3, r2, r3
 3563 1a80 5C68     		ldr	r4, [r3, #4]
 3564 1a82 1B68     		ldr	r3, [r3]
 3565 1a84 181C     		mov	r0, r3
 3566 1a86 211C     		mov	r1, r4
 3567 1a88 D424     		mov	r4, #212
 3568 1a8a A400     		lsl	r4, r4, #2
 3569 1a8c E419     		add	r4, r4, r7
 3570 1a8e 2268     		ldr	r2, [r4]
 3571 1a90 6368     		ldr	r3, [r4, #4]
 3572 1a92 FFF7FEFF 		bl	__aeabi_dcmple
 3573 1a96 031C     		mov	r3, r0
 3574 1a98 002B     		cmp	r3, #0
 3575 1a9a 11D0     		beq	.L125
 3576              	.L284:
 337:../Sources/main.c **** 					area[i] = grausaida;
 3577              		.loc 1 337 0
 3578 1a9c 844B     		ldr	r3, .L355+40
 3579 1a9e EC21     		mov	r1, #236
 3580 1aa0 8900     		lsl	r1, r1, #2
 3581 1aa2 C919     		add	r1, r1, r7
 3582 1aa4 CA18     		add	r2, r1, r3
 3583 1aa6 EB24     		mov	r4, #235
 3584 1aa8 A400     		lsl	r4, r4, #2
 3585 1aaa E419     		add	r4, r4, r7
 3586 1aac 2368     		ldr	r3, [r4]
 3587 1aae DB00     		lsl	r3, r3, #3
 3588 1ab0 D218     		add	r2, r2, r3
 3589 1ab2 D421     		mov	r1, #212
 3590 1ab4 8900     		lsl	r1, r1, #2
 3591 1ab6 C919     		add	r1, r1, r7
 3592 1ab8 0B68     		ldr	r3, [r1]
 3593 1aba 4C68     		ldr	r4, [r1, #4]
 3594 1abc 1360     		str	r3, [r2]
 3595 1abe 5460     		str	r4, [r2, #4]
 3596              	.L125:
 338:../Sources/main.c **** 			}
 339:../Sources/main.c **** 			servang = servang + 10;
 3597              		.loc 1 339 0
 3598 1ac0 D722     		mov	r2, #215
 3599 1ac2 9200     		lsl	r2, r2, #2
 3600 1ac4 D219     		add	r2, r2, r7
 3601 1ac6 1368     		ldr	r3, [r2]
 3602 1ac8 0A33     		add	r3, r3, #10
 3603 1aca D724     		mov	r4, #215
 3604 1acc A400     		lsl	r4, r4, #2
 3605 1ace E419     		add	r4, r4, r7
 3606 1ad0 2360     		str	r3, [r4]
 317:../Sources/main.c **** 		for (i = 0; i < 100; i++) {
 3607              		.loc 1 317 0
 3608 1ad2 EB21     		mov	r1, #235
 3609 1ad4 8900     		lsl	r1, r1, #2
 3610 1ad6 C919     		add	r1, r1, r7
 3611 1ad8 0B68     		ldr	r3, [r1]
 3612 1ada 0133     		add	r3, r3, #1
 3613 1adc EB22     		mov	r2, #235
 3614 1ade 9200     		lsl	r2, r2, #2
 3615 1ae0 D219     		add	r2, r2, r7
 3616 1ae2 1360     		str	r3, [r2]
 3617              	.L122:
 317:../Sources/main.c **** 		for (i = 0; i < 100; i++) {
 3618              		.loc 1 317 0 is_stmt 0
 3619 1ae4 EB24     		mov	r4, #235
 3620 1ae6 A400     		lsl	r4, r4, #2
 3621 1ae8 E419     		add	r4, r4, r7
 3622 1aea 2368     		ldr	r3, [r4]
 3623 1aec 632B     		cmp	r3, #99
 3624 1aee 00DC     		bgt	.LCB3142
 3625 1af0 BFE6     		b	.L134	@long jump
 3626              	.LCB3142:
 340:../Sources/main.c **** 		}
 341:../Sources/main.c **** 		servang = 1000;
 3627              		.loc 1 341 0 is_stmt 1
 3628 1af2 FA23     		mov	r3, #250
 3629 1af4 9B00     		lsl	r3, r3, #2
 3630 1af6 D721     		mov	r1, #215
 3631 1af8 8900     		lsl	r1, r1, #2
 3632 1afa C919     		add	r1, r1, r7
 3633 1afc 0B60     		str	r3, [r1]
 342:../Sources/main.c **** //----------- F e M -----------
 343:../Sources/main.c **** 		if (graum < grauf) {
 3634              		.loc 1 343 0
 3635 1afe CA23     		mov	r3, #202
 3636 1b00 9B00     		lsl	r3, r3, #2
 3637 1b02 DB19     		add	r3, r3, r7
 3638 1b04 1A68     		ldr	r2, [r3]
 3639 1b06 C824     		mov	r4, #200
 3640 1b08 A400     		lsl	r4, r4, #2
 3641 1b0a E419     		add	r4, r4, r7
 3642 1b0c 2368     		ldr	r3, [r4]
 3643 1b0e 101C     		add	r0, r2, #0
 3644 1b10 191C     		add	r1, r3, #0
 3645 1b12 FFF7FEFF 		bl	__aeabi_fcmplt
 3646 1b16 031C     		mov	r3, r0
 3647 1b18 002B     		cmp	r3, #0
 3648 1b1a 0ED0     		beq	.L329
 3649              	.L285:
 344:../Sources/main.c **** 			z = graum;
 3650              		.loc 1 344 0
 3651 1b1c CA21     		mov	r1, #202
 3652 1b1e 8900     		lsl	r1, r1, #2
 3653 1b20 C919     		add	r1, r1, r7
 3654 1b22 0B68     		ldr	r3, [r1]
 3655 1b24 181C     		add	r0, r3, #0
 3656 1b26 FFF7FEFF 		bl	__aeabi_f2d
 3657 1b2a 031C     		mov	r3, r0
 3658 1b2c 0C1C     		mov	r4, r1
 3659 1b2e DC22     		mov	r2, #220
 3660 1b30 9200     		lsl	r2, r2, #2
 3661 1b32 D219     		add	r2, r2, r7
 3662 1b34 1360     		str	r3, [r2]
 3663 1b36 5460     		str	r4, [r2, #4]
 3664 1b38 0DE0     		b	.L137
 3665              	.L329:
 345:../Sources/main.c **** 		} else
 346:../Sources/main.c **** 			z = grauf;
 3666              		.loc 1 346 0
 3667 1b3a C824     		mov	r4, #200
 3668 1b3c A400     		lsl	r4, r4, #2
 3669 1b3e E419     		add	r4, r4, r7
 3670 1b40 2368     		ldr	r3, [r4]
 3671 1b42 181C     		add	r0, r3, #0
 3672 1b44 FFF7FEFF 		bl	__aeabi_f2d
 3673 1b48 031C     		mov	r3, r0
 3674 1b4a 0C1C     		mov	r4, r1
 3675 1b4c DC21     		mov	r1, #220
 3676 1b4e 8900     		lsl	r1, r1, #2
 3677 1b50 C919     		add	r1, r1, r7
 3678 1b52 0B60     		str	r3, [r1]
 3679 1b54 4C60     		str	r4, [r1, #4]
 3680              	.L137:
 347:../Sources/main.c **** 
 348:../Sources/main.c **** 		for (i = 0; i < 100; i++) {
 3681              		.loc 1 348 0
 3682 1b56 0023     		mov	r3, #0
 3683 1b58 EB22     		mov	r2, #235
 3684 1b5a 9200     		lsl	r2, r2, #2
 3685 1b5c D219     		add	r2, r2, r7
 3686 1b5e 1360     		str	r3, [r2]
 3687 1b60 38E1     		b	.L138
 3688              	.L150:
 349:../Sources/main.c **** 			if (servang < 1375 || servang > 1625) {
 3689              		.loc 1 349 0
 3690 1b62 D723     		mov	r3, #215
 3691 1b64 9B00     		lsl	r3, r3, #2
 3692 1b66 DB19     		add	r3, r3, r7
 3693 1b68 1A68     		ldr	r2, [r3]
 3694 1b6a 4F4B     		ldr	r3, .L355+32
 3695 1b6c 9A42     		cmp	r2, r3
 3696 1b6e 06DD     		ble	.L139
 3697              		.loc 1 349 0 is_stmt 0
 3698 1b70 D724     		mov	r4, #215
 3699 1b72 A400     		lsl	r4, r4, #2
 3700 1b74 E419     		add	r4, r4, r7
 3701 1b76 2268     		ldr	r2, [r4]
 3702 1b78 4E4B     		ldr	r3, .L355+44
 3703 1b7a 9A42     		cmp	r2, r3
 3704 1b7c 07DD     		ble	.L140
 3705              	.L139:
 350:../Sources/main.c **** 				grausaida = 0;
 3706              		.loc 1 350 0 is_stmt 1
 3707 1b7e 464B     		ldr	r3, .L355+16
 3708 1b80 464C     		ldr	r4, .L355+20
 3709 1b82 D421     		mov	r1, #212
 3710 1b84 8900     		lsl	r1, r1, #2
 3711 1b86 C919     		add	r1, r1, r7
 3712 1b88 0B60     		str	r3, [r1]
 3713 1b8a 4C60     		str	r4, [r1, #4]
 3714 1b8c 10E1     		b	.L141
 3715              	.L140:
 351:../Sources/main.c **** 				//if(area[i]<=grausaida) area[i]=grausaida;
 352:../Sources/main.c **** 
 353:../Sources/main.c **** 			} else if (servang >= 1375 && servang <= 1500) {
 3716              		.loc 1 353 0
 3717 1b8e D723     		mov	r3, #215
 3718 1b90 9B00     		lsl	r3, r3, #2
 3719 1b92 DB19     		add	r3, r3, r7
 3720 1b94 1A68     		ldr	r2, [r3]
 3721 1b96 444B     		ldr	r3, .L355+32
 3722 1b98 9A42     		cmp	r2, r3
 3723 1b9a 00DC     		bgt	.LCB3233
 3724 1b9c 8CE0     		b	.L142	@long jump
 3725              	.LCB3233:
 3726              		.loc 1 353 0 is_stmt 0
 3727 1b9e D724     		mov	r4, #215
 3728 1ba0 A400     		lsl	r4, r4, #2
 3729 1ba2 E419     		add	r4, r4, r7
 3730 1ba4 2268     		ldr	r2, [r4]
 3731 1ba6 414B     		ldr	r3, .L355+36
 3732 1ba8 9A42     		cmp	r2, r3
 3733 1baa 00DD     		ble	.LCB3240
 3734 1bac 84E0     		b	.L142	@long jump
 3735              	.LCB3240:
 354:../Sources/main.c **** 
 355:../Sources/main.c **** 				grausaida = ((float) (servang / 125.0)) - (11.0); // reta d
 3736              		.loc 1 355 0 is_stmt 1
 3737 1bae D721     		mov	r1, #215
 3738 1bb0 8900     		lsl	r1, r1, #2
 3739 1bb2 C919     		add	r1, r1, r7
 3740 1bb4 0868     		ldr	r0, [r1]
 3741 1bb6 FFF7FEFF 		bl	__aeabi_i2d
 3742 1bba 031C     		mov	r3, r0
 3743 1bbc 0C1C     		mov	r4, r1
 3744 1bbe 181C     		mov	r0, r3
 3745 1bc0 211C     		mov	r1, r4
 3746 1bc2 324B     		ldr	r3, .L355+4
 3747 1bc4 304A     		ldr	r2, .L355
 3748 1bc6 FFF7FEFF 		bl	__aeabi_ddiv
 3749 1bca 031C     		mov	r3, r0
 3750 1bcc 0C1C     		mov	r4, r1
 3751 1bce 181C     		mov	r0, r3
 3752 1bd0 211C     		mov	r1, r4
 3753 1bd2 FFF7FEFF 		bl	__aeabi_d2f
 3754 1bd6 031C     		add	r3, r0, #0
 3755 1bd8 181C     		add	r0, r3, #0
 3756 1bda FFF7FEFF 		bl	__aeabi_f2d
 3757 1bde 031C     		mov	r3, r0
 3758 1be0 0C1C     		mov	r4, r1
 3759 1be2 181C     		mov	r0, r3
 3760 1be4 211C     		mov	r1, r4
 3761 1be6 2E4A     		ldr	r2, .L355+24
 3762 1be8 2E4B     		ldr	r3, .L355+28
 3763 1bea FFF7FEFF 		bl	__aeabi_dsub
 3764 1bee 031C     		mov	r3, r0
 3765 1bf0 0C1C     		mov	r4, r1
 3766 1bf2 D422     		mov	r2, #212
 3767 1bf4 9200     		lsl	r2, r2, #2
 3768 1bf6 D219     		add	r2, r2, r7
 3769 1bf8 1360     		str	r3, [r2]
 3770 1bfa 5460     		str	r4, [r2, #4]
 356:../Sources/main.c **** 				if (grausaida > z)
 3771              		.loc 1 356 0
 3772 1bfc D423     		mov	r3, #212
 3773 1bfe 9B00     		lsl	r3, r3, #2
 3774 1c00 DB19     		add	r3, r3, r7
 3775 1c02 1868     		ldr	r0, [r3]
 3776 1c04 5968     		ldr	r1, [r3, #4]
 3777 1c06 DC24     		mov	r4, #220
 3778 1c08 A400     		lsl	r4, r4, #2
 3779 1c0a E419     		add	r4, r4, r7
 3780 1c0c 2268     		ldr	r2, [r4]
 3781 1c0e 6368     		ldr	r3, [r4, #4]
 3782 1c10 FFF7FEFF 		bl	__aeabi_dcmpgt
 3783 1c14 031C     		mov	r3, r0
 3784 1c16 002B     		cmp	r3, #0
 3785 1c18 09D0     		beq	.L143
 3786              	.L286:
 357:../Sources/main.c **** 					grausaida = z;
 3787              		.loc 1 357 0
 3788 1c1a DC21     		mov	r1, #220
 3789 1c1c 8900     		lsl	r1, r1, #2
 3790 1c1e C919     		add	r1, r1, r7
 3791 1c20 0B68     		ldr	r3, [r1]
 3792 1c22 4C68     		ldr	r4, [r1, #4]
 3793 1c24 D422     		mov	r2, #212
 3794 1c26 9200     		lsl	r2, r2, #2
 3795 1c28 D219     		add	r2, r2, r7
 3796 1c2a 1360     		str	r3, [r2]
 3797 1c2c 5460     		str	r4, [r2, #4]
 3798              	.L143:
 358:../Sources/main.c **** 				if (area[i] <= grausaida)
 3799              		.loc 1 358 0
 3800 1c2e 204B     		ldr	r3, .L355+40
 3801 1c30 EC24     		mov	r4, #236
 3802 1c32 A400     		lsl	r4, r4, #2
 3803 1c34 E419     		add	r4, r4, r7
 3804 1c36 E218     		add	r2, r4, r3
 3805 1c38 EB21     		mov	r1, #235
 3806 1c3a 8900     		lsl	r1, r1, #2
 3807 1c3c C919     		add	r1, r1, r7
 3808 1c3e 0B68     		ldr	r3, [r1]
 3809 1c40 DB00     		lsl	r3, r3, #3
 3810 1c42 D318     		add	r3, r2, r3
 3811 1c44 5C68     		ldr	r4, [r3, #4]
 3812 1c46 1B68     		ldr	r3, [r3]
 3813 1c48 181C     		mov	r0, r3
 3814 1c4a 211C     		mov	r1, r4
 3815 1c4c D424     		mov	r4, #212
 3816 1c4e A400     		lsl	r4, r4, #2
 3817 1c50 E419     		add	r4, r4, r7
 3818 1c52 2268     		ldr	r2, [r4]
 3819 1c54 6368     		ldr	r3, [r4, #4]
 3820 1c56 FFF7FEFF 		bl	__aeabi_dcmple
 3821 1c5a 031C     		mov	r3, r0
 3822 1c5c 002B     		cmp	r3, #0
 3823 1c5e 00D1     		bne	.LCB3316
 3824 1c60 A6E0     		b	.L141	@long jump
 3825              	.LCB3316:
 3826              	.L287:
 359:../Sources/main.c **** 					area[i] = grausaida;
 3827              		.loc 1 359 0
 3828 1c62 134B     		ldr	r3, .L355+40
 3829 1c64 EC21     		mov	r1, #236
 3830 1c66 8900     		lsl	r1, r1, #2
 3831 1c68 C919     		add	r1, r1, r7
 3832 1c6a CA18     		add	r2, r1, r3
 3833 1c6c EB24     		mov	r4, #235
 3834 1c6e A400     		lsl	r4, r4, #2
 3835 1c70 E419     		add	r4, r4, r7
 3836 1c72 2368     		ldr	r3, [r4]
 3837 1c74 DB00     		lsl	r3, r3, #3
 3838 1c76 D218     		add	r2, r2, r3
 3839 1c78 D421     		mov	r1, #212
 3840 1c7a 8900     		lsl	r1, r1, #2
 3841 1c7c C919     		add	r1, r1, r7
 3842 1c7e 0B68     		ldr	r3, [r1]
 3843 1c80 4C68     		ldr	r4, [r1, #4]
 3844 1c82 1360     		str	r3, [r2]
 3845 1c84 5460     		str	r4, [r2, #4]
 358:../Sources/main.c **** 				if (area[i] <= grausaida)
 3846              		.loc 1 358 0
 3847 1c86 93E0     		b	.L141
 3848              	.L356:
 3849              		.align	3
 3850              	.L355:
 3851 1c88 00000000 		.word	0
 3852 1c8c 00405F40 		.word	1079984128
 3853 1c90 00000000 		.word	0
 3854 1c94 00002840 		.word	1076363264
 3855 1c98 00000000 		.word	0
 3856 1c9c 00000000 		.word	0
 3857 1ca0 00000000 		.word	0
 3858 1ca4 00002640 		.word	1076232192
 3859 1ca8 5E050000 		.word	1374
 3860 1cac DC050000 		.word	1500
 3861 1cb0 50FCFFFF 		.word	-944
 3862 1cb4 59060000 		.word	1625
 3863              	.L142:
 360:../Sources/main.c **** 			}
 361:../Sources/main.c **** 
 362:../Sources/main.c **** 			else if (servang >= 1500 && servang <= 1625) {
 3864              		.loc 1 362 0
 3865 1cb8 D723     		mov	r3, #215
 3866 1cba 9B00     		lsl	r3, r3, #2
 3867 1cbc DB19     		add	r3, r3, r7
 3868 1cbe 1A68     		ldr	r2, [r3]
 3869 1cc0 B74B     		ldr	r3, .L357+32
 3870 1cc2 9A42     		cmp	r2, r3
 3871 1cc4 00DC     		bgt	.LCB3357
 3872 1cc6 73E0     		b	.L141	@long jump
 3873              	.LCB3357:
 3874              		.loc 1 362 0 is_stmt 0
 3875 1cc8 D724     		mov	r4, #215
 3876 1cca A400     		lsl	r4, r4, #2
 3877 1ccc E419     		add	r4, r4, r7
 3878 1cce 2268     		ldr	r2, [r4]
 3879 1cd0 B44B     		ldr	r3, .L357+36
 3880 1cd2 9A42     		cmp	r2, r3
 3881 1cd4 6CDC     		bgt	.L141
 363:../Sources/main.c **** 
 364:../Sources/main.c **** 				grausaida = ((float) (-servang / 125.0)) + (13.0); //reta e
 3882              		.loc 1 364 0 is_stmt 1
 3883 1cd6 D721     		mov	r1, #215
 3884 1cd8 8900     		lsl	r1, r1, #2
 3885 1cda C919     		add	r1, r1, r7
 3886 1cdc 0B68     		ldr	r3, [r1]
 3887 1cde 5B42     		neg	r3, r3
 3888 1ce0 181C     		mov	r0, r3
 3889 1ce2 FFF7FEFF 		bl	__aeabi_i2d
 3890 1ce6 031C     		mov	r3, r0
 3891 1ce8 0C1C     		mov	r4, r1
 3892 1cea 181C     		mov	r0, r3
 3893 1cec 211C     		mov	r1, r4
 3894 1cee A54B     		ldr	r3, .L357+4
 3895 1cf0 A34A     		ldr	r2, .L357
 3896 1cf2 FFF7FEFF 		bl	__aeabi_ddiv
 3897 1cf6 031C     		mov	r3, r0
 3898 1cf8 0C1C     		mov	r4, r1
 3899 1cfa 181C     		mov	r0, r3
 3900 1cfc 211C     		mov	r1, r4
 3901 1cfe FFF7FEFF 		bl	__aeabi_d2f
 3902 1d02 031C     		add	r3, r0, #0
 3903 1d04 181C     		add	r0, r3, #0
 3904 1d06 FFF7FEFF 		bl	__aeabi_f2d
 3905 1d0a 031C     		mov	r3, r0
 3906 1d0c 0C1C     		mov	r4, r1
 3907 1d0e 181C     		mov	r0, r3
 3908 1d10 211C     		mov	r1, r4
 3909 1d12 9D4A     		ldr	r2, .L357+8
 3910 1d14 9D4B     		ldr	r3, .L357+12
 3911 1d16 FFF7FEFF 		bl	__aeabi_dadd
 3912 1d1a 031C     		mov	r3, r0
 3913 1d1c 0C1C     		mov	r4, r1
 3914 1d1e D422     		mov	r2, #212
 3915 1d20 9200     		lsl	r2, r2, #2
 3916 1d22 D219     		add	r2, r2, r7
 3917 1d24 1360     		str	r3, [r2]
 3918 1d26 5460     		str	r4, [r2, #4]
 365:../Sources/main.c **** 				if (grausaida > z)
 3919              		.loc 1 365 0
 3920 1d28 D423     		mov	r3, #212
 3921 1d2a 9B00     		lsl	r3, r3, #2
 3922 1d2c DB19     		add	r3, r3, r7
 3923 1d2e 1868     		ldr	r0, [r3]
 3924 1d30 5968     		ldr	r1, [r3, #4]
 3925 1d32 DC24     		mov	r4, #220
 3926 1d34 A400     		lsl	r4, r4, #2
 3927 1d36 E419     		add	r4, r4, r7
 3928 1d38 2268     		ldr	r2, [r4]
 3929 1d3a 6368     		ldr	r3, [r4, #4]
 3930 1d3c FFF7FEFF 		bl	__aeabi_dcmpgt
 3931 1d40 031C     		mov	r3, r0
 3932 1d42 002B     		cmp	r3, #0
 3933 1d44 09D0     		beq	.L147
 3934              	.L288:
 366:../Sources/main.c **** 					grausaida = z;
 3935              		.loc 1 366 0
 3936 1d46 DC21     		mov	r1, #220
 3937 1d48 8900     		lsl	r1, r1, #2
 3938 1d4a C919     		add	r1, r1, r7
 3939 1d4c 0B68     		ldr	r3, [r1]
 3940 1d4e 4C68     		ldr	r4, [r1, #4]
 3941 1d50 D422     		mov	r2, #212
 3942 1d52 9200     		lsl	r2, r2, #2
 3943 1d54 D219     		add	r2, r2, r7
 3944 1d56 1360     		str	r3, [r2]
 3945 1d58 5460     		str	r4, [r2, #4]
 3946              	.L147:
 367:../Sources/main.c **** 				if (area[i] <= grausaida)
 3947              		.loc 1 367 0
 3948 1d5a 934B     		ldr	r3, .L357+40
 3949 1d5c EC24     		mov	r4, #236
 3950 1d5e A400     		lsl	r4, r4, #2
 3951 1d60 E419     		add	r4, r4, r7
 3952 1d62 E218     		add	r2, r4, r3
 3953 1d64 EB21     		mov	r1, #235
 3954 1d66 8900     		lsl	r1, r1, #2
 3955 1d68 C919     		add	r1, r1, r7
 3956 1d6a 0B68     		ldr	r3, [r1]
 3957 1d6c DB00     		lsl	r3, r3, #3
 3958 1d6e D318     		add	r3, r2, r3
 3959 1d70 5C68     		ldr	r4, [r3, #4]
 3960 1d72 1B68     		ldr	r3, [r3]
 3961 1d74 181C     		mov	r0, r3
 3962 1d76 211C     		mov	r1, r4
 3963 1d78 D424     		mov	r4, #212
 3964 1d7a A400     		lsl	r4, r4, #2
 3965 1d7c E419     		add	r4, r4, r7
 3966 1d7e 2268     		ldr	r2, [r4]
 3967 1d80 6368     		ldr	r3, [r4, #4]
 3968 1d82 FFF7FEFF 		bl	__aeabi_dcmple
 3969 1d86 031C     		mov	r3, r0
 3970 1d88 002B     		cmp	r3, #0
 3971 1d8a 11D0     		beq	.L141
 3972              	.L289:
 368:../Sources/main.c **** 					area[i] = grausaida;
 3973              		.loc 1 368 0
 3974 1d8c 864B     		ldr	r3, .L357+40
 3975 1d8e EC21     		mov	r1, #236
 3976 1d90 8900     		lsl	r1, r1, #2
 3977 1d92 C919     		add	r1, r1, r7
 3978 1d94 CA18     		add	r2, r1, r3
 3979 1d96 EB24     		mov	r4, #235
 3980 1d98 A400     		lsl	r4, r4, #2
 3981 1d9a E419     		add	r4, r4, r7
 3982 1d9c 2368     		ldr	r3, [r4]
 3983 1d9e DB00     		lsl	r3, r3, #3
 3984 1da0 D218     		add	r2, r2, r3
 3985 1da2 D421     		mov	r1, #212
 3986 1da4 8900     		lsl	r1, r1, #2
 3987 1da6 C919     		add	r1, r1, r7
 3988 1da8 0B68     		ldr	r3, [r1]
 3989 1daa 4C68     		ldr	r4, [r1, #4]
 3990 1dac 1360     		str	r3, [r2]
 3991 1dae 5460     		str	r4, [r2, #4]
 3992              	.L141:
 369:../Sources/main.c **** 			}
 370:../Sources/main.c **** 			servang = servang + 10;
 3993              		.loc 1 370 0
 3994 1db0 D722     		mov	r2, #215
 3995 1db2 9200     		lsl	r2, r2, #2
 3996 1db4 D219     		add	r2, r2, r7
 3997 1db6 1368     		ldr	r3, [r2]
 3998 1db8 0A33     		add	r3, r3, #10
 3999 1dba D724     		mov	r4, #215
 4000 1dbc A400     		lsl	r4, r4, #2
 4001 1dbe E419     		add	r4, r4, r7
 4002 1dc0 2360     		str	r3, [r4]
 348:../Sources/main.c **** 		for (i = 0; i < 100; i++) {
 4003              		.loc 1 348 0
 4004 1dc2 EB21     		mov	r1, #235
 4005 1dc4 8900     		lsl	r1, r1, #2
 4006 1dc6 C919     		add	r1, r1, r7
 4007 1dc8 0B68     		ldr	r3, [r1]
 4008 1dca 0133     		add	r3, r3, #1
 4009 1dcc EB22     		mov	r2, #235
 4010 1dce 9200     		lsl	r2, r2, #2
 4011 1dd0 D219     		add	r2, r2, r7
 4012 1dd2 1360     		str	r3, [r2]
 4013              	.L138:
 348:../Sources/main.c **** 		for (i = 0; i < 100; i++) {
 4014              		.loc 1 348 0 is_stmt 0
 4015 1dd4 EB24     		mov	r4, #235
 4016 1dd6 A400     		lsl	r4, r4, #2
 4017 1dd8 E419     		add	r4, r4, r7
 4018 1dda 2368     		ldr	r3, [r4]
 4019 1ddc 632B     		cmp	r3, #99
 4020 1dde 00DC     		bgt	.LCB3487
 4021 1de0 BFE6     		b	.L150	@long jump
 4022              	.LCB3487:
 371:../Sources/main.c **** 		}
 372:../Sources/main.c **** 		servang = 1000;
 4023              		.loc 1 372 0 is_stmt 1
 4024 1de2 FA23     		mov	r3, #250
 4025 1de4 9B00     		lsl	r3, r3, #2
 4026 1de6 D721     		mov	r1, #215
 4027 1de8 8900     		lsl	r1, r1, #2
 4028 1dea C919     		add	r1, r1, r7
 4029 1dec 0B60     		str	r3, [r1]
 373:../Sources/main.c **** //---------- F e R ---------
 374:../Sources/main.c **** 		if (graur < grauf) {
 4030              		.loc 1 374 0
 4031 1dee C822     		mov	r2, #200
 4032 1df0 9200     		lsl	r2, r2, #2
 4033 1df2 D219     		add	r2, r2, r7
 4034 1df4 1368     		ldr	r3, [r2]
 4035 1df6 181C     		add	r0, r3, #0
 4036 1df8 FFF7FEFF 		bl	__aeabi_f2d
 4037 1dfc 031C     		mov	r3, r0
 4038 1dfe 0C1C     		mov	r4, r1
 4039 1e00 181C     		mov	r0, r3
 4040 1e02 211C     		mov	r1, r4
 4041 1e04 E624     		mov	r4, #230
 4042 1e06 A400     		lsl	r4, r4, #2
 4043 1e08 E419     		add	r4, r4, r7
 4044 1e0a 2268     		ldr	r2, [r4]
 4045 1e0c 6368     		ldr	r3, [r4, #4]
 4046 1e0e FFF7FEFF 		bl	__aeabi_dcmpgt
 4047 1e12 031C     		mov	r3, r0
 4048 1e14 002B     		cmp	r3, #0
 4049 1e16 0AD0     		beq	.L330
 4050              	.L290:
 375:../Sources/main.c **** 			ps = graur;
 4051              		.loc 1 375 0
 4052 1e18 E621     		mov	r1, #230
 4053 1e1a 8900     		lsl	r1, r1, #2
 4054 1e1c C919     		add	r1, r1, r7
 4055 1e1e 0B68     		ldr	r3, [r1]
 4056 1e20 4C68     		ldr	r4, [r1, #4]
 4057 1e22 DA22     		mov	r2, #218
 4058 1e24 9200     		lsl	r2, r2, #2
 4059 1e26 D219     		add	r2, r2, r7
 4060 1e28 1360     		str	r3, [r2]
 4061 1e2a 5460     		str	r4, [r2, #4]
 4062 1e2c 0DE0     		b	.L153
 4063              	.L330:
 376:../Sources/main.c **** 		} else
 377:../Sources/main.c **** 			ps = grauf;
 4064              		.loc 1 377 0
 4065 1e2e C824     		mov	r4, #200
 4066 1e30 A400     		lsl	r4, r4, #2
 4067 1e32 E419     		add	r4, r4, r7
 4068 1e34 2368     		ldr	r3, [r4]
 4069 1e36 181C     		add	r0, r3, #0
 4070 1e38 FFF7FEFF 		bl	__aeabi_f2d
 4071 1e3c 031C     		mov	r3, r0
 4072 1e3e 0C1C     		mov	r4, r1
 4073 1e40 DA21     		mov	r1, #218
 4074 1e42 8900     		lsl	r1, r1, #2
 4075 1e44 C919     		add	r1, r1, r7
 4076 1e46 0B60     		str	r3, [r1]
 4077 1e48 4C60     		str	r4, [r1, #4]
 4078              	.L153:
 378:../Sources/main.c **** 		for (i = 0; i < 100; i++) {
 4079              		.loc 1 378 0
 4080 1e4a 0023     		mov	r3, #0
 4081 1e4c EB22     		mov	r2, #235
 4082 1e4e 9200     		lsl	r2, r2, #2
 4083 1e50 D219     		add	r2, r2, r7
 4084 1e52 1360     		str	r3, [r2]
 4085 1e54 3BE1     		b	.L154
 4086              	.L166:
 379:../Sources/main.c **** 			if (servang < 1500 || servang > 1750) {
 4087              		.loc 1 379 0
 4088 1e56 D723     		mov	r3, #215
 4089 1e58 9B00     		lsl	r3, r3, #2
 4090 1e5a DB19     		add	r3, r3, r7
 4091 1e5c 1A68     		ldr	r2, [r3]
 4092 1e5e 504B     		ldr	r3, .L357+32
 4093 1e60 9A42     		cmp	r2, r3
 4094 1e62 06DD     		ble	.L155
 4095              		.loc 1 379 0 is_stmt 0
 4096 1e64 D724     		mov	r4, #215
 4097 1e66 A400     		lsl	r4, r4, #2
 4098 1e68 E419     		add	r4, r4, r7
 4099 1e6a 2268     		ldr	r2, [r4]
 4100 1e6c 4F4B     		ldr	r3, .L357+44
 4101 1e6e 9A42     		cmp	r2, r3
 4102 1e70 07DD     		ble	.L156
 4103              	.L155:
 380:../Sources/main.c **** 				grausaida = 0;
 4104              		.loc 1 380 0 is_stmt 1
 4105 1e72 474B     		ldr	r3, .L357+16
 4106 1e74 474C     		ldr	r4, .L357+20
 4107 1e76 D421     		mov	r1, #212
 4108 1e78 8900     		lsl	r1, r1, #2
 4109 1e7a C919     		add	r1, r1, r7
 4110 1e7c 0B60     		str	r3, [r1]
 4111 1e7e 4C60     		str	r4, [r1, #4]
 4112 1e80 13E1     		b	.L157
 4113              	.L156:
 381:../Sources/main.c **** 				//if(area[i]<=grausaida) area[i]=grausaida;
 382:../Sources/main.c **** 
 383:../Sources/main.c **** 			} else if (servang >= 1500 && servang <= 1625) {
 4114              		.loc 1 383 0
 4115 1e82 D723     		mov	r3, #215
 4116 1e84 9B00     		lsl	r3, r3, #2
 4117 1e86 DB19     		add	r3, r3, r7
 4118 1e88 1A68     		ldr	r2, [r3]
 4119 1e8a 454B     		ldr	r3, .L357+32
 4120 1e8c 9A42     		cmp	r2, r3
 4121 1e8e 00DC     		bgt	.LCB3578
 4122 1e90 8EE0     		b	.L158	@long jump
 4123              	.LCB3578:
 4124              		.loc 1 383 0 is_stmt 0
 4125 1e92 D724     		mov	r4, #215
 4126 1e94 A400     		lsl	r4, r4, #2
 4127 1e96 E419     		add	r4, r4, r7
 4128 1e98 2268     		ldr	r2, [r4]
 4129 1e9a 424B     		ldr	r3, .L357+36
 4130 1e9c 9A42     		cmp	r2, r3
 4131 1e9e 00DD     		ble	.LCB3585
 4132 1ea0 86E0     		b	.L158	@long jump
 4133              	.LCB3585:
 384:../Sources/main.c **** 
 385:../Sources/main.c **** 				grausaida = ((float) (servang / 125.0)) - (12.0); // reta f
 4134              		.loc 1 385 0 is_stmt 1
 4135 1ea2 D721     		mov	r1, #215
 4136 1ea4 8900     		lsl	r1, r1, #2
 4137 1ea6 C919     		add	r1, r1, r7
 4138 1ea8 0868     		ldr	r0, [r1]
 4139 1eaa FFF7FEFF 		bl	__aeabi_i2d
 4140 1eae 031C     		mov	r3, r0
 4141 1eb0 0C1C     		mov	r4, r1
 4142 1eb2 181C     		mov	r0, r3
 4143 1eb4 211C     		mov	r1, r4
 4144 1eb6 334B     		ldr	r3, .L357+4
 4145 1eb8 314A     		ldr	r2, .L357
 4146 1eba FFF7FEFF 		bl	__aeabi_ddiv
 4147 1ebe 031C     		mov	r3, r0
 4148 1ec0 0C1C     		mov	r4, r1
 4149 1ec2 181C     		mov	r0, r3
 4150 1ec4 211C     		mov	r1, r4
 4151 1ec6 FFF7FEFF 		bl	__aeabi_d2f
 4152 1eca 031C     		add	r3, r0, #0
 4153 1ecc 181C     		add	r0, r3, #0
 4154 1ece FFF7FEFF 		bl	__aeabi_f2d
 4155 1ed2 031C     		mov	r3, r0
 4156 1ed4 0C1C     		mov	r4, r1
 4157 1ed6 181C     		mov	r0, r3
 4158 1ed8 211C     		mov	r1, r4
 4159 1eda 2F4A     		ldr	r2, .L357+24
 4160 1edc 2F4B     		ldr	r3, .L357+28
 4161 1ede FFF7FEFF 		bl	__aeabi_dsub
 4162 1ee2 031C     		mov	r3, r0
 4163 1ee4 0C1C     		mov	r4, r1
 4164 1ee6 D422     		mov	r2, #212
 4165 1ee8 9200     		lsl	r2, r2, #2
 4166 1eea D219     		add	r2, r2, r7
 4167 1eec 1360     		str	r3, [r2]
 4168 1eee 5460     		str	r4, [r2, #4]
 386:../Sources/main.c **** 				if (grausaida > ps)
 4169              		.loc 1 386 0
 4170 1ef0 D423     		mov	r3, #212
 4171 1ef2 9B00     		lsl	r3, r3, #2
 4172 1ef4 DB19     		add	r3, r3, r7
 4173 1ef6 1868     		ldr	r0, [r3]
 4174 1ef8 5968     		ldr	r1, [r3, #4]
 4175 1efa DA24     		mov	r4, #218
 4176 1efc A400     		lsl	r4, r4, #2
 4177 1efe E419     		add	r4, r4, r7
 4178 1f00 2268     		ldr	r2, [r4]
 4179 1f02 6368     		ldr	r3, [r4, #4]
 4180 1f04 FFF7FEFF 		bl	__aeabi_dcmpgt
 4181 1f08 031C     		mov	r3, r0
 4182 1f0a 002B     		cmp	r3, #0
 4183 1f0c 09D0     		beq	.L159
 4184              	.L291:
 387:../Sources/main.c **** 					grausaida = ps;
 4185              		.loc 1 387 0
 4186 1f0e DA21     		mov	r1, #218
 4187 1f10 8900     		lsl	r1, r1, #2
 4188 1f12 C919     		add	r1, r1, r7
 4189 1f14 0B68     		ldr	r3, [r1]
 4190 1f16 4C68     		ldr	r4, [r1, #4]
 4191 1f18 D422     		mov	r2, #212
 4192 1f1a 9200     		lsl	r2, r2, #2
 4193 1f1c D219     		add	r2, r2, r7
 4194 1f1e 1360     		str	r3, [r2]
 4195 1f20 5460     		str	r4, [r2, #4]
 4196              	.L159:
 388:../Sources/main.c **** 				if (area[i] <= grausaida)
 4197              		.loc 1 388 0
 4198 1f22 214B     		ldr	r3, .L357+40
 4199 1f24 EC24     		mov	r4, #236
 4200 1f26 A400     		lsl	r4, r4, #2
 4201 1f28 E419     		add	r4, r4, r7
 4202 1f2a E218     		add	r2, r4, r3
 4203 1f2c EB21     		mov	r1, #235
 4204 1f2e 8900     		lsl	r1, r1, #2
 4205 1f30 C919     		add	r1, r1, r7
 4206 1f32 0B68     		ldr	r3, [r1]
 4207 1f34 DB00     		lsl	r3, r3, #3
 4208 1f36 D318     		add	r3, r2, r3
 4209 1f38 5C68     		ldr	r4, [r3, #4]
 4210 1f3a 1B68     		ldr	r3, [r3]
 4211 1f3c 181C     		mov	r0, r3
 4212 1f3e 211C     		mov	r1, r4
 4213 1f40 D424     		mov	r4, #212
 4214 1f42 A400     		lsl	r4, r4, #2
 4215 1f44 E419     		add	r4, r4, r7
 4216 1f46 2268     		ldr	r2, [r4]
 4217 1f48 6368     		ldr	r3, [r4, #4]
 4218 1f4a FFF7FEFF 		bl	__aeabi_dcmple
 4219 1f4e 031C     		mov	r3, r0
 4220 1f50 002B     		cmp	r3, #0
 4221 1f52 00D1     		bne	.LCB3661
 4222 1f54 A9E0     		b	.L157	@long jump
 4223              	.LCB3661:
 4224              	.L292:
 389:../Sources/main.c **** 					area[i] = grausaida;
 4225              		.loc 1 389 0
 4226 1f56 144B     		ldr	r3, .L357+40
 4227 1f58 EC21     		mov	r1, #236
 4228 1f5a 8900     		lsl	r1, r1, #2
 4229 1f5c C919     		add	r1, r1, r7
 4230 1f5e CA18     		add	r2, r1, r3
 4231 1f60 EB24     		mov	r4, #235
 4232 1f62 A400     		lsl	r4, r4, #2
 4233 1f64 E419     		add	r4, r4, r7
 4234 1f66 2368     		ldr	r3, [r4]
 4235 1f68 DB00     		lsl	r3, r3, #3
 4236 1f6a D218     		add	r2, r2, r3
 4237 1f6c D421     		mov	r1, #212
 4238 1f6e 8900     		lsl	r1, r1, #2
 4239 1f70 C919     		add	r1, r1, r7
 4240 1f72 0B68     		ldr	r3, [r1]
 4241 1f74 4C68     		ldr	r4, [r1, #4]
 4242 1f76 1360     		str	r3, [r2]
 4243 1f78 5460     		str	r4, [r2, #4]
 388:../Sources/main.c **** 				if (area[i] <= grausaida)
 4244              		.loc 1 388 0
 4245 1f7a 96E0     		b	.L157
 4246              	.L358:
 4247 1f7c C046C046 		.align	3
 4248              	.L357:
 4249 1f80 00000000 		.word	0
 4250 1f84 00405F40 		.word	1079984128
 4251 1f88 00000000 		.word	0
 4252 1f8c 00002A40 		.word	1076494336
 4253 1f90 00000000 		.word	0
 4254 1f94 00000000 		.word	0
 4255 1f98 00000000 		.word	0
 4256 1f9c 00002840 		.word	1076363264
 4257 1fa0 DB050000 		.word	1499
 4258 1fa4 59060000 		.word	1625
 4259 1fa8 50FCFFFF 		.word	-944
 4260 1fac D6060000 		.word	1750
 4261              	.L158:
 390:../Sources/main.c **** 			}
 391:../Sources/main.c **** 
 392:../Sources/main.c **** 			else if (servang >= 1625 && servang <= 1750) {
 4262              		.loc 1 392 0
 4263 1fb0 D723     		mov	r3, #215
 4264 1fb2 9B00     		lsl	r3, r3, #2
 4265 1fb4 DB19     		add	r3, r3, r7
 4266 1fb6 1A68     		ldr	r2, [r3]
 4267 1fb8 CB23     		mov	r3, #203
 4268 1fba DB00     		lsl	r3, r3, #3
 4269 1fbc 9A42     		cmp	r2, r3
 4270 1fbe 00DC     		bgt	.LCB3703
 4271 1fc0 73E0     		b	.L157	@long jump
 4272              	.LCB3703:
 4273              		.loc 1 392 0 is_stmt 0
 4274 1fc2 D724     		mov	r4, #215
 4275 1fc4 A400     		lsl	r4, r4, #2
 4276 1fc6 E419     		add	r4, r4, r7
 4277 1fc8 2268     		ldr	r2, [r4]
 4278 1fca 8F4B     		ldr	r3, .L359+24
 4279 1fcc 9A42     		cmp	r2, r3
 4280 1fce 6CDC     		bgt	.L157
 393:../Sources/main.c **** 
 394:../Sources/main.c **** 				grausaida = ((float) (-servang / 125.0)) + (14.0); //reta g
 4281              		.loc 1 394 0 is_stmt 1
 4282 1fd0 D721     		mov	r1, #215
 4283 1fd2 8900     		lsl	r1, r1, #2
 4284 1fd4 C919     		add	r1, r1, r7
 4285 1fd6 0B68     		ldr	r3, [r1]
 4286 1fd8 5B42     		neg	r3, r3
 4287 1fda 181C     		mov	r0, r3
 4288 1fdc FFF7FEFF 		bl	__aeabi_i2d
 4289 1fe0 031C     		mov	r3, r0
 4290 1fe2 0C1C     		mov	r4, r1
 4291 1fe4 181C     		mov	r0, r3
 4292 1fe6 211C     		mov	r1, r4
 4293 1fe8 824B     		ldr	r3, .L359+4
 4294 1fea 814A     		ldr	r2, .L359
 4295 1fec FFF7FEFF 		bl	__aeabi_ddiv
 4296 1ff0 031C     		mov	r3, r0
 4297 1ff2 0C1C     		mov	r4, r1
 4298 1ff4 181C     		mov	r0, r3
 4299 1ff6 211C     		mov	r1, r4
 4300 1ff8 FFF7FEFF 		bl	__aeabi_d2f
 4301 1ffc 031C     		add	r3, r0, #0
 4302 1ffe 181C     		add	r0, r3, #0
 4303 2000 FFF7FEFF 		bl	__aeabi_f2d
 4304 2004 031C     		mov	r3, r0
 4305 2006 0C1C     		mov	r4, r1
 4306 2008 181C     		mov	r0, r3
 4307 200a 211C     		mov	r1, r4
 4308 200c 7A4A     		ldr	r2, .L359+8
 4309 200e 7B4B     		ldr	r3, .L359+12
 4310 2010 FFF7FEFF 		bl	__aeabi_dadd
 4311 2014 031C     		mov	r3, r0
 4312 2016 0C1C     		mov	r4, r1
 4313 2018 D422     		mov	r2, #212
 4314 201a 9200     		lsl	r2, r2, #2
 4315 201c D219     		add	r2, r2, r7
 4316 201e 1360     		str	r3, [r2]
 4317 2020 5460     		str	r4, [r2, #4]
 395:../Sources/main.c **** 				if (grausaida > ps)
 4318              		.loc 1 395 0
 4319 2022 D423     		mov	r3, #212
 4320 2024 9B00     		lsl	r3, r3, #2
 4321 2026 DB19     		add	r3, r3, r7
 4322 2028 1868     		ldr	r0, [r3]
 4323 202a 5968     		ldr	r1, [r3, #4]
 4324 202c DA24     		mov	r4, #218
 4325 202e A400     		lsl	r4, r4, #2
 4326 2030 E419     		add	r4, r4, r7
 4327 2032 2268     		ldr	r2, [r4]
 4328 2034 6368     		ldr	r3, [r4, #4]
 4329 2036 FFF7FEFF 		bl	__aeabi_dcmpgt
 4330 203a 031C     		mov	r3, r0
 4331 203c 002B     		cmp	r3, #0
 4332 203e 09D0     		beq	.L163
 4333              	.L293:
 396:../Sources/main.c **** 					grausaida = ps;
 4334              		.loc 1 396 0
 4335 2040 DA21     		mov	r1, #218
 4336 2042 8900     		lsl	r1, r1, #2
 4337 2044 C919     		add	r1, r1, r7
 4338 2046 0B68     		ldr	r3, [r1]
 4339 2048 4C68     		ldr	r4, [r1, #4]
 4340 204a D422     		mov	r2, #212
 4341 204c 9200     		lsl	r2, r2, #2
 4342 204e D219     		add	r2, r2, r7
 4343 2050 1360     		str	r3, [r2]
 4344 2052 5460     		str	r4, [r2, #4]
 4345              	.L163:
 397:../Sources/main.c **** 				if (area[i] <= grausaida)
 4346              		.loc 1 397 0
 4347 2054 6D4B     		ldr	r3, .L359+28
 4348 2056 EC24     		mov	r4, #236
 4349 2058 A400     		lsl	r4, r4, #2
 4350 205a E419     		add	r4, r4, r7
 4351 205c E218     		add	r2, r4, r3
 4352 205e EB21     		mov	r1, #235
 4353 2060 8900     		lsl	r1, r1, #2
 4354 2062 C919     		add	r1, r1, r7
 4355 2064 0B68     		ldr	r3, [r1]
 4356 2066 DB00     		lsl	r3, r3, #3
 4357 2068 D318     		add	r3, r2, r3
 4358 206a 5C68     		ldr	r4, [r3, #4]
 4359 206c 1B68     		ldr	r3, [r3]
 4360 206e 181C     		mov	r0, r3
 4361 2070 211C     		mov	r1, r4
 4362 2072 D424     		mov	r4, #212
 4363 2074 A400     		lsl	r4, r4, #2
 4364 2076 E419     		add	r4, r4, r7
 4365 2078 2268     		ldr	r2, [r4]
 4366 207a 6368     		ldr	r3, [r4, #4]
 4367 207c FFF7FEFF 		bl	__aeabi_dcmple
 4368 2080 031C     		mov	r3, r0
 4369 2082 002B     		cmp	r3, #0
 4370 2084 11D0     		beq	.L157
 4371              	.L294:
 398:../Sources/main.c **** 					area[i] = grausaida;
 4372              		.loc 1 398 0
 4373 2086 614B     		ldr	r3, .L359+28
 4374 2088 EC21     		mov	r1, #236
 4375 208a 8900     		lsl	r1, r1, #2
 4376 208c C919     		add	r1, r1, r7
 4377 208e CA18     		add	r2, r1, r3
 4378 2090 EB24     		mov	r4, #235
 4379 2092 A400     		lsl	r4, r4, #2
 4380 2094 E419     		add	r4, r4, r7
 4381 2096 2368     		ldr	r3, [r4]
 4382 2098 DB00     		lsl	r3, r3, #3
 4383 209a D218     		add	r2, r2, r3
 4384 209c D421     		mov	r1, #212
 4385 209e 8900     		lsl	r1, r1, #2
 4386 20a0 C919     		add	r1, r1, r7
 4387 20a2 0B68     		ldr	r3, [r1]
 4388 20a4 4C68     		ldr	r4, [r1, #4]
 4389 20a6 1360     		str	r3, [r2]
 4390 20a8 5460     		str	r4, [r2, #4]
 4391              	.L157:
 399:../Sources/main.c **** 			}
 400:../Sources/main.c **** 			servang = servang + 10;
 4392              		.loc 1 400 0
 4393 20aa D722     		mov	r2, #215
 4394 20ac 9200     		lsl	r2, r2, #2
 4395 20ae D219     		add	r2, r2, r7
 4396 20b0 1368     		ldr	r3, [r2]
 4397 20b2 0A33     		add	r3, r3, #10
 4398 20b4 D724     		mov	r4, #215
 4399 20b6 A400     		lsl	r4, r4, #2
 4400 20b8 E419     		add	r4, r4, r7
 4401 20ba 2360     		str	r3, [r4]
 378:../Sources/main.c **** 		for (i = 0; i < 100; i++) {
 4402              		.loc 1 378 0
 4403 20bc EB21     		mov	r1, #235
 4404 20be 8900     		lsl	r1, r1, #2
 4405 20c0 C919     		add	r1, r1, r7
 4406 20c2 0B68     		ldr	r3, [r1]
 4407 20c4 0133     		add	r3, r3, #1
 4408 20c6 EB22     		mov	r2, #235
 4409 20c8 9200     		lsl	r2, r2, #2
 4410 20ca D219     		add	r2, r2, r7
 4411 20cc 1360     		str	r3, [r2]
 4412              	.L154:
 378:../Sources/main.c **** 		for (i = 0; i < 100; i++) {
 4413              		.loc 1 378 0 is_stmt 0
 4414 20ce EB24     		mov	r4, #235
 4415 20d0 A400     		lsl	r4, r4, #2
 4416 20d2 E419     		add	r4, r4, r7
 4417 20d4 2368     		ldr	r3, [r4]
 4418 20d6 632B     		cmp	r3, #99
 4419 20d8 00DC     		bgt	.LCB3833
 4420 20da BCE6     		b	.L166	@long jump
 4421              	.LCB3833:
 401:../Sources/main.c **** 		}
 402:../Sources/main.c **** 		servang = 1000;
 4422              		.loc 1 402 0 is_stmt 1
 4423 20dc FA23     		mov	r3, #250
 4424 20de 9B00     		lsl	r3, r3, #2
 4425 20e0 D721     		mov	r1, #215
 4426 20e2 8900     		lsl	r1, r1, #2
 4427 20e4 C919     		add	r1, r1, r7
 4428 20e6 0B60     		str	r3, [r1]
 403:../Sources/main.c **** //---------- F e VR ---------
 404:../Sources/main.c **** 		if (grauvr < grauf) {
 4429              		.loc 1 404 0
 4430 20e8 C822     		mov	r2, #200
 4431 20ea 9200     		lsl	r2, r2, #2
 4432 20ec D219     		add	r2, r2, r7
 4433 20ee 1368     		ldr	r3, [r2]
 4434 20f0 181C     		add	r0, r3, #0
 4435 20f2 FFF7FEFF 		bl	__aeabi_f2d
 4436 20f6 031C     		mov	r3, r0
 4437 20f8 0C1C     		mov	r4, r1
 4438 20fa 181C     		mov	r0, r3
 4439 20fc 211C     		mov	r1, r4
 4440 20fe E424     		mov	r4, #228
 4441 2100 A400     		lsl	r4, r4, #2
 4442 2102 E419     		add	r4, r4, r7
 4443 2104 2268     		ldr	r2, [r4]
 4444 2106 6368     		ldr	r3, [r4, #4]
 4445 2108 FFF7FEFF 		bl	__aeabi_dcmpgt
 4446 210c 031C     		mov	r3, r0
 4447 210e 002B     		cmp	r3, #0
 4448 2110 0AD0     		beq	.L331
 4449              	.L295:
 405:../Sources/main.c **** 			pb = grauvr;
 4450              		.loc 1 405 0
 4451 2112 E421     		mov	r1, #228
 4452 2114 8900     		lsl	r1, r1, #2
 4453 2116 C919     		add	r1, r1, r7
 4454 2118 0B68     		ldr	r3, [r1]
 4455 211a 4C68     		ldr	r4, [r1, #4]
 4456 211c D822     		mov	r2, #216
 4457 211e 9200     		lsl	r2, r2, #2
 4458 2120 D219     		add	r2, r2, r7
 4459 2122 1360     		str	r3, [r2]
 4460 2124 5460     		str	r4, [r2, #4]
 4461 2126 0DE0     		b	.L169
 4462              	.L331:
 406:../Sources/main.c **** 		} else
 407:../Sources/main.c **** 			pb = grauf;
 4463              		.loc 1 407 0
 4464 2128 C824     		mov	r4, #200
 4465 212a A400     		lsl	r4, r4, #2
 4466 212c E419     		add	r4, r4, r7
 4467 212e 2368     		ldr	r3, [r4]
 4468 2130 181C     		add	r0, r3, #0
 4469 2132 FFF7FEFF 		bl	__aeabi_f2d
 4470 2136 031C     		mov	r3, r0
 4471 2138 0C1C     		mov	r4, r1
 4472 213a D821     		mov	r1, #216
 4473 213c 8900     		lsl	r1, r1, #2
 4474 213e C919     		add	r1, r1, r7
 4475 2140 0B60     		str	r3, [r1]
 4476 2142 4C60     		str	r4, [r1, #4]
 4477              	.L169:
 408:../Sources/main.c **** 
 409:../Sources/main.c **** 		for (i = 0; i < 100; i++) {
 4478              		.loc 1 409 0
 4479 2144 0023     		mov	r3, #0
 4480 2146 EB22     		mov	r2, #235
 4481 2148 9200     		lsl	r2, r2, #2
 4482 214a D219     		add	r2, r2, r7
 4483 214c 1360     		str	r3, [r2]
 4484 214e E8E0     		b	.L170
 4485              	.L178:
 410:../Sources/main.c **** 			if (servang > 1750) {
 4486              		.loc 1 410 0
 4487 2150 D723     		mov	r3, #215
 4488 2152 9B00     		lsl	r3, r3, #2
 4489 2154 DB19     		add	r3, r3, r7
 4490 2156 1A68     		ldr	r2, [r3]
 4491 2158 2B4B     		ldr	r3, .L359+24
 4492 215a 9A42     		cmp	r2, r3
 4493 215c 36DD     		ble	.L171
 411:../Sources/main.c **** 				grausaida = pb;
 4494              		.loc 1 411 0
 4495 215e D821     		mov	r1, #216
 4496 2160 8900     		lsl	r1, r1, #2
 4497 2162 C919     		add	r1, r1, r7
 4498 2164 0B68     		ldr	r3, [r1]
 4499 2166 4C68     		ldr	r4, [r1, #4]
 4500 2168 D422     		mov	r2, #212
 4501 216a 9200     		lsl	r2, r2, #2
 4502 216c D219     		add	r2, r2, r7
 4503 216e 1360     		str	r3, [r2]
 4504 2170 5460     		str	r4, [r2, #4]
 412:../Sources/main.c **** 
 413:../Sources/main.c **** 				if (area[i] <= grausaida)
 4505              		.loc 1 413 0
 4506 2172 264B     		ldr	r3, .L359+28
 4507 2174 EC24     		mov	r4, #236
 4508 2176 A400     		lsl	r4, r4, #2
 4509 2178 E419     		add	r4, r4, r7
 4510 217a E218     		add	r2, r4, r3
 4511 217c EB21     		mov	r1, #235
 4512 217e 8900     		lsl	r1, r1, #2
 4513 2180 C919     		add	r1, r1, r7
 4514 2182 0B68     		ldr	r3, [r1]
 4515 2184 DB00     		lsl	r3, r3, #3
 4516 2186 D318     		add	r3, r2, r3
 4517 2188 5C68     		ldr	r4, [r3, #4]
 4518 218a 1B68     		ldr	r3, [r3]
 4519 218c 181C     		mov	r0, r3
 4520 218e 211C     		mov	r1, r4
 4521 2190 D424     		mov	r4, #212
 4522 2192 A400     		lsl	r4, r4, #2
 4523 2194 E419     		add	r4, r4, r7
 4524 2196 2268     		ldr	r2, [r4]
 4525 2198 6368     		ldr	r3, [r4, #4]
 4526 219a FFF7FEFF 		bl	__aeabi_dcmple
 4527 219e 031C     		mov	r3, r0
 4528 21a0 002B     		cmp	r3, #0
 4529 21a2 00D1     		bne	.LCB3930
 4530 21a4 ABE0     		b	.L172	@long jump
 4531              	.LCB3930:
 4532              	.L296:
 414:../Sources/main.c **** 					area[i] = grausaida;
 4533              		.loc 1 414 0
 4534 21a6 194B     		ldr	r3, .L359+28
 4535 21a8 EC21     		mov	r1, #236
 4536 21aa 8900     		lsl	r1, r1, #2
 4537 21ac C919     		add	r1, r1, r7
 4538 21ae CA18     		add	r2, r1, r3
 4539 21b0 EB24     		mov	r4, #235
 4540 21b2 A400     		lsl	r4, r4, #2
 4541 21b4 E419     		add	r4, r4, r7
 4542 21b6 2368     		ldr	r3, [r4]
 4543 21b8 DB00     		lsl	r3, r3, #3
 4544 21ba D218     		add	r2, r2, r3
 4545 21bc D421     		mov	r1, #212
 4546 21be 8900     		lsl	r1, r1, #2
 4547 21c0 C919     		add	r1, r1, r7
 4548 21c2 0B68     		ldr	r3, [r1]
 4549 21c4 4C68     		ldr	r4, [r1, #4]
 4550 21c6 1360     		str	r3, [r2]
 4551 21c8 5460     		str	r4, [r2, #4]
 4552 21ca 98E0     		b	.L172
 4553              	.L171:
 415:../Sources/main.c **** 
 416:../Sources/main.c **** 			} else if (servang < 1625) {
 4554              		.loc 1 416 0
 4555 21cc D723     		mov	r3, #215
 4556 21ce 9B00     		lsl	r3, r3, #2
 4557 21d0 DB19     		add	r3, r3, r7
 4558 21d2 1A68     		ldr	r2, [r3]
 4559 21d4 CB23     		mov	r3, #203
 4560 21d6 DB00     		lsl	r3, r3, #3
 4561 21d8 9A42     		cmp	r2, r3
 4562 21da 19DC     		bgt	.L174
 417:../Sources/main.c **** 				grausaida = 0;
 4563              		.loc 1 417 0
 4564 21dc 084B     		ldr	r3, .L359+16
 4565 21de 094C     		ldr	r4, .L359+20
 4566 21e0 D421     		mov	r1, #212
 4567 21e2 8900     		lsl	r1, r1, #2
 4568 21e4 C919     		add	r1, r1, r7
 4569 21e6 0B60     		str	r3, [r1]
 4570 21e8 4C60     		str	r4, [r1, #4]
 4571 21ea 88E0     		b	.L172
 4572              	.L360:
 4573 21ec C046C046 		.align	3
 4574              	.L359:
 4575 21f0 00000000 		.word	0
 4576 21f4 00405F40 		.word	1079984128
 4577 21f8 00000000 		.word	0
 4578 21fc 00002C40 		.word	1076625408
 4579 2200 00000000 		.word	0
 4580 2204 00000000 		.word	0
 4581 2208 D6060000 		.word	1750
 4582 220c 50FCFFFF 		.word	-944
 4583              	.L174:
 418:../Sources/main.c **** 			} else if (servang >= 1625 && servang <= 1750) {
 4584              		.loc 1 418 0
 4585 2210 D723     		mov	r3, #215
 4586 2212 9B00     		lsl	r3, r3, #2
 4587 2214 DB19     		add	r3, r3, r7
 4588 2216 1A68     		ldr	r2, [r3]
 4589 2218 CB23     		mov	r3, #203
 4590 221a DB00     		lsl	r3, r3, #3
 4591 221c 9A42     		cmp	r2, r3
 4592 221e 6EDD     		ble	.L172
 4593              		.loc 1 418 0 is_stmt 0
 4594 2220 D724     		mov	r4, #215
 4595 2222 A400     		lsl	r4, r4, #2
 4596 2224 E419     		add	r4, r4, r7
 4597 2226 2268     		ldr	r2, [r4]
 4598 2228 854B     		ldr	r3, .L361+16
 4599 222a 9A42     		cmp	r2, r3
 4600 222c 67DC     		bgt	.L172
 419:../Sources/main.c **** 				grausaida = ((float) (servang / 125.0)) - ((float) 13.0); // reta h
 4601              		.loc 1 419 0 is_stmt 1
 4602 222e D721     		mov	r1, #215
 4603 2230 8900     		lsl	r1, r1, #2
 4604 2232 C919     		add	r1, r1, r7
 4605 2234 0868     		ldr	r0, [r1]
 4606 2236 FFF7FEFF 		bl	__aeabi_i2d
 4607 223a 031C     		mov	r3, r0
 4608 223c 0C1C     		mov	r4, r1
 4609 223e 181C     		mov	r0, r3
 4610 2240 211C     		mov	r1, r4
 4611 2242 7C4B     		ldr	r3, .L361+4
 4612 2244 7A4A     		ldr	r2, .L361
 4613 2246 FFF7FEFF 		bl	__aeabi_ddiv
 4614 224a 031C     		mov	r3, r0
 4615 224c 0C1C     		mov	r4, r1
 4616 224e 181C     		mov	r0, r3
 4617 2250 211C     		mov	r1, r4
 4618 2252 FFF7FEFF 		bl	__aeabi_d2f
 4619 2256 031C     		add	r3, r0, #0
 4620 2258 181C     		add	r0, r3, #0
 4621 225a 7A49     		ldr	r1, .L361+20
 4622 225c FFF7FEFF 		bl	__aeabi_fsub
 4623 2260 031C     		add	r3, r0, #0
 4624 2262 181C     		add	r0, r3, #0
 4625 2264 FFF7FEFF 		bl	__aeabi_f2d
 4626 2268 031C     		mov	r3, r0
 4627 226a 0C1C     		mov	r4, r1
 4628 226c D422     		mov	r2, #212
 4629 226e 9200     		lsl	r2, r2, #2
 4630 2270 D219     		add	r2, r2, r7
 4631 2272 1360     		str	r3, [r2]
 4632 2274 5460     		str	r4, [r2, #4]
 420:../Sources/main.c **** 				if (grausaida > pb)
 4633              		.loc 1 420 0
 4634 2276 D423     		mov	r3, #212
 4635 2278 9B00     		lsl	r3, r3, #2
 4636 227a DB19     		add	r3, r3, r7
 4637 227c 1868     		ldr	r0, [r3]
 4638 227e 5968     		ldr	r1, [r3, #4]
 4639 2280 D824     		mov	r4, #216
 4640 2282 A400     		lsl	r4, r4, #2
 4641 2284 E419     		add	r4, r4, r7
 4642 2286 2268     		ldr	r2, [r4]
 4643 2288 6368     		ldr	r3, [r4, #4]
 4644 228a FFF7FEFF 		bl	__aeabi_dcmpgt
 4645 228e 031C     		mov	r3, r0
 4646 2290 002B     		cmp	r3, #0
 4647 2292 09D0     		beq	.L175
 4648              	.L297:
 421:../Sources/main.c **** 					grausaida = pb;
 4649              		.loc 1 421 0
 4650 2294 D821     		mov	r1, #216
 4651 2296 8900     		lsl	r1, r1, #2
 4652 2298 C919     		add	r1, r1, r7
 4653 229a 0B68     		ldr	r3, [r1]
 4654 229c 4C68     		ldr	r4, [r1, #4]
 4655 229e D422     		mov	r2, #212
 4656 22a0 9200     		lsl	r2, r2, #2
 4657 22a2 D219     		add	r2, r2, r7
 4658 22a4 1360     		str	r3, [r2]
 4659 22a6 5460     		str	r4, [r2, #4]
 4660              	.L175:
 422:../Sources/main.c **** 				if (area[i] <= grausaida)
 4661              		.loc 1 422 0
 4662 22a8 674B     		ldr	r3, .L361+24
 4663 22aa EC24     		mov	r4, #236
 4664 22ac A400     		lsl	r4, r4, #2
 4665 22ae E419     		add	r4, r4, r7
 4666 22b0 E218     		add	r2, r4, r3
 4667 22b2 EB21     		mov	r1, #235
 4668 22b4 8900     		lsl	r1, r1, #2
 4669 22b6 C919     		add	r1, r1, r7
 4670 22b8 0B68     		ldr	r3, [r1]
 4671 22ba DB00     		lsl	r3, r3, #3
 4672 22bc D318     		add	r3, r2, r3
 4673 22be 5C68     		ldr	r4, [r3, #4]
 4674 22c0 1B68     		ldr	r3, [r3]
 4675 22c2 181C     		mov	r0, r3
 4676 22c4 211C     		mov	r1, r4
 4677 22c6 D424     		mov	r4, #212
 4678 22c8 A400     		lsl	r4, r4, #2
 4679 22ca E419     		add	r4, r4, r7
 4680 22cc 2268     		ldr	r2, [r4]
 4681 22ce 6368     		ldr	r3, [r4, #4]
 4682 22d0 FFF7FEFF 		bl	__aeabi_dcmple
 4683 22d4 031C     		mov	r3, r0
 4684 22d6 002B     		cmp	r3, #0
 4685 22d8 11D0     		beq	.L172
 4686              	.L298:
 423:../Sources/main.c **** 					area[i] = grausaida;
 4687              		.loc 1 423 0
 4688 22da 5B4B     		ldr	r3, .L361+24
 4689 22dc EC21     		mov	r1, #236
 4690 22de 8900     		lsl	r1, r1, #2
 4691 22e0 C919     		add	r1, r1, r7
 4692 22e2 CA18     		add	r2, r1, r3
 4693 22e4 EB24     		mov	r4, #235
 4694 22e6 A400     		lsl	r4, r4, #2
 4695 22e8 E419     		add	r4, r4, r7
 4696 22ea 2368     		ldr	r3, [r4]
 4697 22ec DB00     		lsl	r3, r3, #3
 4698 22ee D218     		add	r2, r2, r3
 4699 22f0 D421     		mov	r1, #212
 4700 22f2 8900     		lsl	r1, r1, #2
 4701 22f4 C919     		add	r1, r1, r7
 4702 22f6 0B68     		ldr	r3, [r1]
 4703 22f8 4C68     		ldr	r4, [r1, #4]
 4704 22fa 1360     		str	r3, [r2]
 4705 22fc 5460     		str	r4, [r2, #4]
 4706              	.L172:
 424:../Sources/main.c **** 			}
 425:../Sources/main.c **** 
 426:../Sources/main.c **** 			servang = servang + 10;
 4707              		.loc 1 426 0
 4708 22fe D722     		mov	r2, #215
 4709 2300 9200     		lsl	r2, r2, #2
 4710 2302 D219     		add	r2, r2, r7
 4711 2304 1368     		ldr	r3, [r2]
 4712 2306 0A33     		add	r3, r3, #10
 4713 2308 D724     		mov	r4, #215
 4714 230a A400     		lsl	r4, r4, #2
 4715 230c E419     		add	r4, r4, r7
 4716 230e 2360     		str	r3, [r4]
 409:../Sources/main.c **** 		for (i = 0; i < 100; i++) {
 4717              		.loc 1 409 0
 4718 2310 EB21     		mov	r1, #235
 4719 2312 8900     		lsl	r1, r1, #2
 4720 2314 C919     		add	r1, r1, r7
 4721 2316 0B68     		ldr	r3, [r1]
 4722 2318 0133     		add	r3, r3, #1
 4723 231a EB22     		mov	r2, #235
 4724 231c 9200     		lsl	r2, r2, #2
 4725 231e D219     		add	r2, r2, r7
 4726 2320 1360     		str	r3, [r2]
 4727              	.L170:
 409:../Sources/main.c **** 		for (i = 0; i < 100; i++) {
 4728              		.loc 1 409 0 is_stmt 0
 4729 2322 EB24     		mov	r4, #235
 4730 2324 A400     		lsl	r4, r4, #2
 4731 2326 E419     		add	r4, r4, r7
 4732 2328 2368     		ldr	r3, [r4]
 4733 232a 632B     		cmp	r3, #99
 4734 232c 00DC     		bgt	.LCB4112
 4735 232e 0FE7     		b	.L178	@long jump
 4736              	.LCB4112:
 427:../Sources/main.c **** 		}
 428:../Sources/main.c **** 		servang = 1000;
 4737              		.loc 1 428 0 is_stmt 1
 4738 2330 FA23     		mov	r3, #250
 4739 2332 9B00     		lsl	r3, r3, #2
 4740 2334 D721     		mov	r1, #215
 4741 2336 8900     		lsl	r1, r1, #2
 4742 2338 C919     		add	r1, r1, r7
 4743 233a 0B60     		str	r3, [r1]
 429:../Sources/main.c **** //--------- R e VL -----------
 430:../Sources/main.c **** 		if (grauvl < graura) {
 4744              		.loc 1 430 0
 4745 233c E822     		mov	r2, #232
 4746 233e 9200     		lsl	r2, r2, #2
 4747 2340 D219     		add	r2, r2, r7
 4748 2342 1068     		ldr	r0, [r2]
 4749 2344 5168     		ldr	r1, [r2, #4]
 4750 2346 E224     		mov	r4, #226
 4751 2348 A400     		lsl	r4, r4, #2
 4752 234a E419     		add	r4, r4, r7
 4753 234c 2268     		ldr	r2, [r4]
 4754 234e 6368     		ldr	r3, [r4, #4]
 4755 2350 FFF7FEFF 		bl	__aeabi_dcmplt
 4756 2354 031C     		mov	r3, r0
 4757 2356 002B     		cmp	r3, #0
 4758 2358 0AD0     		beq	.L332
 4759              	.L299:
 431:../Sources/main.c **** 			nb = grauvl;
 4760              		.loc 1 431 0
 4761 235a E821     		mov	r1, #232
 4762 235c 8900     		lsl	r1, r1, #2
 4763 235e C919     		add	r1, r1, r7
 4764 2360 0B68     		ldr	r3, [r1]
 4765 2362 4C68     		ldr	r4, [r1, #4]
 4766 2364 DE22     		mov	r2, #222
 4767 2366 9200     		lsl	r2, r2, #2
 4768 2368 D219     		add	r2, r2, r7
 4769 236a 1360     		str	r3, [r2]
 4770 236c 5460     		str	r4, [r2, #4]
 4771 236e 09E0     		b	.L181
 4772              	.L332:
 432:../Sources/main.c **** 		} else
 433:../Sources/main.c **** 			nb = graura;
 4773              		.loc 1 433 0
 4774 2370 E221     		mov	r1, #226
 4775 2372 8900     		lsl	r1, r1, #2
 4776 2374 C919     		add	r1, r1, r7
 4777 2376 0B68     		ldr	r3, [r1]
 4778 2378 4C68     		ldr	r4, [r1, #4]
 4779 237a DE22     		mov	r2, #222
 4780 237c 9200     		lsl	r2, r2, #2
 4781 237e D219     		add	r2, r2, r7
 4782 2380 1360     		str	r3, [r2]
 4783 2382 5460     		str	r4, [r2, #4]
 4784              	.L181:
 434:../Sources/main.c **** 
 435:../Sources/main.c **** 		for (i = 0; i < 100; i++) {
 4785              		.loc 1 435 0
 4786 2384 0023     		mov	r3, #0
 4787 2386 EB24     		mov	r4, #235
 4788 2388 A400     		lsl	r4, r4, #2
 4789 238a E419     		add	r4, r4, r7
 4790 238c 2360     		str	r3, [r4]
 4791 238e ECE0     		b	.L182
 4792              	.L190:
 436:../Sources/main.c **** 			if (servang < 1250) {
 4793              		.loc 1 436 0
 4794 2390 D721     		mov	r1, #215
 4795 2392 8900     		lsl	r1, r1, #2
 4796 2394 C919     		add	r1, r1, r7
 4797 2396 0A68     		ldr	r2, [r1]
 4798 2398 2C4B     		ldr	r3, .L361+28
 4799 239a 9A42     		cmp	r2, r3
 4800 239c 36DC     		bgt	.L183
 437:../Sources/main.c **** 				grausaida = nb;
 4801              		.loc 1 437 0
 4802 239e DE22     		mov	r2, #222
 4803 23a0 9200     		lsl	r2, r2, #2
 4804 23a2 D219     		add	r2, r2, r7
 4805 23a4 1368     		ldr	r3, [r2]
 4806 23a6 5468     		ldr	r4, [r2, #4]
 4807 23a8 D421     		mov	r1, #212
 4808 23aa 8900     		lsl	r1, r1, #2
 4809 23ac C919     		add	r1, r1, r7
 4810 23ae 0B60     		str	r3, [r1]
 4811 23b0 4C60     		str	r4, [r1, #4]
 438:../Sources/main.c **** 				if (area[i] <= grausaida)
 4812              		.loc 1 438 0
 4813 23b2 254B     		ldr	r3, .L361+24
 4814 23b4 EC24     		mov	r4, #236
 4815 23b6 A400     		lsl	r4, r4, #2
 4816 23b8 E419     		add	r4, r4, r7
 4817 23ba E218     		add	r2, r4, r3
 4818 23bc EB21     		mov	r1, #235
 4819 23be 8900     		lsl	r1, r1, #2
 4820 23c0 C919     		add	r1, r1, r7
 4821 23c2 0B68     		ldr	r3, [r1]
 4822 23c4 DB00     		lsl	r3, r3, #3
 4823 23c6 D318     		add	r3, r2, r3
 4824 23c8 5C68     		ldr	r4, [r3, #4]
 4825 23ca 1B68     		ldr	r3, [r3]
 4826 23cc 181C     		mov	r0, r3
 4827 23ce 211C     		mov	r1, r4
 4828 23d0 D424     		mov	r4, #212
 4829 23d2 A400     		lsl	r4, r4, #2
 4830 23d4 E419     		add	r4, r4, r7
 4831 23d6 2268     		ldr	r2, [r4]
 4832 23d8 6368     		ldr	r3, [r4, #4]
 4833 23da FFF7FEFF 		bl	__aeabi_dcmple
 4834 23de 031C     		mov	r3, r0
 4835 23e0 002B     		cmp	r3, #0
 4836 23e2 00D1     		bne	.LCB4199
 4837 23e4 AFE0     		b	.L184	@long jump
 4838              	.LCB4199:
 4839              	.L300:
 439:../Sources/main.c **** 					area[i] = grausaida;
 4840              		.loc 1 439 0
 4841 23e6 184B     		ldr	r3, .L361+24
 4842 23e8 EC21     		mov	r1, #236
 4843 23ea 8900     		lsl	r1, r1, #2
 4844 23ec C919     		add	r1, r1, r7
 4845 23ee CA18     		add	r2, r1, r3
 4846 23f0 EB24     		mov	r4, #235
 4847 23f2 A400     		lsl	r4, r4, #2
 4848 23f4 E419     		add	r4, r4, r7
 4849 23f6 2368     		ldr	r3, [r4]
 4850 23f8 DB00     		lsl	r3, r3, #3
 4851 23fa D218     		add	r2, r2, r3
 4852 23fc D421     		mov	r1, #212
 4853 23fe 8900     		lsl	r1, r1, #2
 4854 2400 C919     		add	r1, r1, r7
 4855 2402 0B68     		ldr	r3, [r1]
 4856 2404 4C68     		ldr	r4, [r1, #4]
 4857 2406 1360     		str	r3, [r2]
 4858 2408 5460     		str	r4, [r2, #4]
 4859 240a 9CE0     		b	.L184
 4860              	.L183:
 440:../Sources/main.c **** 
 441:../Sources/main.c **** 			} else if (servang > 1375) {
 4861              		.loc 1 441 0
 4862 240c D723     		mov	r3, #215
 4863 240e 9B00     		lsl	r3, r3, #2
 4864 2410 DB19     		add	r3, r3, r7
 4865 2412 1A68     		ldr	r2, [r3]
 4866 2414 0E4B     		ldr	r3, .L361+32
 4867 2416 9A42     		cmp	r2, r3
 4868 2418 1CDD     		ble	.L186
 442:../Sources/main.c **** 				grausaida = 0;
 4869              		.loc 1 442 0
 4870 241a 074B     		ldr	r3, .L361+8
 4871 241c 074C     		ldr	r4, .L361+12
 4872 241e D421     		mov	r1, #212
 4873 2420 8900     		lsl	r1, r1, #2
 4874 2422 C919     		add	r1, r1, r7
 4875 2424 0B60     		str	r3, [r1]
 4876 2426 4C60     		str	r4, [r1, #4]
 4877 2428 8DE0     		b	.L184
 4878              	.L362:
 4879 242a C046C046 		.align	3
 4879      C046
 4880              	.L361:
 4881 2430 00000000 		.word	0
 4882 2434 00405F40 		.word	1079984128
 4883 2438 00000000 		.word	0
 4884 243c 00000000 		.word	0
 4885 2440 D6060000 		.word	1750
 4886 2444 00005041 		.word	1095761920
 4887 2448 50FCFFFF 		.word	-944
 4888 244c E1040000 		.word	1249
 4889 2450 5F050000 		.word	1375
 4890              	.L186:
 443:../Sources/main.c **** 			} else if (servang >= 1250 && servang <= 1375) {
 4891              		.loc 1 443 0
 4892 2454 D723     		mov	r3, #215
 4893 2456 9B00     		lsl	r3, r3, #2
 4894 2458 DB19     		add	r3, r3, r7
 4895 245a 1A68     		ldr	r2, [r3]
 4896 245c 904B     		ldr	r3, .L363+24
 4897 245e 9A42     		cmp	r2, r3
 4898 2460 71DD     		ble	.L184
 4899              		.loc 1 443 0 is_stmt 0
 4900 2462 D724     		mov	r4, #215
 4901 2464 A400     		lsl	r4, r4, #2
 4902 2466 E419     		add	r4, r4, r7
 4903 2468 2268     		ldr	r2, [r4]
 4904 246a 8E4B     		ldr	r3, .L363+28
 4905 246c 9A42     		cmp	r2, r3
 4906 246e 6ADC     		bgt	.L184
 444:../Sources/main.c **** 
 445:../Sources/main.c **** 				grausaida = ((float) (servang / (-125.0))) + (11.0); // reta a
 4907              		.loc 1 445 0 is_stmt 1
 4908 2470 D721     		mov	r1, #215
 4909 2472 8900     		lsl	r1, r1, #2
 4910 2474 C919     		add	r1, r1, r7
 4911 2476 0868     		ldr	r0, [r1]
 4912 2478 FFF7FEFF 		bl	__aeabi_i2d
 4913 247c 031C     		mov	r3, r0
 4914 247e 0C1C     		mov	r4, r1
 4915 2480 181C     		mov	r0, r3
 4916 2482 211C     		mov	r1, r4
 4917 2484 814B     		ldr	r3, .L363+4
 4918 2486 804A     		ldr	r2, .L363
 4919 2488 FFF7FEFF 		bl	__aeabi_ddiv
 4920 248c 031C     		mov	r3, r0
 4921 248e 0C1C     		mov	r4, r1
 4922 2490 181C     		mov	r0, r3
 4923 2492 211C     		mov	r1, r4
 4924 2494 FFF7FEFF 		bl	__aeabi_d2f
 4925 2498 031C     		add	r3, r0, #0
 4926 249a 181C     		add	r0, r3, #0
 4927 249c FFF7FEFF 		bl	__aeabi_f2d
 4928 24a0 031C     		mov	r3, r0
 4929 24a2 0C1C     		mov	r4, r1
 4930 24a4 181C     		mov	r0, r3
 4931 24a6 211C     		mov	r1, r4
 4932 24a8 794A     		ldr	r2, .L363+8
 4933 24aa 7A4B     		ldr	r3, .L363+12
 4934 24ac FFF7FEFF 		bl	__aeabi_dadd
 4935 24b0 031C     		mov	r3, r0
 4936 24b2 0C1C     		mov	r4, r1
 4937 24b4 D422     		mov	r2, #212
 4938 24b6 9200     		lsl	r2, r2, #2
 4939 24b8 D219     		add	r2, r2, r7
 4940 24ba 1360     		str	r3, [r2]
 4941 24bc 5460     		str	r4, [r2, #4]
 446:../Sources/main.c **** 				if (grausaida > nb)
 4942              		.loc 1 446 0
 4943 24be D423     		mov	r3, #212
 4944 24c0 9B00     		lsl	r3, r3, #2
 4945 24c2 DB19     		add	r3, r3, r7
 4946 24c4 1868     		ldr	r0, [r3]
 4947 24c6 5968     		ldr	r1, [r3, #4]
 4948 24c8 DE24     		mov	r4, #222
 4949 24ca A400     		lsl	r4, r4, #2
 4950 24cc E419     		add	r4, r4, r7
 4951 24ce 2268     		ldr	r2, [r4]
 4952 24d0 6368     		ldr	r3, [r4, #4]
 4953 24d2 FFF7FEFF 		bl	__aeabi_dcmpgt
 4954 24d6 031C     		mov	r3, r0
 4955 24d8 002B     		cmp	r3, #0
 4956 24da 09D0     		beq	.L187
 4957              	.L301:
 447:../Sources/main.c **** 					grausaida = nb;
 4958              		.loc 1 447 0
 4959 24dc DE21     		mov	r1, #222
 4960 24de 8900     		lsl	r1, r1, #2
 4961 24e0 C919     		add	r1, r1, r7
 4962 24e2 0B68     		ldr	r3, [r1]
 4963 24e4 4C68     		ldr	r4, [r1, #4]
 4964 24e6 D422     		mov	r2, #212
 4965 24e8 9200     		lsl	r2, r2, #2
 4966 24ea D219     		add	r2, r2, r7
 4967 24ec 1360     		str	r3, [r2]
 4968 24ee 5460     		str	r4, [r2, #4]
 4969              	.L187:
 448:../Sources/main.c **** 				if (area[i] <= grausaida)
 4970              		.loc 1 448 0
 4971 24f0 6D4B     		ldr	r3, .L363+32
 4972 24f2 EC24     		mov	r4, #236
 4973 24f4 A400     		lsl	r4, r4, #2
 4974 24f6 E419     		add	r4, r4, r7
 4975 24f8 E218     		add	r2, r4, r3
 4976 24fa EB21     		mov	r1, #235
 4977 24fc 8900     		lsl	r1, r1, #2
 4978 24fe C919     		add	r1, r1, r7
 4979 2500 0B68     		ldr	r3, [r1]
 4980 2502 DB00     		lsl	r3, r3, #3
 4981 2504 D318     		add	r3, r2, r3
 4982 2506 5C68     		ldr	r4, [r3, #4]
 4983 2508 1B68     		ldr	r3, [r3]
 4984 250a 181C     		mov	r0, r3
 4985 250c 211C     		mov	r1, r4
 4986 250e D424     		mov	r4, #212
 4987 2510 A400     		lsl	r4, r4, #2
 4988 2512 E419     		add	r4, r4, r7
 4989 2514 2268     		ldr	r2, [r4]
 4990 2516 6368     		ldr	r3, [r4, #4]
 4991 2518 FFF7FEFF 		bl	__aeabi_dcmple
 4992 251c 031C     		mov	r3, r0
 4993 251e 002B     		cmp	r3, #0
 4994 2520 11D0     		beq	.L184
 4995              	.L302:
 449:../Sources/main.c **** 					area[i] = grausaida;
 4996              		.loc 1 449 0
 4997 2522 614B     		ldr	r3, .L363+32
 4998 2524 EC21     		mov	r1, #236
 4999 2526 8900     		lsl	r1, r1, #2
 5000 2528 C919     		add	r1, r1, r7
 5001 252a CA18     		add	r2, r1, r3
 5002 252c EB24     		mov	r4, #235
 5003 252e A400     		lsl	r4, r4, #2
 5004 2530 E419     		add	r4, r4, r7
 5005 2532 2368     		ldr	r3, [r4]
 5006 2534 DB00     		lsl	r3, r3, #3
 5007 2536 D218     		add	r2, r2, r3
 5008 2538 D421     		mov	r1, #212
 5009 253a 8900     		lsl	r1, r1, #2
 5010 253c C919     		add	r1, r1, r7
 5011 253e 0B68     		ldr	r3, [r1]
 5012 2540 4C68     		ldr	r4, [r1, #4]
 5013 2542 1360     		str	r3, [r2]
 5014 2544 5460     		str	r4, [r2, #4]
 5015              	.L184:
 450:../Sources/main.c **** 			}
 451:../Sources/main.c **** 
 452:../Sources/main.c **** 			servang = servang + 10;
 5016              		.loc 1 452 0
 5017 2546 D722     		mov	r2, #215
 5018 2548 9200     		lsl	r2, r2, #2
 5019 254a D219     		add	r2, r2, r7
 5020 254c 1368     		ldr	r3, [r2]
 5021 254e 0A33     		add	r3, r3, #10
 5022 2550 D724     		mov	r4, #215
 5023 2552 A400     		lsl	r4, r4, #2
 5024 2554 E419     		add	r4, r4, r7
 5025 2556 2360     		str	r3, [r4]
 435:../Sources/main.c **** 		for (i = 0; i < 100; i++) {
 5026              		.loc 1 435 0
 5027 2558 EB21     		mov	r1, #235
 5028 255a 8900     		lsl	r1, r1, #2
 5029 255c C919     		add	r1, r1, r7
 5030 255e 0B68     		ldr	r3, [r1]
 5031 2560 0133     		add	r3, r3, #1
 5032 2562 EB22     		mov	r2, #235
 5033 2564 9200     		lsl	r2, r2, #2
 5034 2566 D219     		add	r2, r2, r7
 5035 2568 1360     		str	r3, [r2]
 5036              	.L182:
 435:../Sources/main.c **** 		for (i = 0; i < 100; i++) {
 5037              		.loc 1 435 0 is_stmt 0
 5038 256a EB24     		mov	r4, #235
 5039 256c A400     		lsl	r4, r4, #2
 5040 256e E419     		add	r4, r4, r7
 5041 2570 2368     		ldr	r3, [r4]
 5042 2572 632B     		cmp	r3, #99
 5043 2574 00DC     		bgt	.LCB4383
 5044 2576 0BE7     		b	.L190	@long jump
 5045              	.LCB4383:
 453:../Sources/main.c **** 		}
 454:../Sources/main.c **** 		servang = 1000;
 5046              		.loc 1 454 0 is_stmt 1
 5047 2578 FA23     		mov	r3, #250
 5048 257a 9B00     		lsl	r3, r3, #2
 5049 257c D721     		mov	r1, #215
 5050 257e 8900     		lsl	r1, r1, #2
 5051 2580 C919     		add	r1, r1, r7
 5052 2582 0B60     		str	r3, [r1]
 455:../Sources/main.c **** //--------- R e L -----------
 456:../Sources/main.c **** 		if (graul < graura) {
 5053              		.loc 1 456 0
 5054 2584 CB22     		mov	r2, #203
 5055 2586 9200     		lsl	r2, r2, #2
 5056 2588 D219     		add	r2, r2, r7
 5057 258a 1368     		ldr	r3, [r2]
 5058 258c 181C     		add	r0, r3, #0
 5059 258e FFF7FEFF 		bl	__aeabi_f2d
 5060 2592 031C     		mov	r3, r0
 5061 2594 0C1C     		mov	r4, r1
 5062 2596 181C     		mov	r0, r3
 5063 2598 211C     		mov	r1, r4
 5064 259a E224     		mov	r4, #226
 5065 259c A400     		lsl	r4, r4, #2
 5066 259e E419     		add	r4, r4, r7
 5067 25a0 2268     		ldr	r2, [r4]
 5068 25a2 6368     		ldr	r3, [r4, #4]
 5069 25a4 FFF7FEFF 		bl	__aeabi_dcmplt
 5070 25a8 031C     		mov	r3, r0
 5071 25aa 002B     		cmp	r3, #0
 5072 25ac 0ED0     		beq	.L333
 5073              	.L303:
 457:../Sources/main.c **** 			nb = graul;
 5074              		.loc 1 457 0
 5075 25ae CB21     		mov	r1, #203
 5076 25b0 8900     		lsl	r1, r1, #2
 5077 25b2 C919     		add	r1, r1, r7
 5078 25b4 0B68     		ldr	r3, [r1]
 5079 25b6 181C     		add	r0, r3, #0
 5080 25b8 FFF7FEFF 		bl	__aeabi_f2d
 5081 25bc 031C     		mov	r3, r0
 5082 25be 0C1C     		mov	r4, r1
 5083 25c0 DE22     		mov	r2, #222
 5084 25c2 9200     		lsl	r2, r2, #2
 5085 25c4 D219     		add	r2, r2, r7
 5086 25c6 1360     		str	r3, [r2]
 5087 25c8 5460     		str	r4, [r2, #4]
 5088 25ca 09E0     		b	.L193
 5089              	.L333:
 458:../Sources/main.c **** 		} else
 459:../Sources/main.c **** 			nb = graura;
 5090              		.loc 1 459 0
 5091 25cc E221     		mov	r1, #226
 5092 25ce 8900     		lsl	r1, r1, #2
 5093 25d0 C919     		add	r1, r1, r7
 5094 25d2 0B68     		ldr	r3, [r1]
 5095 25d4 4C68     		ldr	r4, [r1, #4]
 5096 25d6 DE22     		mov	r2, #222
 5097 25d8 9200     		lsl	r2, r2, #2
 5098 25da D219     		add	r2, r2, r7
 5099 25dc 1360     		str	r3, [r2]
 5100 25de 5460     		str	r4, [r2, #4]
 5101              	.L193:
 460:../Sources/main.c **** 
 461:../Sources/main.c **** 		for (i = 0; i < 100; i++) {
 5102              		.loc 1 461 0
 5103 25e0 0023     		mov	r3, #0
 5104 25e2 EB24     		mov	r4, #235
 5105 25e4 A400     		lsl	r4, r4, #2
 5106 25e6 E419     		add	r4, r4, r7
 5107 25e8 2360     		str	r3, [r4]
 5108 25ea EAE0     		b	.L194
 5109              	.L202:
 462:../Sources/main.c **** 			if (servang < 1250) {
 5110              		.loc 1 462 0
 5111 25ec D721     		mov	r1, #215
 5112 25ee 8900     		lsl	r1, r1, #2
 5113 25f0 C919     		add	r1, r1, r7
 5114 25f2 0A68     		ldr	r2, [r1]
 5115 25f4 2A4B     		ldr	r3, .L363+24
 5116 25f6 9A42     		cmp	r2, r3
 5117 25f8 36DC     		bgt	.L195
 463:../Sources/main.c **** 				grausaida = nb;
 5118              		.loc 1 463 0
 5119 25fa DE22     		mov	r2, #222
 5120 25fc 9200     		lsl	r2, r2, #2
 5121 25fe D219     		add	r2, r2, r7
 5122 2600 1368     		ldr	r3, [r2]
 5123 2602 5468     		ldr	r4, [r2, #4]
 5124 2604 D421     		mov	r1, #212
 5125 2606 8900     		lsl	r1, r1, #2
 5126 2608 C919     		add	r1, r1, r7
 5127 260a 0B60     		str	r3, [r1]
 5128 260c 4C60     		str	r4, [r1, #4]
 464:../Sources/main.c **** 				if (area[i] <= grausaida)
 5129              		.loc 1 464 0
 5130 260e 264B     		ldr	r3, .L363+32
 5131 2610 EC24     		mov	r4, #236
 5132 2612 A400     		lsl	r4, r4, #2
 5133 2614 E419     		add	r4, r4, r7
 5134 2616 E218     		add	r2, r4, r3
 5135 2618 EB21     		mov	r1, #235
 5136 261a 8900     		lsl	r1, r1, #2
 5137 261c C919     		add	r1, r1, r7
 5138 261e 0B68     		ldr	r3, [r1]
 5139 2620 DB00     		lsl	r3, r3, #3
 5140 2622 D318     		add	r3, r2, r3
 5141 2624 5C68     		ldr	r4, [r3, #4]
 5142 2626 1B68     		ldr	r3, [r3]
 5143 2628 181C     		mov	r0, r3
 5144 262a 211C     		mov	r1, r4
 5145 262c D424     		mov	r4, #212
 5146 262e A400     		lsl	r4, r4, #2
 5147 2630 E419     		add	r4, r4, r7
 5148 2632 2268     		ldr	r2, [r4]
 5149 2634 6368     		ldr	r3, [r4, #4]
 5150 2636 FFF7FEFF 		bl	__aeabi_dcmple
 5151 263a 031C     		mov	r3, r0
 5152 263c 002B     		cmp	r3, #0
 5153 263e 00D1     		bne	.LCB4480
 5154 2640 ADE0     		b	.L196	@long jump
 5155              	.LCB4480:
 5156              	.L304:
 465:../Sources/main.c **** 					area[i] = grausaida;
 5157              		.loc 1 465 0
 5158 2642 194B     		ldr	r3, .L363+32
 5159 2644 EC21     		mov	r1, #236
 5160 2646 8900     		lsl	r1, r1, #2
 5161 2648 C919     		add	r1, r1, r7
 5162 264a CA18     		add	r2, r1, r3
 5163 264c EB24     		mov	r4, #235
 5164 264e A400     		lsl	r4, r4, #2
 5165 2650 E419     		add	r4, r4, r7
 5166 2652 2368     		ldr	r3, [r4]
 5167 2654 DB00     		lsl	r3, r3, #3
 5168 2656 D218     		add	r2, r2, r3
 5169 2658 D421     		mov	r1, #212
 5170 265a 8900     		lsl	r1, r1, #2
 5171 265c C919     		add	r1, r1, r7
 5172 265e 0B68     		ldr	r3, [r1]
 5173 2660 4C68     		ldr	r4, [r1, #4]
 5174 2662 1360     		str	r3, [r2]
 5175 2664 5460     		str	r4, [r2, #4]
 5176 2666 9AE0     		b	.L196
 5177              	.L195:
 466:../Sources/main.c **** 
 467:../Sources/main.c **** 			} else if (servang > 1375) {
 5178              		.loc 1 467 0
 5179 2668 D723     		mov	r3, #215
 5180 266a 9B00     		lsl	r3, r3, #2
 5181 266c DB19     		add	r3, r3, r7
 5182 266e 1A68     		ldr	r2, [r3]
 5183 2670 0C4B     		ldr	r3, .L363+28
 5184 2672 9A42     		cmp	r2, r3
 5185 2674 1ADD     		ble	.L198
 468:../Sources/main.c **** 				grausaida = 0;
 5186              		.loc 1 468 0
 5187 2676 084B     		ldr	r3, .L363+16
 5188 2678 084C     		ldr	r4, .L363+20
 5189 267a D421     		mov	r1, #212
 5190 267c 8900     		lsl	r1, r1, #2
 5191 267e C919     		add	r1, r1, r7
 5192 2680 0B60     		str	r3, [r1]
 5193 2682 4C60     		str	r4, [r1, #4]
 5194 2684 8BE0     		b	.L196
 5195              	.L364:
 5196 2686 C046     		.align	3
 5197              	.L363:
 5198 2688 00000000 		.word	0
 5199 268c 00405FC0 		.word	-1067499520
 5200 2690 00000000 		.word	0
 5201 2694 00002640 		.word	1076232192
 5202 2698 00000000 		.word	0
 5203 269c 00000000 		.word	0
 5204 26a0 E1040000 		.word	1249
 5205 26a4 5F050000 		.word	1375
 5206 26a8 50FCFFFF 		.word	-944
 5207              	.L198:
 469:../Sources/main.c **** 			} else if (servang >= 1250 && servang <= 1375) {
 5208              		.loc 1 469 0
 5209 26ac D723     		mov	r3, #215
 5210 26ae 9B00     		lsl	r3, r3, #2
 5211 26b0 DB19     		add	r3, r3, r7
 5212 26b2 1A68     		ldr	r2, [r3]
 5213 26b4 B64B     		ldr	r3, .L365+32
 5214 26b6 9A42     		cmp	r2, r3
 5215 26b8 71DD     		ble	.L196
 5216              		.loc 1 469 0 is_stmt 0
 5217 26ba D724     		mov	r4, #215
 5218 26bc A400     		lsl	r4, r4, #2
 5219 26be E419     		add	r4, r4, r7
 5220 26c0 2268     		ldr	r2, [r4]
 5221 26c2 B44B     		ldr	r3, .L365+36
 5222 26c4 9A42     		cmp	r2, r3
 5223 26c6 6ADC     		bgt	.L196
 470:../Sources/main.c **** 
 471:../Sources/main.c **** 				grausaida = ((float) (servang / (-125.0))) + (11.0); // reta a
 5224              		.loc 1 471 0 is_stmt 1
 5225 26c8 D721     		mov	r1, #215
 5226 26ca 8900     		lsl	r1, r1, #2
 5227 26cc C919     		add	r1, r1, r7
 5228 26ce 0868     		ldr	r0, [r1]
 5229 26d0 FFF7FEFF 		bl	__aeabi_i2d
 5230 26d4 031C     		mov	r3, r0
 5231 26d6 0C1C     		mov	r4, r1
 5232 26d8 181C     		mov	r0, r3
 5233 26da 211C     		mov	r1, r4
 5234 26dc A54B     		ldr	r3, .L365+4
 5235 26de A44A     		ldr	r2, .L365
 5236 26e0 FFF7FEFF 		bl	__aeabi_ddiv
 5237 26e4 031C     		mov	r3, r0
 5238 26e6 0C1C     		mov	r4, r1
 5239 26e8 181C     		mov	r0, r3
 5240 26ea 211C     		mov	r1, r4
 5241 26ec FFF7FEFF 		bl	__aeabi_d2f
 5242 26f0 031C     		add	r3, r0, #0
 5243 26f2 181C     		add	r0, r3, #0
 5244 26f4 FFF7FEFF 		bl	__aeabi_f2d
 5245 26f8 031C     		mov	r3, r0
 5246 26fa 0C1C     		mov	r4, r1
 5247 26fc 181C     		mov	r0, r3
 5248 26fe 211C     		mov	r1, r4
 5249 2700 9D4A     		ldr	r2, .L365+8
 5250 2702 9E4B     		ldr	r3, .L365+12
 5251 2704 FFF7FEFF 		bl	__aeabi_dadd
 5252 2708 031C     		mov	r3, r0
 5253 270a 0C1C     		mov	r4, r1
 5254 270c D422     		mov	r2, #212
 5255 270e 9200     		lsl	r2, r2, #2
 5256 2710 D219     		add	r2, r2, r7
 5257 2712 1360     		str	r3, [r2]
 5258 2714 5460     		str	r4, [r2, #4]
 472:../Sources/main.c **** 				if (grausaida > nb)
 5259              		.loc 1 472 0
 5260 2716 D423     		mov	r3, #212
 5261 2718 9B00     		lsl	r3, r3, #2
 5262 271a DB19     		add	r3, r3, r7
 5263 271c 1868     		ldr	r0, [r3]
 5264 271e 5968     		ldr	r1, [r3, #4]
 5265 2720 DE24     		mov	r4, #222
 5266 2722 A400     		lsl	r4, r4, #2
 5267 2724 E419     		add	r4, r4, r7
 5268 2726 2268     		ldr	r2, [r4]
 5269 2728 6368     		ldr	r3, [r4, #4]
 5270 272a FFF7FEFF 		bl	__aeabi_dcmpgt
 5271 272e 031C     		mov	r3, r0
 5272 2730 002B     		cmp	r3, #0
 5273 2732 09D0     		beq	.L199
 5274              	.L305:
 473:../Sources/main.c **** 					grausaida = nb;
 5275              		.loc 1 473 0
 5276 2734 DE21     		mov	r1, #222
 5277 2736 8900     		lsl	r1, r1, #2
 5278 2738 C919     		add	r1, r1, r7
 5279 273a 0B68     		ldr	r3, [r1]
 5280 273c 4C68     		ldr	r4, [r1, #4]
 5281 273e D422     		mov	r2, #212
 5282 2740 9200     		lsl	r2, r2, #2
 5283 2742 D219     		add	r2, r2, r7
 5284 2744 1360     		str	r3, [r2]
 5285 2746 5460     		str	r4, [r2, #4]
 5286              	.L199:
 474:../Sources/main.c **** 				if (area[i] <= grausaida)
 5287              		.loc 1 474 0
 5288 2748 934B     		ldr	r3, .L365+40
 5289 274a EC24     		mov	r4, #236
 5290 274c A400     		lsl	r4, r4, #2
 5291 274e E419     		add	r4, r4, r7
 5292 2750 E218     		add	r2, r4, r3
 5293 2752 EB21     		mov	r1, #235
 5294 2754 8900     		lsl	r1, r1, #2
 5295 2756 C919     		add	r1, r1, r7
 5296 2758 0B68     		ldr	r3, [r1]
 5297 275a DB00     		lsl	r3, r3, #3
 5298 275c D318     		add	r3, r2, r3
 5299 275e 5C68     		ldr	r4, [r3, #4]
 5300 2760 1B68     		ldr	r3, [r3]
 5301 2762 181C     		mov	r0, r3
 5302 2764 211C     		mov	r1, r4
 5303 2766 D424     		mov	r4, #212
 5304 2768 A400     		lsl	r4, r4, #2
 5305 276a E419     		add	r4, r4, r7
 5306 276c 2268     		ldr	r2, [r4]
 5307 276e 6368     		ldr	r3, [r4, #4]
 5308 2770 FFF7FEFF 		bl	__aeabi_dcmple
 5309 2774 031C     		mov	r3, r0
 5310 2776 002B     		cmp	r3, #0
 5311 2778 11D0     		beq	.L196
 5312              	.L306:
 475:../Sources/main.c **** 					area[i] = grausaida;
 5313              		.loc 1 475 0
 5314 277a 874B     		ldr	r3, .L365+40
 5315 277c EC21     		mov	r1, #236
 5316 277e 8900     		lsl	r1, r1, #2
 5317 2780 C919     		add	r1, r1, r7
 5318 2782 CA18     		add	r2, r1, r3
 5319 2784 EB24     		mov	r4, #235
 5320 2786 A400     		lsl	r4, r4, #2
 5321 2788 E419     		add	r4, r4, r7
 5322 278a 2368     		ldr	r3, [r4]
 5323 278c DB00     		lsl	r3, r3, #3
 5324 278e D218     		add	r2, r2, r3
 5325 2790 D421     		mov	r1, #212
 5326 2792 8900     		lsl	r1, r1, #2
 5327 2794 C919     		add	r1, r1, r7
 5328 2796 0B68     		ldr	r3, [r1]
 5329 2798 4C68     		ldr	r4, [r1, #4]
 5330 279a 1360     		str	r3, [r2]
 5331 279c 5460     		str	r4, [r2, #4]
 5332              	.L196:
 476:../Sources/main.c **** 			}
 477:../Sources/main.c **** 
 478:../Sources/main.c **** 			servang = servang + 10;
 5333              		.loc 1 478 0
 5334 279e D722     		mov	r2, #215
 5335 27a0 9200     		lsl	r2, r2, #2
 5336 27a2 D219     		add	r2, r2, r7
 5337 27a4 1368     		ldr	r3, [r2]
 5338 27a6 0A33     		add	r3, r3, #10
 5339 27a8 D724     		mov	r4, #215
 5340 27aa A400     		lsl	r4, r4, #2
 5341 27ac E419     		add	r4, r4, r7
 5342 27ae 2360     		str	r3, [r4]
 461:../Sources/main.c **** 		for (i = 0; i < 100; i++) {
 5343              		.loc 1 461 0
 5344 27b0 EB21     		mov	r1, #235
 5345 27b2 8900     		lsl	r1, r1, #2
 5346 27b4 C919     		add	r1, r1, r7
 5347 27b6 0B68     		ldr	r3, [r1]
 5348 27b8 0133     		add	r3, r3, #1
 5349 27ba EB22     		mov	r2, #235
 5350 27bc 9200     		lsl	r2, r2, #2
 5351 27be D219     		add	r2, r2, r7
 5352 27c0 1360     		str	r3, [r2]
 5353              	.L194:
 461:../Sources/main.c **** 		for (i = 0; i < 100; i++) {
 5354              		.loc 1 461 0 is_stmt 0
 5355 27c2 EB24     		mov	r4, #235
 5356 27c4 A400     		lsl	r4, r4, #2
 5357 27c6 E419     		add	r4, r4, r7
 5358 27c8 2368     		ldr	r3, [r4]
 5359 27ca 632B     		cmp	r3, #99
 5360 27cc 00DC     		bgt	.LCB4663
 5361 27ce 0DE7     		b	.L202	@long jump
 5362              	.LCB4663:
 479:../Sources/main.c **** 		}
 480:../Sources/main.c **** 
 481:../Sources/main.c **** 		servang = 1000;
 5363              		.loc 1 481 0 is_stmt 1
 5364 27d0 FA23     		mov	r3, #250
 5365 27d2 9B00     		lsl	r3, r3, #2
 5366 27d4 D721     		mov	r1, #215
 5367 27d6 8900     		lsl	r1, r1, #2
 5368 27d8 C919     		add	r1, r1, r7
 5369 27da 0B60     		str	r3, [r1]
 482:../Sources/main.c **** //--------- R e M-----------
 483:../Sources/main.c **** 		if (graum < graura) {
 5370              		.loc 1 483 0
 5371 27dc CA22     		mov	r2, #202
 5372 27de 9200     		lsl	r2, r2, #2
 5373 27e0 D219     		add	r2, r2, r7
 5374 27e2 1368     		ldr	r3, [r2]
 5375 27e4 181C     		add	r0, r3, #0
 5376 27e6 FFF7FEFF 		bl	__aeabi_f2d
 5377 27ea 031C     		mov	r3, r0
 5378 27ec 0C1C     		mov	r4, r1
 5379 27ee 181C     		mov	r0, r3
 5380 27f0 211C     		mov	r1, r4
 5381 27f2 E224     		mov	r4, #226
 5382 27f4 A400     		lsl	r4, r4, #2
 5383 27f6 E419     		add	r4, r4, r7
 5384 27f8 2268     		ldr	r2, [r4]
 5385 27fa 6368     		ldr	r3, [r4, #4]
 5386 27fc FFF7FEFF 		bl	__aeabi_dcmplt
 5387 2800 031C     		mov	r3, r0
 5388 2802 002B     		cmp	r3, #0
 5389 2804 0ED0     		beq	.L334
 5390              	.L307:
 484:../Sources/main.c **** 			z = graum;
 5391              		.loc 1 484 0
 5392 2806 CA21     		mov	r1, #202
 5393 2808 8900     		lsl	r1, r1, #2
 5394 280a C919     		add	r1, r1, r7
 5395 280c 0B68     		ldr	r3, [r1]
 5396 280e 181C     		add	r0, r3, #0
 5397 2810 FFF7FEFF 		bl	__aeabi_f2d
 5398 2814 031C     		mov	r3, r0
 5399 2816 0C1C     		mov	r4, r1
 5400 2818 DC22     		mov	r2, #220
 5401 281a 9200     		lsl	r2, r2, #2
 5402 281c D219     		add	r2, r2, r7
 5403 281e 1360     		str	r3, [r2]
 5404 2820 5460     		str	r4, [r2, #4]
 5405 2822 09E0     		b	.L205
 5406              	.L334:
 485:../Sources/main.c **** 		} else
 486:../Sources/main.c **** 			z = graura;
 5407              		.loc 1 486 0
 5408 2824 E221     		mov	r1, #226
 5409 2826 8900     		lsl	r1, r1, #2
 5410 2828 C919     		add	r1, r1, r7
 5411 282a 0B68     		ldr	r3, [r1]
 5412 282c 4C68     		ldr	r4, [r1, #4]
 5413 282e DC22     		mov	r2, #220
 5414 2830 9200     		lsl	r2, r2, #2
 5415 2832 D219     		add	r2, r2, r7
 5416 2834 1360     		str	r3, [r2]
 5417 2836 5460     		str	r4, [r2, #4]
 5418              	.L205:
 487:../Sources/main.c **** 
 488:../Sources/main.c **** 		for (i = 0; i < 100; i++) {
 5419              		.loc 1 488 0
 5420 2838 0023     		mov	r3, #0
 5421 283a EB24     		mov	r4, #235
 5422 283c A400     		lsl	r4, r4, #2
 5423 283e E419     		add	r4, r4, r7
 5424 2840 2360     		str	r3, [r4]
 5425 2842 3FE1     		b	.L206
 5426              	.L218:
 489:../Sources/main.c **** 			if (servang < 1375 || servang > 1625) {
 5427              		.loc 1 489 0
 5428 2844 D721     		mov	r1, #215
 5429 2846 8900     		lsl	r1, r1, #2
 5430 2848 C919     		add	r1, r1, r7
 5431 284a 0A68     		ldr	r2, [r1]
 5432 284c 534B     		ldr	r3, .L365+44
 5433 284e 9A42     		cmp	r2, r3
 5434 2850 06DD     		ble	.L207
 5435              		.loc 1 489 0 is_stmt 0
 5436 2852 D723     		mov	r3, #215
 5437 2854 9B00     		lsl	r3, r3, #2
 5438 2856 DB19     		add	r3, r3, r7
 5439 2858 1A68     		ldr	r2, [r3]
 5440 285a 514B     		ldr	r3, .L365+48
 5441 285c 9A42     		cmp	r2, r3
 5442 285e 07DD     		ble	.L208
 5443              	.L207:
 490:../Sources/main.c **** 				grausaida = 0;
 5444              		.loc 1 490 0 is_stmt 1
 5445 2860 474B     		ldr	r3, .L365+16
 5446 2862 484C     		ldr	r4, .L365+20
 5447 2864 D421     		mov	r1, #212
 5448 2866 8900     		lsl	r1, r1, #2
 5449 2868 C919     		add	r1, r1, r7
 5450 286a 0B60     		str	r3, [r1]
 5451 286c 4C60     		str	r4, [r1, #4]
 5452 286e 17E1     		b	.L209
 5453              	.L208:
 491:../Sources/main.c **** 				//if(area[i]<=grausaida) area[i]=grausaida;
 492:../Sources/main.c **** 
 493:../Sources/main.c **** 			} else if (servang >= 1375 && servang <= 1500) {
 5454              		.loc 1 493 0
 5455 2870 D723     		mov	r3, #215
 5456 2872 9B00     		lsl	r3, r3, #2
 5457 2874 DB19     		add	r3, r3, r7
 5458 2876 1A68     		ldr	r2, [r3]
 5459 2878 484B     		ldr	r3, .L365+44
 5460 287a 9A42     		cmp	r2, r3
 5461 287c 00DC     		bgt	.LCB4754
 5462 287e 93E0     		b	.L210	@long jump
 5463              	.LCB4754:
 5464              		.loc 1 493 0 is_stmt 0
 5465 2880 D724     		mov	r4, #215
 5466 2882 A400     		lsl	r4, r4, #2
 5467 2884 E419     		add	r4, r4, r7
 5468 2886 2268     		ldr	r2, [r4]
 5469 2888 464B     		ldr	r3, .L365+52
 5470 288a 9A42     		cmp	r2, r3
 5471 288c 00DD     		ble	.LCB4761
 5472 288e 8BE0     		b	.L210	@long jump
 5473              	.LCB4761:
 494:../Sources/main.c **** 
 495:../Sources/main.c **** 				grausaida = ((float) (servang / 125.0)) - (11.0); // reta d
 5474              		.loc 1 495 0 is_stmt 1
 5475 2890 D721     		mov	r1, #215
 5476 2892 8900     		lsl	r1, r1, #2
 5477 2894 C919     		add	r1, r1, r7
 5478 2896 0868     		ldr	r0, [r1]
 5479 2898 FFF7FEFF 		bl	__aeabi_i2d
 5480 289c 031C     		mov	r3, r0
 5481 289e 0C1C     		mov	r4, r1
 5482 28a0 181C     		mov	r0, r3
 5483 28a2 211C     		mov	r1, r4
 5484 28a4 384A     		ldr	r2, .L365+24
 5485 28a6 394B     		ldr	r3, .L365+28
 5486 28a8 FFF7FEFF 		bl	__aeabi_ddiv
 5487 28ac 031C     		mov	r3, r0
 5488 28ae 0C1C     		mov	r4, r1
 5489 28b0 181C     		mov	r0, r3
 5490 28b2 211C     		mov	r1, r4
 5491 28b4 FFF7FEFF 		bl	__aeabi_d2f
 5492 28b8 031C     		add	r3, r0, #0
 5493 28ba 181C     		add	r0, r3, #0
 5494 28bc FFF7FEFF 		bl	__aeabi_f2d
 5495 28c0 031C     		mov	r3, r0
 5496 28c2 0C1C     		mov	r4, r1
 5497 28c4 181C     		mov	r0, r3
 5498 28c6 211C     		mov	r1, r4
 5499 28c8 2B4A     		ldr	r2, .L365+8
 5500 28ca 2C4B     		ldr	r3, .L365+12
 5501 28cc FFF7FEFF 		bl	__aeabi_dsub
 5502 28d0 031C     		mov	r3, r0
 5503 28d2 0C1C     		mov	r4, r1
 5504 28d4 D422     		mov	r2, #212
 5505 28d6 9200     		lsl	r2, r2, #2
 5506 28d8 D219     		add	r2, r2, r7
 5507 28da 1360     		str	r3, [r2]
 5508 28dc 5460     		str	r4, [r2, #4]
 496:../Sources/main.c **** 				if (grausaida > z)
 5509              		.loc 1 496 0
 5510 28de D423     		mov	r3, #212
 5511 28e0 9B00     		lsl	r3, r3, #2
 5512 28e2 DB19     		add	r3, r3, r7
 5513 28e4 1868     		ldr	r0, [r3]
 5514 28e6 5968     		ldr	r1, [r3, #4]
 5515 28e8 DC24     		mov	r4, #220
 5516 28ea A400     		lsl	r4, r4, #2
 5517 28ec E419     		add	r4, r4, r7
 5518 28ee 2268     		ldr	r2, [r4]
 5519 28f0 6368     		ldr	r3, [r4, #4]
 5520 28f2 FFF7FEFF 		bl	__aeabi_dcmpgt
 5521 28f6 031C     		mov	r3, r0
 5522 28f8 002B     		cmp	r3, #0
 5523 28fa 09D0     		beq	.L211
 5524              	.L308:
 497:../Sources/main.c **** 					grausaida = z;
 5525              		.loc 1 497 0
 5526 28fc DC21     		mov	r1, #220
 5527 28fe 8900     		lsl	r1, r1, #2
 5528 2900 C919     		add	r1, r1, r7
 5529 2902 0B68     		ldr	r3, [r1]
 5530 2904 4C68     		ldr	r4, [r1, #4]
 5531 2906 D422     		mov	r2, #212
 5532 2908 9200     		lsl	r2, r2, #2
 5533 290a D219     		add	r2, r2, r7
 5534 290c 1360     		str	r3, [r2]
 5535 290e 5460     		str	r4, [r2, #4]
 5536              	.L211:
 498:../Sources/main.c **** 				if (area[i] <= grausaida)
 5537              		.loc 1 498 0
 5538 2910 214B     		ldr	r3, .L365+40
 5539 2912 EC24     		mov	r4, #236
 5540 2914 A400     		lsl	r4, r4, #2
 5541 2916 E419     		add	r4, r4, r7
 5542 2918 E218     		add	r2, r4, r3
 5543 291a EB21     		mov	r1, #235
 5544 291c 8900     		lsl	r1, r1, #2
 5545 291e C919     		add	r1, r1, r7
 5546 2920 0B68     		ldr	r3, [r1]
 5547 2922 DB00     		lsl	r3, r3, #3
 5548 2924 D318     		add	r3, r2, r3
 5549 2926 5C68     		ldr	r4, [r3, #4]
 5550 2928 1B68     		ldr	r3, [r3]
 5551 292a 181C     		mov	r0, r3
 5552 292c 211C     		mov	r1, r4
 5553 292e D424     		mov	r4, #212
 5554 2930 A400     		lsl	r4, r4, #2
 5555 2932 E419     		add	r4, r4, r7
 5556 2934 2268     		ldr	r2, [r4]
 5557 2936 6368     		ldr	r3, [r4, #4]
 5558 2938 FFF7FEFF 		bl	__aeabi_dcmple
 5559 293c 031C     		mov	r3, r0
 5560 293e 002B     		cmp	r3, #0
 5561 2940 00D1     		bne	.LCB4837
 5562 2942 ADE0     		b	.L209	@long jump
 5563              	.LCB4837:
 5564              	.L309:
 499:../Sources/main.c **** 					area[i] = grausaida;
 5565              		.loc 1 499 0
 5566 2944 144B     		ldr	r3, .L365+40
 5567 2946 EC21     		mov	r1, #236
 5568 2948 8900     		lsl	r1, r1, #2
 5569 294a C919     		add	r1, r1, r7
 5570 294c CA18     		add	r2, r1, r3
 5571 294e EB24     		mov	r4, #235
 5572 2950 A400     		lsl	r4, r4, #2
 5573 2952 E419     		add	r4, r4, r7
 5574 2954 2368     		ldr	r3, [r4]
 5575 2956 DB00     		lsl	r3, r3, #3
 5576 2958 D218     		add	r2, r2, r3
 5577 295a D421     		mov	r1, #212
 5578 295c 8900     		lsl	r1, r1, #2
 5579 295e C919     		add	r1, r1, r7
 5580 2960 0B68     		ldr	r3, [r1]
 5581 2962 4C68     		ldr	r4, [r1, #4]
 5582 2964 1360     		str	r3, [r2]
 5583 2966 5460     		str	r4, [r2, #4]
 498:../Sources/main.c **** 				if (area[i] <= grausaida)
 5584              		.loc 1 498 0
 5585 2968 9AE0     		b	.L209
 5586              	.L366:
 5587 296a C046C046 		.align	3
 5587      C046
 5588              	.L365:
 5589 2970 00000000 		.word	0
 5590 2974 00405FC0 		.word	-1067499520
 5591 2978 00000000 		.word	0
 5592 297c 00002640 		.word	1076232192
 5593 2980 00000000 		.word	0
 5594 2984 00000000 		.word	0
 5595 2988 00000000 		.word	0
 5596 298c 00405F40 		.word	1079984128
 5597 2990 E1040000 		.word	1249
 5598 2994 5F050000 		.word	1375
 5599 2998 50FCFFFF 		.word	-944
 5600 299c 5E050000 		.word	1374
 5601 29a0 59060000 		.word	1625
 5602 29a4 DC050000 		.word	1500
 5603              	.L210:
 500:../Sources/main.c **** 			}
 501:../Sources/main.c **** 
 502:../Sources/main.c **** 			else if (servang >= 1500 && servang <= 1625) {
 5604              		.loc 1 502 0
 5605 29a8 D723     		mov	r3, #215
 5606 29aa 9B00     		lsl	r3, r3, #2
 5607 29ac DB19     		add	r3, r3, r7
 5608 29ae 1A68     		ldr	r2, [r3]
 5609 29b0 8D4B     		ldr	r3, .L367+24
 5610 29b2 9A42     		cmp	r2, r3
 5611 29b4 00DC     		bgt	.LCB4880
 5612 29b6 73E0     		b	.L209	@long jump
 5613              	.LCB4880:
 5614              		.loc 1 502 0 is_stmt 0
 5615 29b8 D724     		mov	r4, #215
 5616 29ba A400     		lsl	r4, r4, #2
 5617 29bc E419     		add	r4, r4, r7
 5618 29be 2268     		ldr	r2, [r4]
 5619 29c0 8A4B     		ldr	r3, .L367+28
 5620 29c2 9A42     		cmp	r2, r3
 5621 29c4 6CDC     		bgt	.L209
 503:../Sources/main.c **** 
 504:../Sources/main.c **** 				grausaida = ((float) (-servang / 125.0)) + (13.0); //reta e
 5622              		.loc 1 504 0 is_stmt 1
 5623 29c6 D721     		mov	r1, #215
 5624 29c8 8900     		lsl	r1, r1, #2
 5625 29ca C919     		add	r1, r1, r7
 5626 29cc 0B68     		ldr	r3, [r1]
 5627 29ce 5B42     		neg	r3, r3
 5628 29d0 181C     		mov	r0, r3
 5629 29d2 FFF7FEFF 		bl	__aeabi_i2d
 5630 29d6 031C     		mov	r3, r0
 5631 29d8 0C1C     		mov	r4, r1
 5632 29da 181C     		mov	r0, r3
 5633 29dc 211C     		mov	r1, r4
 5634 29de 7D4B     		ldr	r3, .L367+4
 5635 29e0 7B4A     		ldr	r2, .L367
 5636 29e2 FFF7FEFF 		bl	__aeabi_ddiv
 5637 29e6 031C     		mov	r3, r0
 5638 29e8 0C1C     		mov	r4, r1
 5639 29ea 181C     		mov	r0, r3
 5640 29ec 211C     		mov	r1, r4
 5641 29ee FFF7FEFF 		bl	__aeabi_d2f
 5642 29f2 031C     		add	r3, r0, #0
 5643 29f4 181C     		add	r0, r3, #0
 5644 29f6 FFF7FEFF 		bl	__aeabi_f2d
 5645 29fa 031C     		mov	r3, r0
 5646 29fc 0C1C     		mov	r4, r1
 5647 29fe 181C     		mov	r0, r3
 5648 2a00 211C     		mov	r1, r4
 5649 2a02 754A     		ldr	r2, .L367+8
 5650 2a04 754B     		ldr	r3, .L367+12
 5651 2a06 FFF7FEFF 		bl	__aeabi_dadd
 5652 2a0a 031C     		mov	r3, r0
 5653 2a0c 0C1C     		mov	r4, r1
 5654 2a0e D422     		mov	r2, #212
 5655 2a10 9200     		lsl	r2, r2, #2
 5656 2a12 D219     		add	r2, r2, r7
 5657 2a14 1360     		str	r3, [r2]
 5658 2a16 5460     		str	r4, [r2, #4]
 505:../Sources/main.c **** 				if (grausaida > z)
 5659              		.loc 1 505 0
 5660 2a18 D423     		mov	r3, #212
 5661 2a1a 9B00     		lsl	r3, r3, #2
 5662 2a1c DB19     		add	r3, r3, r7
 5663 2a1e 1868     		ldr	r0, [r3]
 5664 2a20 5968     		ldr	r1, [r3, #4]
 5665 2a22 DC24     		mov	r4, #220
 5666 2a24 A400     		lsl	r4, r4, #2
 5667 2a26 E419     		add	r4, r4, r7
 5668 2a28 2268     		ldr	r2, [r4]
 5669 2a2a 6368     		ldr	r3, [r4, #4]
 5670 2a2c FFF7FEFF 		bl	__aeabi_dcmpgt
 5671 2a30 031C     		mov	r3, r0
 5672 2a32 002B     		cmp	r3, #0
 5673 2a34 09D0     		beq	.L215
 5674              	.L310:
 506:../Sources/main.c **** 					grausaida = z;
 5675              		.loc 1 506 0
 5676 2a36 DC21     		mov	r1, #220
 5677 2a38 8900     		lsl	r1, r1, #2
 5678 2a3a C919     		add	r1, r1, r7
 5679 2a3c 0B68     		ldr	r3, [r1]
 5680 2a3e 4C68     		ldr	r4, [r1, #4]
 5681 2a40 D422     		mov	r2, #212
 5682 2a42 9200     		lsl	r2, r2, #2
 5683 2a44 D219     		add	r2, r2, r7
 5684 2a46 1360     		str	r3, [r2]
 5685 2a48 5460     		str	r4, [r2, #4]
 5686              	.L215:
 507:../Sources/main.c **** 				if (area[i] <= grausaida)
 5687              		.loc 1 507 0
 5688 2a4a 694B     		ldr	r3, .L367+32
 5689 2a4c EC24     		mov	r4, #236
 5690 2a4e A400     		lsl	r4, r4, #2
 5691 2a50 E419     		add	r4, r4, r7
 5692 2a52 E218     		add	r2, r4, r3
 5693 2a54 EB21     		mov	r1, #235
 5694 2a56 8900     		lsl	r1, r1, #2
 5695 2a58 C919     		add	r1, r1, r7
 5696 2a5a 0B68     		ldr	r3, [r1]
 5697 2a5c DB00     		lsl	r3, r3, #3
 5698 2a5e D318     		add	r3, r2, r3
 5699 2a60 5C68     		ldr	r4, [r3, #4]
 5700 2a62 1B68     		ldr	r3, [r3]
 5701 2a64 181C     		mov	r0, r3
 5702 2a66 211C     		mov	r1, r4
 5703 2a68 D424     		mov	r4, #212
 5704 2a6a A400     		lsl	r4, r4, #2
 5705 2a6c E419     		add	r4, r4, r7
 5706 2a6e 2268     		ldr	r2, [r4]
 5707 2a70 6368     		ldr	r3, [r4, #4]
 5708 2a72 FFF7FEFF 		bl	__aeabi_dcmple
 5709 2a76 031C     		mov	r3, r0
 5710 2a78 002B     		cmp	r3, #0
 5711 2a7a 11D0     		beq	.L209
 5712              	.L311:
 508:../Sources/main.c **** 					area[i] = grausaida;
 5713              		.loc 1 508 0
 5714 2a7c 5C4B     		ldr	r3, .L367+32
 5715 2a7e EC21     		mov	r1, #236
 5716 2a80 8900     		lsl	r1, r1, #2
 5717 2a82 C919     		add	r1, r1, r7
 5718 2a84 CA18     		add	r2, r1, r3
 5719 2a86 EB24     		mov	r4, #235
 5720 2a88 A400     		lsl	r4, r4, #2
 5721 2a8a E419     		add	r4, r4, r7
 5722 2a8c 2368     		ldr	r3, [r4]
 5723 2a8e DB00     		lsl	r3, r3, #3
 5724 2a90 D218     		add	r2, r2, r3
 5725 2a92 D421     		mov	r1, #212
 5726 2a94 8900     		lsl	r1, r1, #2
 5727 2a96 C919     		add	r1, r1, r7
 5728 2a98 0B68     		ldr	r3, [r1]
 5729 2a9a 4C68     		ldr	r4, [r1, #4]
 5730 2a9c 1360     		str	r3, [r2]
 5731 2a9e 5460     		str	r4, [r2, #4]
 5732              	.L209:
 509:../Sources/main.c **** 			}
 510:../Sources/main.c **** 			servang = servang + 10;
 5733              		.loc 1 510 0
 5734 2aa0 D722     		mov	r2, #215
 5735 2aa2 9200     		lsl	r2, r2, #2
 5736 2aa4 D219     		add	r2, r2, r7
 5737 2aa6 1368     		ldr	r3, [r2]
 5738 2aa8 0A33     		add	r3, r3, #10
 5739 2aaa D724     		mov	r4, #215
 5740 2aac A400     		lsl	r4, r4, #2
 5741 2aae E419     		add	r4, r4, r7
 5742 2ab0 2360     		str	r3, [r4]
 488:../Sources/main.c **** 		for (i = 0; i < 100; i++) {
 5743              		.loc 1 488 0
 5744 2ab2 EB21     		mov	r1, #235
 5745 2ab4 8900     		lsl	r1, r1, #2
 5746 2ab6 C919     		add	r1, r1, r7
 5747 2ab8 0B68     		ldr	r3, [r1]
 5748 2aba 0133     		add	r3, r3, #1
 5749 2abc EB22     		mov	r2, #235
 5750 2abe 9200     		lsl	r2, r2, #2
 5751 2ac0 D219     		add	r2, r2, r7
 5752 2ac2 1360     		str	r3, [r2]
 5753              	.L206:
 488:../Sources/main.c **** 		for (i = 0; i < 100; i++) {
 5754              		.loc 1 488 0 is_stmt 0
 5755 2ac4 EB24     		mov	r4, #235
 5756 2ac6 A400     		lsl	r4, r4, #2
 5757 2ac8 E419     		add	r4, r4, r7
 5758 2aca 2368     		ldr	r3, [r4]
 5759 2acc 632B     		cmp	r3, #99
 5760 2ace 00DC     		bgt	.LCB5010
 5761 2ad0 B8E6     		b	.L218	@long jump
 5762              	.LCB5010:
 511:../Sources/main.c **** 		}
 512:../Sources/main.c **** 		servang = 1000;
 5763              		.loc 1 512 0 is_stmt 1
 5764 2ad2 FA23     		mov	r3, #250
 5765 2ad4 9B00     		lsl	r3, r3, #2
 5766 2ad6 D721     		mov	r1, #215
 5767 2ad8 8900     		lsl	r1, r1, #2
 5768 2ada C919     		add	r1, r1, r7
 5769 2adc 0B60     		str	r3, [r1]
 513:../Sources/main.c **** //--------- R e R -----------
 514:../Sources/main.c **** 		if (graur < graura) {
 5770              		.loc 1 514 0
 5771 2ade E622     		mov	r2, #230
 5772 2ae0 9200     		lsl	r2, r2, #2
 5773 2ae2 D219     		add	r2, r2, r7
 5774 2ae4 1068     		ldr	r0, [r2]
 5775 2ae6 5168     		ldr	r1, [r2, #4]
 5776 2ae8 E224     		mov	r4, #226
 5777 2aea A400     		lsl	r4, r4, #2
 5778 2aec E419     		add	r4, r4, r7
 5779 2aee 2268     		ldr	r2, [r4]
 5780 2af0 6368     		ldr	r3, [r4, #4]
 5781 2af2 FFF7FEFF 		bl	__aeabi_dcmplt
 5782 2af6 031C     		mov	r3, r0
 5783 2af8 002B     		cmp	r3, #0
 5784 2afa 0AD0     		beq	.L335
 5785              	.L312:
 515:../Sources/main.c **** 			pb = graur;
 5786              		.loc 1 515 0
 5787 2afc E621     		mov	r1, #230
 5788 2afe 8900     		lsl	r1, r1, #2
 5789 2b00 C919     		add	r1, r1, r7
 5790 2b02 0B68     		ldr	r3, [r1]
 5791 2b04 4C68     		ldr	r4, [r1, #4]
 5792 2b06 D822     		mov	r2, #216
 5793 2b08 9200     		lsl	r2, r2, #2
 5794 2b0a D219     		add	r2, r2, r7
 5795 2b0c 1360     		str	r3, [r2]
 5796 2b0e 5460     		str	r4, [r2, #4]
 5797 2b10 09E0     		b	.L221
 5798              	.L335:
 516:../Sources/main.c **** 		} else
 517:../Sources/main.c **** 			pb = graura;
 5799              		.loc 1 517 0
 5800 2b12 E221     		mov	r1, #226
 5801 2b14 8900     		lsl	r1, r1, #2
 5802 2b16 C919     		add	r1, r1, r7
 5803 2b18 0B68     		ldr	r3, [r1]
 5804 2b1a 4C68     		ldr	r4, [r1, #4]
 5805 2b1c D822     		mov	r2, #216
 5806 2b1e 9200     		lsl	r2, r2, #2
 5807 2b20 D219     		add	r2, r2, r7
 5808 2b22 1360     		str	r3, [r2]
 5809 2b24 5460     		str	r4, [r2, #4]
 5810              	.L221:
 518:../Sources/main.c **** 
 519:../Sources/main.c **** 		for (i = 0; i < 100; i++) {
 5811              		.loc 1 519 0
 5812 2b26 0023     		mov	r3, #0
 5813 2b28 EB24     		mov	r4, #235
 5814 2b2a A400     		lsl	r4, r4, #2
 5815 2b2c E419     		add	r4, r4, r7
 5816 2b2e 2360     		str	r3, [r4]
 5817 2b30 EEE0     		b	.L222
 5818              	.L230:
 520:../Sources/main.c **** 			if (servang > 1750) {
 5819              		.loc 1 520 0
 5820 2b32 D721     		mov	r1, #215
 5821 2b34 8900     		lsl	r1, r1, #2
 5822 2b36 C919     		add	r1, r1, r7
 5823 2b38 0A68     		ldr	r2, [r1]
 5824 2b3a 2E4B     		ldr	r3, .L367+36
 5825 2b3c 9A42     		cmp	r2, r3
 5826 2b3e 36DD     		ble	.L223
 521:../Sources/main.c **** 				grausaida = pb;
 5827              		.loc 1 521 0
 5828 2b40 D822     		mov	r2, #216
 5829 2b42 9200     		lsl	r2, r2, #2
 5830 2b44 D219     		add	r2, r2, r7
 5831 2b46 1368     		ldr	r3, [r2]
 5832 2b48 5468     		ldr	r4, [r2, #4]
 5833 2b4a D421     		mov	r1, #212
 5834 2b4c 8900     		lsl	r1, r1, #2
 5835 2b4e C919     		add	r1, r1, r7
 5836 2b50 0B60     		str	r3, [r1]
 5837 2b52 4C60     		str	r4, [r1, #4]
 522:../Sources/main.c **** 				if (area[i] <= grausaida)
 5838              		.loc 1 522 0
 5839 2b54 264B     		ldr	r3, .L367+32
 5840 2b56 EC24     		mov	r4, #236
 5841 2b58 A400     		lsl	r4, r4, #2
 5842 2b5a E419     		add	r4, r4, r7
 5843 2b5c E218     		add	r2, r4, r3
 5844 2b5e EB21     		mov	r1, #235
 5845 2b60 8900     		lsl	r1, r1, #2
 5846 2b62 C919     		add	r1, r1, r7
 5847 2b64 0B68     		ldr	r3, [r1]
 5848 2b66 DB00     		lsl	r3, r3, #3
 5849 2b68 D318     		add	r3, r2, r3
 5850 2b6a 5C68     		ldr	r4, [r3, #4]
 5851 2b6c 1B68     		ldr	r3, [r3]
 5852 2b6e 181C     		mov	r0, r3
 5853 2b70 211C     		mov	r1, r4
 5854 2b72 D424     		mov	r4, #212
 5855 2b74 A400     		lsl	r4, r4, #2
 5856 2b76 E419     		add	r4, r4, r7
 5857 2b78 2268     		ldr	r2, [r4]
 5858 2b7a 6368     		ldr	r3, [r4, #4]
 5859 2b7c FFF7FEFF 		bl	__aeabi_dcmple
 5860 2b80 031C     		mov	r3, r0
 5861 2b82 002B     		cmp	r3, #0
 5862 2b84 00D1     		bne	.LCB5097
 5863 2b86 B1E0     		b	.L224	@long jump
 5864              	.LCB5097:
 5865              	.L313:
 523:../Sources/main.c **** 					area[i] = grausaida;
 5866              		.loc 1 523 0
 5867 2b88 194B     		ldr	r3, .L367+32
 5868 2b8a EC21     		mov	r1, #236
 5869 2b8c 8900     		lsl	r1, r1, #2
 5870 2b8e C919     		add	r1, r1, r7
 5871 2b90 CA18     		add	r2, r1, r3
 5872 2b92 EB24     		mov	r4, #235
 5873 2b94 A400     		lsl	r4, r4, #2
 5874 2b96 E419     		add	r4, r4, r7
 5875 2b98 2368     		ldr	r3, [r4]
 5876 2b9a DB00     		lsl	r3, r3, #3
 5877 2b9c D218     		add	r2, r2, r3
 5878 2b9e D421     		mov	r1, #212
 5879 2ba0 8900     		lsl	r1, r1, #2
 5880 2ba2 C919     		add	r1, r1, r7
 5881 2ba4 0B68     		ldr	r3, [r1]
 5882 2ba6 4C68     		ldr	r4, [r1, #4]
 5883 2ba8 1360     		str	r3, [r2]
 5884 2baa 5460     		str	r4, [r2, #4]
 5885 2bac 9EE0     		b	.L224
 5886              	.L223:
 524:../Sources/main.c **** 
 525:../Sources/main.c **** 			} else if (servang < 1625) {
 5887              		.loc 1 525 0
 5888 2bae D723     		mov	r3, #215
 5889 2bb0 9B00     		lsl	r3, r3, #2
 5890 2bb2 DB19     		add	r3, r3, r7
 5891 2bb4 1A68     		ldr	r2, [r3]
 5892 2bb6 CB23     		mov	r3, #203
 5893 2bb8 DB00     		lsl	r3, r3, #3
 5894 2bba 9A42     		cmp	r2, r3
 5895 2bbc 1CDC     		bgt	.L226
 526:../Sources/main.c **** 				grausaida = 0;
 5896              		.loc 1 526 0
 5897 2bbe 084B     		ldr	r3, .L367+16
 5898 2bc0 084C     		ldr	r4, .L367+20
 5899 2bc2 D421     		mov	r1, #212
 5900 2bc4 8900     		lsl	r1, r1, #2
 5901 2bc6 C919     		add	r1, r1, r7
 5902 2bc8 0B60     		str	r3, [r1]
 5903 2bca 4C60     		str	r4, [r1, #4]
 5904 2bcc 8EE0     		b	.L224
 5905              	.L368:
 5906 2bce C046     		.align	3
 5907              	.L367:
 5908 2bd0 00000000 		.word	0
 5909 2bd4 00405F40 		.word	1079984128
 5910 2bd8 00000000 		.word	0
 5911 2bdc 00002A40 		.word	1076494336
 5912 2be0 00000000 		.word	0
 5913 2be4 00000000 		.word	0
 5914 2be8 DB050000 		.word	1499
 5915 2bec 59060000 		.word	1625
 5916 2bf0 50FCFFFF 		.word	-944
 5917 2bf4 D6060000 		.word	1750
 5918              	.L226:
 527:../Sources/main.c **** 			} else if (servang >= 1625 && servang <= 1750) {
 5919              		.loc 1 527 0
 5920 2bf8 D723     		mov	r3, #215
 5921 2bfa 9B00     		lsl	r3, r3, #2
 5922 2bfc DB19     		add	r3, r3, r7
 5923 2bfe 1A68     		ldr	r2, [r3]
 5924 2c00 CB23     		mov	r3, #203
 5925 2c02 DB00     		lsl	r3, r3, #3
 5926 2c04 9A42     		cmp	r2, r3
 5927 2c06 71DD     		ble	.L224
 5928              		.loc 1 527 0 is_stmt 0
 5929 2c08 D724     		mov	r4, #215
 5930 2c0a A400     		lsl	r4, r4, #2
 5931 2c0c E419     		add	r4, r4, r7
 5932 2c0e 2268     		ldr	r2, [r4]
 5933 2c10 DB4B     		ldr	r3, .L369+24
 5934 2c12 9A42     		cmp	r2, r3
 5935 2c14 6ADC     		bgt	.L224
 528:../Sources/main.c **** 				grausaida = ((float) (servang / 125.0)) - (13.0); // reta h
 5936              		.loc 1 528 0 is_stmt 1
 5937 2c16 D721     		mov	r1, #215
 5938 2c18 8900     		lsl	r1, r1, #2
 5939 2c1a C919     		add	r1, r1, r7
 5940 2c1c 0868     		ldr	r0, [r1]
 5941 2c1e FFF7FEFF 		bl	__aeabi_i2d
 5942 2c22 031C     		mov	r3, r0
 5943 2c24 0C1C     		mov	r4, r1
 5944 2c26 181C     		mov	r0, r3
 5945 2c28 211C     		mov	r1, r4
 5946 2c2a D04B     		ldr	r3, .L369+4
 5947 2c2c CE4A     		ldr	r2, .L369
 5948 2c2e FFF7FEFF 		bl	__aeabi_ddiv
 5949 2c32 031C     		mov	r3, r0
 5950 2c34 0C1C     		mov	r4, r1
 5951 2c36 181C     		mov	r0, r3
 5952 2c38 211C     		mov	r1, r4
 5953 2c3a FFF7FEFF 		bl	__aeabi_d2f
 5954 2c3e 031C     		add	r3, r0, #0
 5955 2c40 181C     		add	r0, r3, #0
 5956 2c42 FFF7FEFF 		bl	__aeabi_f2d
 5957 2c46 031C     		mov	r3, r0
 5958 2c48 0C1C     		mov	r4, r1
 5959 2c4a 181C     		mov	r0, r3
 5960 2c4c 211C     		mov	r1, r4
 5961 2c4e C84A     		ldr	r2, .L369+8
 5962 2c50 C84B     		ldr	r3, .L369+12
 5963 2c52 FFF7FEFF 		bl	__aeabi_dsub
 5964 2c56 031C     		mov	r3, r0
 5965 2c58 0C1C     		mov	r4, r1
 5966 2c5a D422     		mov	r2, #212
 5967 2c5c 9200     		lsl	r2, r2, #2
 5968 2c5e D219     		add	r2, r2, r7
 5969 2c60 1360     		str	r3, [r2]
 5970 2c62 5460     		str	r4, [r2, #4]
 529:../Sources/main.c **** 				if (grausaida > pb)
 5971              		.loc 1 529 0
 5972 2c64 D423     		mov	r3, #212
 5973 2c66 9B00     		lsl	r3, r3, #2
 5974 2c68 DB19     		add	r3, r3, r7
 5975 2c6a 1868     		ldr	r0, [r3]
 5976 2c6c 5968     		ldr	r1, [r3, #4]
 5977 2c6e D824     		mov	r4, #216
 5978 2c70 A400     		lsl	r4, r4, #2
 5979 2c72 E419     		add	r4, r4, r7
 5980 2c74 2268     		ldr	r2, [r4]
 5981 2c76 6368     		ldr	r3, [r4, #4]
 5982 2c78 FFF7FEFF 		bl	__aeabi_dcmpgt
 5983 2c7c 031C     		mov	r3, r0
 5984 2c7e 002B     		cmp	r3, #0
 5985 2c80 09D0     		beq	.L227
 5986              	.L314:
 530:../Sources/main.c **** 					grausaida = pb;
 5987              		.loc 1 530 0
 5988 2c82 D821     		mov	r1, #216
 5989 2c84 8900     		lsl	r1, r1, #2
 5990 2c86 C919     		add	r1, r1, r7
 5991 2c88 0B68     		ldr	r3, [r1]
 5992 2c8a 4C68     		ldr	r4, [r1, #4]
 5993 2c8c D422     		mov	r2, #212
 5994 2c8e 9200     		lsl	r2, r2, #2
 5995 2c90 D219     		add	r2, r2, r7
 5996 2c92 1360     		str	r3, [r2]
 5997 2c94 5460     		str	r4, [r2, #4]
 5998              	.L227:
 531:../Sources/main.c **** 				if (area[i] <= grausaida)
 5999              		.loc 1 531 0
 6000 2c96 BB4B     		ldr	r3, .L369+28
 6001 2c98 EC24     		mov	r4, #236
 6002 2c9a A400     		lsl	r4, r4, #2
 6003 2c9c E419     		add	r4, r4, r7
 6004 2c9e E218     		add	r2, r4, r3
 6005 2ca0 EB21     		mov	r1, #235
 6006 2ca2 8900     		lsl	r1, r1, #2
 6007 2ca4 C919     		add	r1, r1, r7
 6008 2ca6 0B68     		ldr	r3, [r1]
 6009 2ca8 DB00     		lsl	r3, r3, #3
 6010 2caa D318     		add	r3, r2, r3
 6011 2cac 5C68     		ldr	r4, [r3, #4]
 6012 2cae 1B68     		ldr	r3, [r3]
 6013 2cb0 181C     		mov	r0, r3
 6014 2cb2 211C     		mov	r1, r4
 6015 2cb4 D424     		mov	r4, #212
 6016 2cb6 A400     		lsl	r4, r4, #2
 6017 2cb8 E419     		add	r4, r4, r7
 6018 2cba 2268     		ldr	r2, [r4]
 6019 2cbc 6368     		ldr	r3, [r4, #4]
 6020 2cbe FFF7FEFF 		bl	__aeabi_dcmple
 6021 2cc2 031C     		mov	r3, r0
 6022 2cc4 002B     		cmp	r3, #0
 6023 2cc6 11D0     		beq	.L224
 6024              	.L315:
 532:../Sources/main.c **** 					area[i] = grausaida;
 6025              		.loc 1 532 0
 6026 2cc8 AE4B     		ldr	r3, .L369+28
 6027 2cca EC21     		mov	r1, #236
 6028 2ccc 8900     		lsl	r1, r1, #2
 6029 2cce C919     		add	r1, r1, r7
 6030 2cd0 CA18     		add	r2, r1, r3
 6031 2cd2 EB24     		mov	r4, #235
 6032 2cd4 A400     		lsl	r4, r4, #2
 6033 2cd6 E419     		add	r4, r4, r7
 6034 2cd8 2368     		ldr	r3, [r4]
 6035 2cda DB00     		lsl	r3, r3, #3
 6036 2cdc D218     		add	r2, r2, r3
 6037 2cde D421     		mov	r1, #212
 6038 2ce0 8900     		lsl	r1, r1, #2
 6039 2ce2 C919     		add	r1, r1, r7
 6040 2ce4 0B68     		ldr	r3, [r1]
 6041 2ce6 4C68     		ldr	r4, [r1, #4]
 6042 2ce8 1360     		str	r3, [r2]
 6043 2cea 5460     		str	r4, [r2, #4]
 6044              	.L224:
 533:../Sources/main.c **** 			}
 534:../Sources/main.c **** 
 535:../Sources/main.c **** 			servang = servang + 10;
 6045              		.loc 1 535 0
 6046 2cec D722     		mov	r2, #215
 6047 2cee 9200     		lsl	r2, r2, #2
 6048 2cf0 D219     		add	r2, r2, r7
 6049 2cf2 1368     		ldr	r3, [r2]
 6050 2cf4 0A33     		add	r3, r3, #10
 6051 2cf6 D724     		mov	r4, #215
 6052 2cf8 A400     		lsl	r4, r4, #2
 6053 2cfa E419     		add	r4, r4, r7
 6054 2cfc 2360     		str	r3, [r4]
 519:../Sources/main.c **** 		for (i = 0; i < 100; i++) {
 6055              		.loc 1 519 0
 6056 2cfe EB21     		mov	r1, #235
 6057 2d00 8900     		lsl	r1, r1, #2
 6058 2d02 C919     		add	r1, r1, r7
 6059 2d04 0B68     		ldr	r3, [r1]
 6060 2d06 0133     		add	r3, r3, #1
 6061 2d08 EB22     		mov	r2, #235
 6062 2d0a 9200     		lsl	r2, r2, #2
 6063 2d0c D219     		add	r2, r2, r7
 6064 2d0e 1360     		str	r3, [r2]
 6065              	.L222:
 519:../Sources/main.c **** 		for (i = 0; i < 100; i++) {
 6066              		.loc 1 519 0 is_stmt 0
 6067 2d10 EB24     		mov	r4, #235
 6068 2d12 A400     		lsl	r4, r4, #2
 6069 2d14 E419     		add	r4, r4, r7
 6070 2d16 2368     		ldr	r3, [r4]
 6071 2d18 632B     		cmp	r3, #99
 6072 2d1a 00DC     		bgt	.LCB5283
 6073 2d1c 09E7     		b	.L230	@long jump
 6074              	.LCB5283:
 536:../Sources/main.c **** 		}
 537:../Sources/main.c **** 		servang = 1000;
 6075              		.loc 1 537 0 is_stmt 1
 6076 2d1e FA23     		mov	r3, #250
 6077 2d20 9B00     		lsl	r3, r3, #2
 6078 2d22 D721     		mov	r1, #215
 6079 2d24 8900     		lsl	r1, r1, #2
 6080 2d26 C919     		add	r1, r1, r7
 6081 2d28 0B60     		str	r3, [r1]
 538:../Sources/main.c **** //--------- R e VR -----------
 539:../Sources/main.c **** 		if (grauvr < graura) {
 6082              		.loc 1 539 0
 6083 2d2a E422     		mov	r2, #228
 6084 2d2c 9200     		lsl	r2, r2, #2
 6085 2d2e D219     		add	r2, r2, r7
 6086 2d30 1068     		ldr	r0, [r2]
 6087 2d32 5168     		ldr	r1, [r2, #4]
 6088 2d34 E224     		mov	r4, #226
 6089 2d36 A400     		lsl	r4, r4, #2
 6090 2d38 E419     		add	r4, r4, r7
 6091 2d3a 2268     		ldr	r2, [r4]
 6092 2d3c 6368     		ldr	r3, [r4, #4]
 6093 2d3e FFF7FEFF 		bl	__aeabi_dcmplt
 6094 2d42 031C     		mov	r3, r0
 6095 2d44 002B     		cmp	r3, #0
 6096 2d46 0AD0     		beq	.L336
 6097              	.L316:
 540:../Sources/main.c **** 			pb = grauvr;
 6098              		.loc 1 540 0
 6099 2d48 E421     		mov	r1, #228
 6100 2d4a 8900     		lsl	r1, r1, #2
 6101 2d4c C919     		add	r1, r1, r7
 6102 2d4e 0B68     		ldr	r3, [r1]
 6103 2d50 4C68     		ldr	r4, [r1, #4]
 6104 2d52 D822     		mov	r2, #216
 6105 2d54 9200     		lsl	r2, r2, #2
 6106 2d56 D219     		add	r2, r2, r7
 6107 2d58 1360     		str	r3, [r2]
 6108 2d5a 5460     		str	r4, [r2, #4]
 6109 2d5c 09E0     		b	.L233
 6110              	.L336:
 541:../Sources/main.c **** 		} else
 542:../Sources/main.c **** 			pb = graura;
 6111              		.loc 1 542 0
 6112 2d5e E221     		mov	r1, #226
 6113 2d60 8900     		lsl	r1, r1, #2
 6114 2d62 C919     		add	r1, r1, r7
 6115 2d64 0B68     		ldr	r3, [r1]
 6116 2d66 4C68     		ldr	r4, [r1, #4]
 6117 2d68 D822     		mov	r2, #216
 6118 2d6a 9200     		lsl	r2, r2, #2
 6119 2d6c D219     		add	r2, r2, r7
 6120 2d6e 1360     		str	r3, [r2]
 6121 2d70 5460     		str	r4, [r2, #4]
 6122              	.L233:
 543:../Sources/main.c **** 
 544:../Sources/main.c **** 		for (i = 0; i < 100; i++) {
 6123              		.loc 1 544 0
 6124 2d72 0023     		mov	r3, #0
 6125 2d74 EB24     		mov	r4, #235
 6126 2d76 A400     		lsl	r4, r4, #2
 6127 2d78 E419     		add	r4, r4, r7
 6128 2d7a 2360     		str	r3, [r4]
 6129 2d7c D9E0     		b	.L234
 6130              	.L242:
 545:../Sources/main.c **** 			if (servang > 1750) {
 6131              		.loc 1 545 0
 6132 2d7e D721     		mov	r1, #215
 6133 2d80 8900     		lsl	r1, r1, #2
 6134 2d82 C919     		add	r1, r1, r7
 6135 2d84 0A68     		ldr	r2, [r1]
 6136 2d86 7E4B     		ldr	r3, .L369+24
 6137 2d88 9A42     		cmp	r2, r3
 6138 2d8a 36DD     		ble	.L235
 546:../Sources/main.c **** 				grausaida = pb;
 6139              		.loc 1 546 0
 6140 2d8c D822     		mov	r2, #216
 6141 2d8e 9200     		lsl	r2, r2, #2
 6142 2d90 D219     		add	r2, r2, r7
 6143 2d92 1368     		ldr	r3, [r2]
 6144 2d94 5468     		ldr	r4, [r2, #4]
 6145 2d96 D421     		mov	r1, #212
 6146 2d98 8900     		lsl	r1, r1, #2
 6147 2d9a C919     		add	r1, r1, r7
 6148 2d9c 0B60     		str	r3, [r1]
 6149 2d9e 4C60     		str	r4, [r1, #4]
 547:../Sources/main.c **** 				if (area[i] <= grausaida)
 6150              		.loc 1 547 0
 6151 2da0 784B     		ldr	r3, .L369+28
 6152 2da2 EC24     		mov	r4, #236
 6153 2da4 A400     		lsl	r4, r4, #2
 6154 2da6 E419     		add	r4, r4, r7
 6155 2da8 E218     		add	r2, r4, r3
 6156 2daa EB21     		mov	r1, #235
 6157 2dac 8900     		lsl	r1, r1, #2
 6158 2dae C919     		add	r1, r1, r7
 6159 2db0 0B68     		ldr	r3, [r1]
 6160 2db2 DB00     		lsl	r3, r3, #3
 6161 2db4 D318     		add	r3, r2, r3
 6162 2db6 5C68     		ldr	r4, [r3, #4]
 6163 2db8 1B68     		ldr	r3, [r3]
 6164 2dba 181C     		mov	r0, r3
 6165 2dbc 211C     		mov	r1, r4
 6166 2dbe D424     		mov	r4, #212
 6167 2dc0 A400     		lsl	r4, r4, #2
 6168 2dc2 E419     		add	r4, r4, r7
 6169 2dc4 2268     		ldr	r2, [r4]
 6170 2dc6 6368     		ldr	r3, [r4, #4]
 6171 2dc8 FFF7FEFF 		bl	__aeabi_dcmple
 6172 2dcc 031C     		mov	r3, r0
 6173 2dce 002B     		cmp	r3, #0
 6174 2dd0 00D1     		bne	.LCB5370
 6175 2dd2 9CE0     		b	.L236	@long jump
 6176              	.LCB5370:
 6177              	.L317:
 548:../Sources/main.c **** 					area[i] = grausaida;
 6178              		.loc 1 548 0
 6179 2dd4 6B4B     		ldr	r3, .L369+28
 6180 2dd6 EC21     		mov	r1, #236
 6181 2dd8 8900     		lsl	r1, r1, #2
 6182 2dda C919     		add	r1, r1, r7
 6183 2ddc CA18     		add	r2, r1, r3
 6184 2dde EB24     		mov	r4, #235
 6185 2de0 A400     		lsl	r4, r4, #2
 6186 2de2 E419     		add	r4, r4, r7
 6187 2de4 2368     		ldr	r3, [r4]
 6188 2de6 DB00     		lsl	r3, r3, #3
 6189 2de8 D218     		add	r2, r2, r3
 6190 2dea D421     		mov	r1, #212
 6191 2dec 8900     		lsl	r1, r1, #2
 6192 2dee C919     		add	r1, r1, r7
 6193 2df0 0B68     		ldr	r3, [r1]
 6194 2df2 4C68     		ldr	r4, [r1, #4]
 6195 2df4 1360     		str	r3, [r2]
 6196 2df6 5460     		str	r4, [r2, #4]
 6197 2df8 89E0     		b	.L236
 6198              	.L235:
 549:../Sources/main.c **** 
 550:../Sources/main.c **** 			} else if (servang < 1625) {
 6199              		.loc 1 550 0
 6200 2dfa D723     		mov	r3, #215
 6201 2dfc 9B00     		lsl	r3, r3, #2
 6202 2dfe DB19     		add	r3, r3, r7
 6203 2e00 1A68     		ldr	r2, [r3]
 6204 2e02 CB23     		mov	r3, #203
 6205 2e04 DB00     		lsl	r3, r3, #3
 6206 2e06 9A42     		cmp	r2, r3
 6207 2e08 07DC     		bgt	.L238
 551:../Sources/main.c **** 				grausaida = 0;
 6208              		.loc 1 551 0
 6209 2e0a 5B4B     		ldr	r3, .L369+16
 6210 2e0c 5B4C     		ldr	r4, .L369+20
 6211 2e0e D421     		mov	r1, #212
 6212 2e10 8900     		lsl	r1, r1, #2
 6213 2e12 C919     		add	r1, r1, r7
 6214 2e14 0B60     		str	r3, [r1]
 6215 2e16 4C60     		str	r4, [r1, #4]
 6216 2e18 79E0     		b	.L236
 6217              	.L238:
 552:../Sources/main.c **** 			} else if (servang >= 1625 && servang <= 1750) {
 6218              		.loc 1 552 0
 6219 2e1a D723     		mov	r3, #215
 6220 2e1c 9B00     		lsl	r3, r3, #2
 6221 2e1e DB19     		add	r3, r3, r7
 6222 2e20 1A68     		ldr	r2, [r3]
 6223 2e22 CB23     		mov	r3, #203
 6224 2e24 DB00     		lsl	r3, r3, #3
 6225 2e26 9A42     		cmp	r2, r3
 6226 2e28 71DD     		ble	.L236
 6227              		.loc 1 552 0 is_stmt 0
 6228 2e2a D724     		mov	r4, #215
 6229 2e2c A400     		lsl	r4, r4, #2
 6230 2e2e E419     		add	r4, r4, r7
 6231 2e30 2268     		ldr	r2, [r4]
 6232 2e32 534B     		ldr	r3, .L369+24
 6233 2e34 9A42     		cmp	r2, r3
 6234 2e36 6ADC     		bgt	.L236
 553:../Sources/main.c **** 				grausaida = ((float) (servang / 125.0)) - (13.0); // reta h
 6235              		.loc 1 553 0 is_stmt 1
 6236 2e38 D721     		mov	r1, #215
 6237 2e3a 8900     		lsl	r1, r1, #2
 6238 2e3c C919     		add	r1, r1, r7
 6239 2e3e 0868     		ldr	r0, [r1]
 6240 2e40 FFF7FEFF 		bl	__aeabi_i2d
 6241 2e44 031C     		mov	r3, r0
 6242 2e46 0C1C     		mov	r4, r1
 6243 2e48 181C     		mov	r0, r3
 6244 2e4a 211C     		mov	r1, r4
 6245 2e4c 474B     		ldr	r3, .L369+4
 6246 2e4e 464A     		ldr	r2, .L369
 6247 2e50 FFF7FEFF 		bl	__aeabi_ddiv
 6248 2e54 031C     		mov	r3, r0
 6249 2e56 0C1C     		mov	r4, r1
 6250 2e58 181C     		mov	r0, r3
 6251 2e5a 211C     		mov	r1, r4
 6252 2e5c FFF7FEFF 		bl	__aeabi_d2f
 6253 2e60 031C     		add	r3, r0, #0
 6254 2e62 181C     		add	r0, r3, #0
 6255 2e64 FFF7FEFF 		bl	__aeabi_f2d
 6256 2e68 031C     		mov	r3, r0
 6257 2e6a 0C1C     		mov	r4, r1
 6258 2e6c 181C     		mov	r0, r3
 6259 2e6e 211C     		mov	r1, r4
 6260 2e70 3F4A     		ldr	r2, .L369+8
 6261 2e72 404B     		ldr	r3, .L369+12
 6262 2e74 FFF7FEFF 		bl	__aeabi_dsub
 6263 2e78 031C     		mov	r3, r0
 6264 2e7a 0C1C     		mov	r4, r1
 6265 2e7c D422     		mov	r2, #212
 6266 2e7e 9200     		lsl	r2, r2, #2
 6267 2e80 D219     		add	r2, r2, r7
 6268 2e82 1360     		str	r3, [r2]
 6269 2e84 5460     		str	r4, [r2, #4]
 554:../Sources/main.c **** 				if (grausaida > pb)
 6270              		.loc 1 554 0
 6271 2e86 D423     		mov	r3, #212
 6272 2e88 9B00     		lsl	r3, r3, #2
 6273 2e8a DB19     		add	r3, r3, r7
 6274 2e8c 1868     		ldr	r0, [r3]
 6275 2e8e 5968     		ldr	r1, [r3, #4]
 6276 2e90 D824     		mov	r4, #216
 6277 2e92 A400     		lsl	r4, r4, #2
 6278 2e94 E419     		add	r4, r4, r7
 6279 2e96 2268     		ldr	r2, [r4]
 6280 2e98 6368     		ldr	r3, [r4, #4]
 6281 2e9a FFF7FEFF 		bl	__aeabi_dcmpgt
 6282 2e9e 031C     		mov	r3, r0
 6283 2ea0 002B     		cmp	r3, #0
 6284 2ea2 09D0     		beq	.L239
 6285              	.L318:
 555:../Sources/main.c **** 					grausaida = pb;
 6286              		.loc 1 555 0
 6287 2ea4 D821     		mov	r1, #216
 6288 2ea6 8900     		lsl	r1, r1, #2
 6289 2ea8 C919     		add	r1, r1, r7
 6290 2eaa 0B68     		ldr	r3, [r1]
 6291 2eac 4C68     		ldr	r4, [r1, #4]
 6292 2eae D422     		mov	r2, #212
 6293 2eb0 9200     		lsl	r2, r2, #2
 6294 2eb2 D219     		add	r2, r2, r7
 6295 2eb4 1360     		str	r3, [r2]
 6296 2eb6 5460     		str	r4, [r2, #4]
 6297              	.L239:
 556:../Sources/main.c **** 				if (area[i] <= grausaida)
 6298              		.loc 1 556 0
 6299 2eb8 324B     		ldr	r3, .L369+28
 6300 2eba EC24     		mov	r4, #236
 6301 2ebc A400     		lsl	r4, r4, #2
 6302 2ebe E419     		add	r4, r4, r7
 6303 2ec0 E218     		add	r2, r4, r3
 6304 2ec2 EB21     		mov	r1, #235
 6305 2ec4 8900     		lsl	r1, r1, #2
 6306 2ec6 C919     		add	r1, r1, r7
 6307 2ec8 0B68     		ldr	r3, [r1]
 6308 2eca DB00     		lsl	r3, r3, #3
 6309 2ecc D318     		add	r3, r2, r3
 6310 2ece 5C68     		ldr	r4, [r3, #4]
 6311 2ed0 1B68     		ldr	r3, [r3]
 6312 2ed2 181C     		mov	r0, r3
 6313 2ed4 211C     		mov	r1, r4
 6314 2ed6 D424     		mov	r4, #212
 6315 2ed8 A400     		lsl	r4, r4, #2
 6316 2eda E419     		add	r4, r4, r7
 6317 2edc 2268     		ldr	r2, [r4]
 6318 2ede 6368     		ldr	r3, [r4, #4]
 6319 2ee0 FFF7FEFF 		bl	__aeabi_dcmple
 6320 2ee4 031C     		mov	r3, r0
 6321 2ee6 002B     		cmp	r3, #0
 6322 2ee8 11D0     		beq	.L236
 6323              	.L319:
 557:../Sources/main.c **** 					area[i] = grausaida;
 6324              		.loc 1 557 0
 6325 2eea 264B     		ldr	r3, .L369+28
 6326 2eec EC21     		mov	r1, #236
 6327 2eee 8900     		lsl	r1, r1, #2
 6328 2ef0 C919     		add	r1, r1, r7
 6329 2ef2 CA18     		add	r2, r1, r3
 6330 2ef4 EB24     		mov	r4, #235
 6331 2ef6 A400     		lsl	r4, r4, #2
 6332 2ef8 E419     		add	r4, r4, r7
 6333 2efa 2368     		ldr	r3, [r4]
 6334 2efc DB00     		lsl	r3, r3, #3
 6335 2efe D218     		add	r2, r2, r3
 6336 2f00 D421     		mov	r1, #212
 6337 2f02 8900     		lsl	r1, r1, #2
 6338 2f04 C919     		add	r1, r1, r7
 6339 2f06 0B68     		ldr	r3, [r1]
 6340 2f08 4C68     		ldr	r4, [r1, #4]
 6341 2f0a 1360     		str	r3, [r2]
 6342 2f0c 5460     		str	r4, [r2, #4]
 6343              	.L236:
 558:../Sources/main.c **** 			}
 559:../Sources/main.c **** 
 560:../Sources/main.c **** 			servang = servang + 10;
 6344              		.loc 1 560 0
 6345 2f0e D722     		mov	r2, #215
 6346 2f10 9200     		lsl	r2, r2, #2
 6347 2f12 D219     		add	r2, r2, r7
 6348 2f14 1368     		ldr	r3, [r2]
 6349 2f16 0A33     		add	r3, r3, #10
 6350 2f18 D724     		mov	r4, #215
 6351 2f1a A400     		lsl	r4, r4, #2
 6352 2f1c E419     		add	r4, r4, r7
 6353 2f1e 2360     		str	r3, [r4]
 544:../Sources/main.c **** 		for (i = 0; i < 100; i++) {
 6354              		.loc 1 544 0
 6355 2f20 EB21     		mov	r1, #235
 6356 2f22 8900     		lsl	r1, r1, #2
 6357 2f24 C919     		add	r1, r1, r7
 6358 2f26 0B68     		ldr	r3, [r1]
 6359 2f28 0133     		add	r3, r3, #1
 6360 2f2a EB22     		mov	r2, #235
 6361 2f2c 9200     		lsl	r2, r2, #2
 6362 2f2e D219     		add	r2, r2, r7
 6363 2f30 1360     		str	r3, [r2]
 6364              	.L234:
 544:../Sources/main.c **** 		for (i = 0; i < 100; i++) {
 6365              		.loc 1 544 0 is_stmt 0
 6366 2f32 EB24     		mov	r4, #235
 6367 2f34 A400     		lsl	r4, r4, #2
 6368 2f36 E419     		add	r4, r4, r7
 6369 2f38 2368     		ldr	r3, [r4]
 6370 2f3a 632B     		cmp	r3, #99
 6371 2f3c 00DC     		bgt	.LCB5544
 6372 2f3e 1EE7     		b	.L242	@long jump
 6373              	.LCB5544:
 561:../Sources/main.c **** 		}
 562:../Sources/main.c **** 		servang = 1000;
 6374              		.loc 1 562 0 is_stmt 1
 6375 2f40 FA23     		mov	r3, #250
 6376 2f42 9B00     		lsl	r3, r3, #2
 6377 2f44 D721     		mov	r1, #215
 6378 2f46 8900     		lsl	r1, r1, #2
 6379 2f48 C919     		add	r1, r1, r7
 6380 2f4a 0B60     		str	r3, [r1]
 563:../Sources/main.c **** 
 564:../Sources/main.c **** //--------------Fim comparação de graus------------------	
 565:../Sources/main.c **** 		servang = 1000;
 6381              		.loc 1 565 0
 6382 2f4c FA23     		mov	r3, #250
 6383 2f4e 9B00     		lsl	r3, r3, #2
 6384 2f50 D722     		mov	r2, #215
 6385 2f52 9200     		lsl	r2, r2, #2
 6386 2f54 D219     		add	r2, r2, r7
 6387 2f56 1360     		str	r3, [r2]
 566:../Sources/main.c **** 		for (i = 0; i < 100; i++) {
 6388              		.loc 1 566 0
 6389 2f58 0023     		mov	r3, #0
 6390 2f5a EB24     		mov	r4, #235
 6391 2f5c A400     		lsl	r4, r4, #2
 6392 2f5e E419     		add	r4, r4, r7
 6393 2f60 2360     		str	r3, [r4]
 6394 2f62 50E0     		b	.L243
 6395              	.L370:
 6396 2f64 C046C046 		.align	3
 6397              	.L369:
 6398 2f68 00000000 		.word	0
 6399 2f6c 00405F40 		.word	1079984128
 6400 2f70 00000000 		.word	0
 6401 2f74 00002A40 		.word	1076494336
 6402 2f78 00000000 		.word	0
 6403 2f7c 00000000 		.word	0
 6404 2f80 D6060000 		.word	1750
 6405 2f84 50FCFFFF 		.word	-944
 6406              	.L244:
 567:../Sources/main.c **** 			cognumerador = cognumerador + (area[i] * servang * 1.0);
 6407              		.loc 1 567 0
 6408 2f88 794B     		ldr	r3, .L371+32
 6409 2f8a EC21     		mov	r1, #236
 6410 2f8c 8900     		lsl	r1, r1, #2
 6411 2f8e C919     		add	r1, r1, r7
 6412 2f90 CA18     		add	r2, r1, r3
 6413 2f92 EB24     		mov	r4, #235
 6414 2f94 A400     		lsl	r4, r4, #2
 6415 2f96 E419     		add	r4, r4, r7
 6416 2f98 2368     		ldr	r3, [r4]
 6417 2f9a DB00     		lsl	r3, r3, #3
 6418 2f9c D318     		add	r3, r2, r3
 6419 2f9e 1D68     		ldr	r5, [r3]
 6420 2fa0 5E68     		ldr	r6, [r3, #4]
 6421 2fa2 D721     		mov	r1, #215
 6422 2fa4 8900     		lsl	r1, r1, #2
 6423 2fa6 C919     		add	r1, r1, r7
 6424 2fa8 0868     		ldr	r0, [r1]
 6425 2faa FFF7FEFF 		bl	__aeabi_i2d
 6426 2fae 031C     		mov	r3, r0
 6427 2fb0 0C1C     		mov	r4, r1
 6428 2fb2 281C     		mov	r0, r5
 6429 2fb4 311C     		mov	r1, r6
 6430 2fb6 1A1C     		mov	r2, r3
 6431 2fb8 231C     		mov	r3, r4
 6432 2fba FFF7FEFF 		bl	__aeabi_dmul
 6433 2fbe 031C     		mov	r3, r0
 6434 2fc0 0C1C     		mov	r4, r1
 6435 2fc2 D222     		mov	r2, #210
 6436 2fc4 9200     		lsl	r2, r2, #2
 6437 2fc6 D219     		add	r2, r2, r7
 6438 2fc8 1068     		ldr	r0, [r2]
 6439 2fca 5168     		ldr	r1, [r2, #4]
 6440 2fcc 1A1C     		mov	r2, r3
 6441 2fce 231C     		mov	r3, r4
 6442 2fd0 FFF7FEFF 		bl	__aeabi_dadd
 6443 2fd4 031C     		mov	r3, r0
 6444 2fd6 0C1C     		mov	r4, r1
 6445 2fd8 D221     		mov	r1, #210
 6446 2fda 8900     		lsl	r1, r1, #2
 6447 2fdc C919     		add	r1, r1, r7
 6448 2fde 0B60     		str	r3, [r1]
 6449 2fe0 4C60     		str	r4, [r1, #4]
 568:../Sources/main.c **** 			servang = servang + 10;
 6450              		.loc 1 568 0
 6451 2fe2 D722     		mov	r2, #215
 6452 2fe4 9200     		lsl	r2, r2, #2
 6453 2fe6 D219     		add	r2, r2, r7
 6454 2fe8 1368     		ldr	r3, [r2]
 6455 2fea 0A33     		add	r3, r3, #10
 6456 2fec D724     		mov	r4, #215
 6457 2fee A400     		lsl	r4, r4, #2
 6458 2ff0 E419     		add	r4, r4, r7
 6459 2ff2 2360     		str	r3, [r4]
 566:../Sources/main.c **** 		for (i = 0; i < 100; i++) {
 6460              		.loc 1 566 0
 6461 2ff4 EB21     		mov	r1, #235
 6462 2ff6 8900     		lsl	r1, r1, #2
 6463 2ff8 C919     		add	r1, r1, r7
 6464 2ffa 0B68     		ldr	r3, [r1]
 6465 2ffc 0133     		add	r3, r3, #1
 6466 2ffe EB22     		mov	r2, #235
 6467 3000 9200     		lsl	r2, r2, #2
 6468 3002 D219     		add	r2, r2, r7
 6469 3004 1360     		str	r3, [r2]
 6470              	.L243:
 566:../Sources/main.c **** 		for (i = 0; i < 100; i++) {
 6471              		.loc 1 566 0 is_stmt 0
 6472 3006 EB24     		mov	r4, #235
 6473 3008 A400     		lsl	r4, r4, #2
 6474 300a E419     		add	r4, r4, r7
 6475 300c 2368     		ldr	r3, [r4]
 6476 300e 632B     		cmp	r3, #99
 6477 3010 BADD     		ble	.L244
 569:../Sources/main.c **** 		}
 570:../Sources/main.c **** 
 571:../Sources/main.c **** 		servang = 1000;
 6478              		.loc 1 571 0 is_stmt 1
 6479 3012 FA23     		mov	r3, #250
 6480 3014 9B00     		lsl	r3, r3, #2
 6481 3016 D721     		mov	r1, #215
 6482 3018 8900     		lsl	r1, r1, #2
 6483 301a C919     		add	r1, r1, r7
 6484 301c 0B60     		str	r3, [r1]
 572:../Sources/main.c **** 		for (i = 0; i < 100; i++) {
 6485              		.loc 1 572 0
 6486 301e 0023     		mov	r3, #0
 6487 3020 EB22     		mov	r2, #235
 6488 3022 9200     		lsl	r2, r2, #2
 6489 3024 D219     		add	r2, r2, r7
 6490 3026 1360     		str	r3, [r2]
 6491 3028 25E0     		b	.L245
 6492              	.L246:
 573:../Sources/main.c **** 			cogdenominador = cogdenominador + area[i];
 6493              		.loc 1 573 0
 6494 302a 514B     		ldr	r3, .L371+32
 6495 302c EC24     		mov	r4, #236
 6496 302e A400     		lsl	r4, r4, #2
 6497 3030 E419     		add	r4, r4, r7
 6498 3032 E218     		add	r2, r4, r3
 6499 3034 EB21     		mov	r1, #235
 6500 3036 8900     		lsl	r1, r1, #2
 6501 3038 C919     		add	r1, r1, r7
 6502 303a 0B68     		ldr	r3, [r1]
 6503 303c DB00     		lsl	r3, r3, #3
 6504 303e D318     		add	r3, r2, r3
 6505 3040 5C68     		ldr	r4, [r3, #4]
 6506 3042 1B68     		ldr	r3, [r3]
 6507 3044 D022     		mov	r2, #208
 6508 3046 9200     		lsl	r2, r2, #2
 6509 3048 D219     		add	r2, r2, r7
 6510 304a 1068     		ldr	r0, [r2]
 6511 304c 5168     		ldr	r1, [r2, #4]
 6512 304e 1A1C     		mov	r2, r3
 6513 3050 231C     		mov	r3, r4
 6514 3052 FFF7FEFF 		bl	__aeabi_dadd
 6515 3056 031C     		mov	r3, r0
 6516 3058 0C1C     		mov	r4, r1
 6517 305a D021     		mov	r1, #208
 6518 305c 8900     		lsl	r1, r1, #2
 6519 305e C919     		add	r1, r1, r7
 6520 3060 0B60     		str	r3, [r1]
 6521 3062 4C60     		str	r4, [r1, #4]
 572:../Sources/main.c **** 		for (i = 0; i < 100; i++) {
 6522              		.loc 1 572 0
 6523 3064 EB22     		mov	r2, #235
 6524 3066 9200     		lsl	r2, r2, #2
 6525 3068 D219     		add	r2, r2, r7
 6526 306a 1368     		ldr	r3, [r2]
 6527 306c 0133     		add	r3, r3, #1
 6528 306e EB24     		mov	r4, #235
 6529 3070 A400     		lsl	r4, r4, #2
 6530 3072 E419     		add	r4, r4, r7
 6531 3074 2360     		str	r3, [r4]
 6532              	.L245:
 572:../Sources/main.c **** 		for (i = 0; i < 100; i++) {
 6533              		.loc 1 572 0 is_stmt 0
 6534 3076 EB21     		mov	r1, #235
 6535 3078 8900     		lsl	r1, r1, #2
 6536 307a C919     		add	r1, r1, r7
 6537 307c 0B68     		ldr	r3, [r1]
 6538 307e 632B     		cmp	r3, #99
 6539 3080 D3DD     		ble	.L246
 574:../Sources/main.c **** 		}
 575:../Sources/main.c **** 
 576:../Sources/main.c **** 		cogfinal = cognumerador / cogdenominador;
 6540              		.loc 1 576 0 is_stmt 1
 6541 3082 D222     		mov	r2, #210
 6542 3084 9200     		lsl	r2, r2, #2
 6543 3086 D219     		add	r2, r2, r7
 6544 3088 1068     		ldr	r0, [r2]
 6545 308a 5168     		ldr	r1, [r2, #4]
 6546 308c D024     		mov	r4, #208
 6547 308e A400     		lsl	r4, r4, #2
 6548 3090 E419     		add	r4, r4, r7
 6549 3092 2268     		ldr	r2, [r4]
 6550 3094 6368     		ldr	r3, [r4, #4]
 6551 3096 FFF7FEFF 		bl	__aeabi_ddiv
 6552 309a 031C     		mov	r3, r0
 6553 309c 0C1C     		mov	r4, r1
 6554 309e CC21     		mov	r1, #204
 6555 30a0 8900     		lsl	r1, r1, #2
 6556 30a2 C919     		add	r1, r1, r7
 6557 30a4 0B60     		str	r3, [r1]
 6558 30a6 4C60     		str	r4, [r1, #4]
 577:../Sources/main.c **** 		TFC_HBRIDGE_ENABLE;
 6559              		.loc 1 577 0
 6560 30a8 324B     		ldr	r3, .L371+36
 6561 30aa 8022     		mov	r2, #128
 6562 30ac 9203     		lsl	r2, r2, #14
 6563 30ae 5A60     		str	r2, [r3, #4]
 578:../Sources/main.c **** 		//if(cogfinal>1500)
 579:../Sources/main.c **** 		TFC_SetServo(0, cogfinal * 1.0 / 500.0 - 3.0);
 6564              		.loc 1 579 0
 6565 30b0 CC22     		mov	r2, #204
 6566 30b2 9200     		lsl	r2, r2, #2
 6567 30b4 D219     		add	r2, r2, r7
 6568 30b6 1068     		ldr	r0, [r2]
 6569 30b8 5168     		ldr	r1, [r2, #4]
 6570 30ba 264B     		ldr	r3, .L371+4
 6571 30bc 244A     		ldr	r2, .L371
 6572 30be FFF7FEFF 		bl	__aeabi_ddiv
 6573 30c2 031C     		mov	r3, r0
 6574 30c4 0C1C     		mov	r4, r1
 6575 30c6 181C     		mov	r0, r3
 6576 30c8 211C     		mov	r1, r4
 6577 30ca 234A     		ldr	r2, .L371+8
 6578 30cc 234B     		ldr	r3, .L371+12
 6579 30ce FFF7FEFF 		bl	__aeabi_dsub
 6580 30d2 031C     		mov	r3, r0
 6581 30d4 0C1C     		mov	r4, r1
 6582 30d6 181C     		mov	r0, r3
 6583 30d8 211C     		mov	r1, r4
 6584 30da FFF7FEFF 		bl	__aeabi_d2f
 6585 30de 031C     		add	r3, r0, #0
 6586 30e0 0020     		mov	r0, #0
 6587 30e2 191C     		add	r1, r3, #0
 6588 30e4 FFF7FEFF 		bl	TFC_SetServo
 580:../Sources/main.c **** 
 581:../Sources/main.c **** 		if (cogfinal > 1525) {
 6589              		.loc 1 581 0
 6590 30e8 CC23     		mov	r3, #204
 6591 30ea 9B00     		lsl	r3, r3, #2
 6592 30ec DB19     		add	r3, r3, r7
 6593 30ee 1868     		ldr	r0, [r3]
 6594 30f0 5968     		ldr	r1, [r3, #4]
 6595 30f2 1B4A     		ldr	r2, .L371+16
 6596 30f4 1B4B     		ldr	r3, .L371+20
 6597 30f6 FFF7FEFF 		bl	__aeabi_dcmpgt
 6598 30fa 031C     		mov	r3, r0
 6599 30fc 002B     		cmp	r3, #0
 6600 30fe 06D0     		beq	.L337
 6601              	.L320:
 582:../Sources/main.c **** 
 583:../Sources/main.c **** 			TFC_SetMotorPWM(0.35, 0.2);
 6602              		.loc 1 583 0
 6603 3100 1D4A     		ldr	r2, .L371+40
 6604 3102 1E4B     		ldr	r3, .L371+44
 6605 3104 101C     		add	r0, r2, #0
 6606 3106 191C     		add	r1, r3, #0
 6607 3108 FFF7FEFF 		bl	TFC_SetMotorPWM
 6608 310c 18E0     		b	.L1
 6609              	.L337:
 584:../Sources/main.c **** 		}
 585:../Sources/main.c **** 
 586:../Sources/main.c **** 		else if (cogfinal < 1475) {
 6610              		.loc 1 586 0
 6611 310e CC24     		mov	r4, #204
 6612 3110 A400     		lsl	r4, r4, #2
 6613 3112 E419     		add	r4, r4, r7
 6614 3114 2068     		ldr	r0, [r4]
 6615 3116 6168     		ldr	r1, [r4, #4]
 6616 3118 134A     		ldr	r2, .L371+24
 6617 311a 144B     		ldr	r3, .L371+28
 6618 311c FFF7FEFF 		bl	__aeabi_dcmplt
 6619 3120 031C     		mov	r3, r0
 6620 3122 002B     		cmp	r3, #0
 6621 3124 06D0     		beq	.L338
 6622              	.L321:
 587:../Sources/main.c **** 			TFC_SetMotorPWM(0.2, 0.35);
 6623              		.loc 1 587 0
 6624 3126 154A     		ldr	r2, .L371+44
 6625 3128 134B     		ldr	r3, .L371+40
 6626 312a 101C     		add	r0, r2, #0
 6627 312c 191C     		add	r1, r3, #0
 6628 312e FFF7FEFF 		bl	TFC_SetMotorPWM
 6629 3132 05E0     		b	.L1
 6630              	.L338:
 588:../Sources/main.c **** 		} else {
 589:../Sources/main.c **** 			TFC_SetMotorPWM(0.4, 0.4);
 6631              		.loc 1 589 0
 6632 3134 124A     		ldr	r2, .L371+48
 6633 3136 124B     		ldr	r3, .L371+48
 6634 3138 101C     		add	r0, r2, #0
 6635 313a 191C     		add	r1, r3, #0
 6636 313c FFF7FEFF 		bl	TFC_SetMotorPWM
 6637              	.L1:
 590:../Sources/main.c **** 		}
 591:../Sources/main.c **** 	//	TFC_SetMotorPWM(0, 0);
 592:../Sources/main.c **** 	}
 593:../Sources/main.c **** }
 6638              		.loc 1 593 0
 6639 3140 BD46     		mov	sp, r7
 6640 3142 ED23     		mov	r3, #237
 6641 3144 9B00     		lsl	r3, r3, #2
 6642 3146 9D44     		add	sp, sp, r3
 6643              		@ sp needed for prologue
 6644 3148 F0BD     		pop	{r4, r5, r6, r7, pc}
 6645              	.L372:
 6646 314a C046C046 		.align	3
 6646      C046
 6647              	.L371:
 6648 3150 00000000 		.word	0
 6649 3154 00407F40 		.word	1082081280
 6650 3158 00000000 		.word	0
 6651 315c 00000840 		.word	1074266112
 6652 3160 00000000 		.word	0
 6653 3164 00D49740 		.word	1083692032
 6654 3168 00000000 		.word	0
 6655 316c 000C9740 		.word	1083640832
 6656 3170 50FCFFFF 		.word	-944
 6657 3174 00F10F40 		.word	1074786560
 6658 3178 3333B33E 		.word	1051931443
 6659 317c CDCC4C3E 		.word	1045220557
 6660 3180 CDCCCC3E 		.word	1053609165
 6661              		.cfi_endproc
 6662              	.LFE0:
 6664 3184 C046C046 		.section	.rodata
 6665              		.align	2
 6666              	.LC6:
 6667 0000 0D0A00   		.ascii	"\015\012\000"
 6668 0003 00       		.align	2
 6669              	.LC8:
 6670 0004 4C3A00   		.ascii	"L:\000"
 6671 0007 00       		.align	2
 6672              	.LC10:
 6673 0008 25582C00 		.ascii	"%X,\000"
 6674              		.align	2
 6675              	.LC13:
 6676 000c 255800   		.ascii	"%X\000"
 6677 000f 00       		.align	2
 6678              	.LC15:
 6679 0010 2C00     		.ascii	",\000"
 6680 0012 0000     		.section	.text.main,"ax",%progbits
 6681              		.align	2
 6682              		.global	main
 6683              		.code	16
 6684              		.thumb_func
 6686              	main:
 6687              	.LFB1:
 594:../Sources/main.c **** 
 595:../Sources/main.c **** int main(void) {
 6688              		.loc 1 595 0
 6689              		.cfi_startproc
 6690 0000 80B5     		push	{r7, lr}
 6691              	.LCFI3:
 6692              		.cfi_def_cfa_offset 8
 6693              		.cfi_offset 7, -8
 6694              		.cfi_offset 14, -4
 6695 0002 86B0     		sub	sp, sp, #24
 6696              	.LCFI4:
 6697              		.cfi_def_cfa_offset 32
 6698 0004 00AF     		add	r7, sp, #0
 6699              	.LCFI5:
 6700              		.cfi_def_cfa_register 7
 596:../Sources/main.c **** 	uint32_t t, i = 0, a = 0, b = 0, limiar = 0xFE0;
 6701              		.loc 1 596 0
 6702 0006 0023     		mov	r3, #0
 6703 0008 3B61     		str	r3, [r7, #16]
 6704 000a 0023     		mov	r3, #0
 6705 000c FB60     		str	r3, [r7, #12]
 6706 000e 0023     		mov	r3, #0
 6707 0010 BB60     		str	r3, [r7, #8]
 6708 0012 FE23     		mov	r3, #254
 6709 0014 1B01     		lsl	r3, r3, #4
 6710 0016 7B60     		str	r3, [r7, #4]
 597:../Sources/main.c **** 	//TFC_SetServo(0,0);
 598:../Sources/main.c **** 	float teste = 0;
 6711              		.loc 1 598 0
 6712 0018 0023     		mov	r3, #0
 6713 001a 3B60     		str	r3, [r7]
 599:../Sources/main.c **** 	TFC_Init();
 6714              		.loc 1 599 0
 6715 001c FFF7FEFF 		bl	TFC_Init
 6716              	.L389:
 600:../Sources/main.c **** 
 601:../Sources/main.c **** 	for (;;) {
 602:../Sources/main.c **** 		if (LineScanImageReady == 1) {
 6717              		.loc 1 602 0
 6718 0020 664B     		ldr	r3, .L390
 6719 0022 1B78     		ldrb	r3, [r3]
 6720 0024 DBB2     		uxtb	r3, r3
 6721 0026 012B     		cmp	r3, #1
 6722 0028 4AD1     		bne	.L374
 603:../Sources/main.c **** 		//	TFC_SetServo(0,0);
 604:../Sources/main.c **** 			a = 63;
 6723              		.loc 1 604 0
 6724 002a 3F23     		mov	r3, #63
 6725 002c FB60     		str	r3, [r7, #12]
 605:../Sources/main.c **** 			b = 64;
 6726              		.loc 1 605 0
 6727 002e 4023     		mov	r3, #64
 6728 0030 BB60     		str	r3, [r7, #8]
 606:../Sources/main.c **** 			while (LineScanImage0[a] >= limiar || LineScanImage0[b] >= limiar) {
 6729              		.loc 1 606 0
 6730 0032 1BE0     		b	.L375
 6731              	.L377:
 607:../Sources/main.c **** 				if (LineScanImage0[a] >= limiar) {
 6732              		.loc 1 607 0
 6733 0034 624B     		ldr	r3, .L390+4
 6734 0036 1A68     		ldr	r2, [r3]
 6735 0038 FB68     		ldr	r3, [r7, #12]
 6736 003a 5B00     		lsl	r3, r3, #1
 6737 003c D318     		add	r3, r2, r3
 6738 003e 1B88     		ldrh	r3, [r3]
 6739 0040 9BB2     		uxth	r3, r3
 6740 0042 1A1C     		mov	r2, r3
 6741 0044 7B68     		ldr	r3, [r7, #4]
 6742 0046 9A42     		cmp	r2, r3
 6743 0048 02D3     		bcc	.L376
 608:../Sources/main.c **** 					a--;
 6744              		.loc 1 608 0
 6745 004a FB68     		ldr	r3, [r7, #12]
 6746 004c 013B     		sub	r3, r3, #1
 6747 004e FB60     		str	r3, [r7, #12]
 6748              	.L376:
 609:../Sources/main.c **** 				}
 610:../Sources/main.c **** 				if (LineScanImage0[b] >= limiar) {
 6749              		.loc 1 610 0
 6750 0050 5B4B     		ldr	r3, .L390+4
 6751 0052 1A68     		ldr	r2, [r3]
 6752 0054 BB68     		ldr	r3, [r7, #8]
 6753 0056 5B00     		lsl	r3, r3, #1
 6754 0058 D318     		add	r3, r2, r3
 6755 005a 1B88     		ldrh	r3, [r3]
 6756 005c 9BB2     		uxth	r3, r3
 6757 005e 1A1C     		mov	r2, r3
 6758 0060 7B68     		ldr	r3, [r7, #4]
 6759 0062 9A42     		cmp	r2, r3
 6760 0064 02D3     		bcc	.L375
 611:../Sources/main.c **** 					b++;
 6761              		.loc 1 611 0
 6762 0066 BB68     		ldr	r3, [r7, #8]
 6763 0068 0133     		add	r3, r3, #1
 6764 006a BB60     		str	r3, [r7, #8]
 6765              	.L375:
 606:../Sources/main.c **** 			while (LineScanImage0[a] >= limiar || LineScanImage0[b] >= limiar) {
 6766              		.loc 1 606 0
 6767 006c 544B     		ldr	r3, .L390+4
 6768 006e 1A68     		ldr	r2, [r3]
 6769 0070 FB68     		ldr	r3, [r7, #12]
 6770 0072 5B00     		lsl	r3, r3, #1
 6771 0074 D318     		add	r3, r2, r3
 6772 0076 1B88     		ldrh	r3, [r3]
 6773 0078 9BB2     		uxth	r3, r3
 6774 007a 1A1C     		mov	r2, r3
 6775 007c 7B68     		ldr	r3, [r7, #4]
 6776 007e 9A42     		cmp	r2, r3
 6777 0080 D8D2     		bcs	.L377
 606:../Sources/main.c **** 			while (LineScanImage0[a] >= limiar || LineScanImage0[b] >= limiar) {
 6778              		.loc 1 606 0 is_stmt 0
 6779 0082 4F4B     		ldr	r3, .L390+4
 6780 0084 1A68     		ldr	r2, [r3]
 6781 0086 BB68     		ldr	r3, [r7, #8]
 6782 0088 5B00     		lsl	r3, r3, #1
 6783 008a D318     		add	r3, r2, r3
 6784 008c 1B88     		ldrh	r3, [r3]
 6785 008e 9BB2     		uxth	r3, r3
 6786 0090 1A1C     		mov	r2, r3
 6787 0092 7B68     		ldr	r3, [r7, #4]
 6788 0094 9A42     		cmp	r2, r3
 6789 0096 CDD2     		bcs	.L377
 612:../Sources/main.c **** 				}
 613:../Sources/main.c **** 			}
 614:../Sources/main.c **** 			if ((b - a) <= 60) {
 6790              		.loc 1 614 0 is_stmt 1
 6791 0098 BA68     		ldr	r2, [r7, #8]
 6792 009a FB68     		ldr	r3, [r7, #12]
 6793 009c D31A     		sub	r3, r2, r3
 6794 009e 3C2B     		cmp	r3, #60
 6795 00a0 04D8     		bhi	.L378
 615:../Sources/main.c **** 				media = media;
 6796              		.loc 1 615 0
 6797 00a2 484B     		ldr	r3, .L390+8
 6798 00a4 1A68     		ldr	r2, [r3]
 6799 00a6 474B     		ldr	r3, .L390+8
 6800 00a8 1A60     		str	r2, [r3]
 6801 00aa 09E0     		b	.L374
 6802              	.L378:
 616:../Sources/main.c **** 			} else {
 617:../Sources/main.c **** 				media = (int) (a + b) / 2;
 6803              		.loc 1 617 0
 6804 00ac FA68     		ldr	r2, [r7, #12]
 6805 00ae BB68     		ldr	r3, [r7, #8]
 6806 00b0 D318     		add	r3, r2, r3
 6807 00b2 002B     		cmp	r3, #0
 6808 00b4 00DA     		bge	.L379
 6809 00b6 0133     		add	r3, r3, #1
 6810              	.L379:
 6811 00b8 5B10     		asr	r3, r3, #1
 6812 00ba 1A1C     		mov	r2, r3
 6813 00bc 414B     		ldr	r3, .L390+8
 6814 00be 1A60     		str	r2, [r3]
 6815              	.L374:
 618:../Sources/main.c **** 			}
 619:../Sources/main.c **** 			/*if(media<60)TFC_SetServo(0,-0.5);
 620:../Sources/main.c **** 			 else if (media>70)
 621:../Sources/main.c **** 			 TFC_SetServo(0,0.5);
 622:../Sources/main.c **** 			 else TFC_SetServo(0,0);
 623:../Sources/main.c **** 			 
 624:../Sources/main.c **** 			 if(LineScanImage0[a]<=limiar)
 625:../Sources/main.c **** 			 {
 626:../Sources/main.c **** 			 TFC_SetServo(0,1.0);
 627:../Sources/main.c **** 			 }
 628:../Sources/main.c **** 			 else if(LineScanImage0[b]<=limiar)
 629:../Sources/main.c **** 			 {
 630:../Sources/main.c **** 			 TFC_SetServo(0,-1.0);
 631:../Sources/main.c **** 			 }
 632:../Sources/main.c **** 			 else 
 633:../Sources/main.c **** 			 TFC_HBRIDGE_ENABLE;
 634:../Sources/main.c **** 			 
 635:../Sources/main.c **** 			 if(teste>0.1)	TFC_SetMotorPWM(7.0/20.0,0.2);
 636:../Sources/main.c **** 			 else if(teste<-0.1)TFC_SetMotorPWM(0.2,7.0/20.0);
 637:../Sources/main.c **** 			 else 
 638:../Sources/main.c **** 			 TFC_SetMotorPWM(0.5,0.5);
 639:../Sources/main.c **** 			 
 640:../Sources/main.c **** 			 teste = media / 64.0 - 1.0;
 641:../Sources/main.c **** 			 TFC_SetServo(0, teste);*/
 642:../Sources/main.c **** 		}
 643:../Sources/main.c **** 
 644:../Sources/main.c **** 		//Demo Mode 3 will be in Freescale Garage Mode.  It will beam data from the Camera to the 
 645:../Sources/main.c **** 		//Labview Application
 646:../Sources/main.c **** 
 647:../Sources/main.c **** 		if (TFC_Ticker[0] > 100 && LineScanImageReady == 1) {
 6816              		.loc 1 647 0
 6817 00c0 414B     		ldr	r3, .L390+12
 6818 00c2 1B68     		ldr	r3, [r3]
 6819 00c4 642B     		cmp	r3, #100
 6820 00c6 00D8     		bhi	.LCB5937
 6821 00c8 72E0     		b	.L380	@long jump
 6822              	.LCB5937:
 6823              		.loc 1 647 0 is_stmt 0
 6824 00ca 3C4B     		ldr	r3, .L390
 6825 00cc 1B78     		ldrb	r3, [r3]
 6826 00ce DBB2     		uxtb	r3, r3
 6827 00d0 012B     		cmp	r3, #1
 6828 00d2 6DD1     		bne	.L380
 648:../Sources/main.c **** 			TFC_Ticker[0] = 0;
 6829              		.loc 1 648 0 is_stmt 1
 6830 00d4 3C4B     		ldr	r3, .L390+12
 6831 00d6 0022     		mov	r2, #0
 6832 00d8 1A60     		str	r2, [r3]
 649:../Sources/main.c **** 			LineScanImageReady = 0;
 6833              		.loc 1 649 0
 6834 00da 384B     		ldr	r3, .L390
 6835 00dc 0022     		mov	r2, #0
 6836 00de 1A70     		strb	r2, [r3]
 650:../Sources/main.c **** 			TERMINAL_PRINTF("\r\n");
 6837              		.loc 1 650 0
 6838 00e0 3A4A     		ldr	r2, .L390+16
 6839 00e2 3B4B     		ldr	r3, .L390+20
 6840 00e4 101C     		mov	r0, r2
 6841 00e6 191C     		mov	r1, r3
 6842 00e8 FFF7FEFF 		bl	Qprintf
 651:../Sources/main.c **** 			TERMINAL_PRINTF("L:");
 6843              		.loc 1 651 0
 6844 00ec 374A     		ldr	r2, .L390+16
 6845 00ee 394B     		ldr	r3, .L390+24
 6846 00f0 101C     		mov	r0, r2
 6847 00f2 191C     		mov	r1, r3
 6848 00f4 FFF7FEFF 		bl	Qprintf
 652:../Sources/main.c **** 
 653:../Sources/main.c **** 			if (t == 0)
 6849              		.loc 1 653 0
 6850 00f8 7B69     		ldr	r3, [r7, #20]
 6851 00fa 002B     		cmp	r3, #0
 6852 00fc 02D1     		bne	.L381
 654:../Sources/main.c **** 				t = 3;
 6853              		.loc 1 654 0
 6854 00fe 0323     		mov	r3, #3
 6855 0100 7B61     		str	r3, [r7, #20]
 6856 0102 02E0     		b	.L382
 6857              	.L381:
 655:../Sources/main.c **** 			else
 656:../Sources/main.c **** 				t--;
 6858              		.loc 1 656 0
 6859 0104 7B69     		ldr	r3, [r7, #20]
 6860 0106 013B     		sub	r3, r3, #1
 6861 0108 7B61     		str	r3, [r7, #20]
 6862              	.L382:
 657:../Sources/main.c **** 
 658:../Sources/main.c **** 			TFC_SetBatteryLED_Level(t);
 6863              		.loc 1 658 0
 6864 010a 7B69     		ldr	r3, [r7, #20]
 6865 010c DBB2     		uxtb	r3, r3
 6866 010e 181C     		mov	r0, r3
 6867 0110 FFF7FEFF 		bl	TFC_SetBatteryLED_Level
 659:../Sources/main.c **** 
 660:../Sources/main.c **** 			for (i = 0; i < 128; i++) {
 6868              		.loc 1 660 0
 6869 0114 0023     		mov	r3, #0
 6870 0116 3B61     		str	r3, [r7, #16]
 6871 0118 10E0     		b	.L383
 6872              	.L384:
 661:../Sources/main.c **** 				TERMINAL_PRINTF("%X,", LineScanImage0[i]);
 6873              		.loc 1 661 0
 6874 011a 294B     		ldr	r3, .L390+4
 6875 011c 1A68     		ldr	r2, [r3]
 6876 011e 3B69     		ldr	r3, [r7, #16]
 6877 0120 5B00     		lsl	r3, r3, #1
 6878 0122 D318     		add	r3, r2, r3
 6879 0124 1B88     		ldrh	r3, [r3]
 6880 0126 9BB2     		uxth	r3, r3
 6881 0128 2849     		ldr	r1, .L390+16
 6882 012a 2B4A     		ldr	r2, .L390+28
 6883 012c 081C     		mov	r0, r1
 6884 012e 111C     		mov	r1, r2
 6885 0130 1A1C     		mov	r2, r3
 6886 0132 FFF7FEFF 		bl	Qprintf
 660:../Sources/main.c **** 			for (i = 0; i < 128; i++) {
 6887              		.loc 1 660 0
 6888 0136 3B69     		ldr	r3, [r7, #16]
 6889 0138 0133     		add	r3, r3, #1
 6890 013a 3B61     		str	r3, [r7, #16]
 6891              	.L383:
 660:../Sources/main.c **** 			for (i = 0; i < 128; i++) {
 6892              		.loc 1 660 0 is_stmt 0
 6893 013c 3B69     		ldr	r3, [r7, #16]
 6894 013e 7F2B     		cmp	r3, #127
 6895 0140 EBD9     		bls	.L384
 662:../Sources/main.c **** 			}
 663:../Sources/main.c **** 
 664:../Sources/main.c **** 			for (i = 0; i < 128; i++) {
 6896              		.loc 1 664 0 is_stmt 1
 6897 0142 0023     		mov	r3, #0
 6898 0144 3B61     		str	r3, [r7, #16]
 6899 0146 30E0     		b	.L385
 6900              	.L388:
 665:../Sources/main.c **** 				TERMINAL_PRINTF("%X", LineScanImage1[i]);
 6901              		.loc 1 665 0
 6902 0148 244B     		ldr	r3, .L390+32
 6903 014a 1A68     		ldr	r2, [r3]
 6904 014c 3B69     		ldr	r3, [r7, #16]
 6905 014e 5B00     		lsl	r3, r3, #1
 6906 0150 D318     		add	r3, r2, r3
 6907 0152 1B88     		ldrh	r3, [r3]
 6908 0154 9BB2     		uxth	r3, r3
 6909 0156 1D49     		ldr	r1, .L390+16
 6910 0158 214A     		ldr	r2, .L390+36
 6911 015a 081C     		mov	r0, r1
 6912 015c 111C     		mov	r1, r2
 6913 015e 1A1C     		mov	r2, r3
 6914 0160 FFF7FEFF 		bl	Qprintf
 666:../Sources/main.c **** 				if (i == 127)
 6915              		.loc 1 666 0
 6916 0164 3B69     		ldr	r3, [r7, #16]
 6917 0166 7F2B     		cmp	r3, #127
 6918 0168 0ED1     		bne	.L386
 667:../Sources/main.c **** 					TERMINAL_PRINTF("\r\n", LineScanImage1[i]);
 6919              		.loc 1 667 0
 6920 016a 1C4B     		ldr	r3, .L390+32
 6921 016c 1A68     		ldr	r2, [r3]
 6922 016e 3B69     		ldr	r3, [r7, #16]
 6923 0170 5B00     		lsl	r3, r3, #1
 6924 0172 D318     		add	r3, r2, r3
 6925 0174 1B88     		ldrh	r3, [r3]
 6926 0176 9BB2     		uxth	r3, r3
 6927 0178 1449     		ldr	r1, .L390+16
 6928 017a 154A     		ldr	r2, .L390+20
 6929 017c 081C     		mov	r0, r1
 6930 017e 111C     		mov	r1, r2
 6931 0180 1A1C     		mov	r2, r3
 6932 0182 FFF7FEFF 		bl	Qprintf
 6933 0186 0DE0     		b	.L387
 6934              	.L386:
 668:../Sources/main.c **** 				else
 669:../Sources/main.c **** 					TERMINAL_PRINTF(",", LineScanImage1[i]);
 6935              		.loc 1 669 0
 6936 0188 144B     		ldr	r3, .L390+32
 6937 018a 1A68     		ldr	r2, [r3]
 6938 018c 3B69     		ldr	r3, [r7, #16]
 6939 018e 5B00     		lsl	r3, r3, #1
 6940 0190 D318     		add	r3, r2, r3
 6941 0192 1B88     		ldrh	r3, [r3]
 6942 0194 9BB2     		uxth	r3, r3
 6943 0196 0D49     		ldr	r1, .L390+16
 6944 0198 124A     		ldr	r2, .L390+40
 6945 019a 081C     		mov	r0, r1
 6946 019c 111C     		mov	r1, r2
 6947 019e 1A1C     		mov	r2, r3
 6948 01a0 FFF7FEFF 		bl	Qprintf
 6949              	.L387:
 664:../Sources/main.c **** 			for (i = 0; i < 128; i++) {
 6950              		.loc 1 664 0
 6951 01a4 3B69     		ldr	r3, [r7, #16]
 6952 01a6 0133     		add	r3, r3, #1
 6953 01a8 3B61     		str	r3, [r7, #16]
 6954              	.L385:
 664:../Sources/main.c **** 			for (i = 0; i < 128; i++) {
 6955              		.loc 1 664 0 is_stmt 0
 6956 01aa 3B69     		ldr	r3, [r7, #16]
 6957 01ac 7F2B     		cmp	r3, #127
 6958 01ae CBD9     		bls	.L388
 6959              	.L380:
 670:../Sources/main.c **** 			}
 671:../Sources/main.c **** 
 672:../Sources/main.c **** 		}
 673:../Sources/main.c **** 
 674:../Sources/main.c **** 		//TFC_Task must be called in your main loop.  This keeps certain processing happy (I.E. Serial po
 675:../Sources/main.c **** 		TFC_Task();
 6960              		.loc 1 675 0 is_stmt 1
 6961 01b0 FFF7FEFF 		bl	TFC_Task
 676:../Sources/main.c **** 		fuzzy();
 6962              		.loc 1 676 0
 6963 01b4 FFF7FEFF 		bl	fuzzy
 677:../Sources/main.c **** 		//This Demo program will look at the middle 2 switch to select one of 4 demo modes.
 678:../Sources/main.c **** 		//Let's look at the middle 2 switches
 679:../Sources/main.c **** 		/*switch ((TFC_GetDIP_Switch() >> 1) & 0x03) {
 680:../Sources/main.c **** 		 default:
 681:../Sources/main.c **** 		 case 0:
 682:../Sources/main.c **** 		 //Demo mode 0 just tests the switches and LED's
 683:../Sources/main.c **** 		 if (TFC_PUSH_BUTTON_0_PRESSED)
 684:../Sources/main.c **** 		 TFC_BAT_LED0_ON;
 685:../Sources/main.c **** 		 else
 686:../Sources/main.c **** 		 TFC_BAT_LED0_OFF;
 687:../Sources/main.c **** 
 688:../Sources/main.c **** 		 if (TFC_PUSH_BUTTON_1_PRESSED)
 689:../Sources/main.c **** 		 TFC_BAT_LED3_ON;
 690:../Sources/main.c **** 		 else
 691:../Sources/main.c **** 		 TFC_BAT_LED3_OFF;
 692:../Sources/main.c **** 
 693:../Sources/main.c **** 		 if (TFC_GetDIP_Switch() & 0x01)
 694:../Sources/main.c **** 		 TFC_BAT_LED1_ON;
 695:../Sources/main.c **** 		 else
 696:../Sources/main.c **** 		 TFC_BAT_LED1_OFF;
 697:../Sources/main.c **** 
 698:../Sources/main.c **** 		 if (TFC_GetDIP_Switch() & 0x08)
 699:../Sources/main.c **** 		 TFC_BAT_LED2_ON;
 700:../Sources/main.c **** 		 else
 701:../Sources/main.c **** 		 TFC_BAT_LED2_OFF;
 702:../Sources/main.c **** 
 703:../Sources/main.c **** 		 break;
 704:../Sources/main.c **** 
 705:../Sources/main.c **** 		 case 1:
 706:../Sources/main.c **** 
 707:../Sources/main.c **** 		 //Demo mode 1 will just move the servos with the on-board potentiometers
 708:../Sources/main.c **** 		 if (TFC_Ticker[0] >= 20) {
 709:../Sources/main.c **** 		 TFC_Ticker[0] = 0; //reset the Ticker
 710:../Sources/main.c **** 		 //Every 20 mSeconds, update the Servos
 711:../Sources/main.c **** 		 TFC_SetServo(0, 0.0);
 712:../Sources/main.c **** 		 //	TFC_SetServo(1,TFC_ReadPot(1));
 713:../Sources/main.c **** 		 }
 714:../Sources/main.c **** 		 //Let's put a pattern on the LEDs
 715:../Sources/main.c **** 		 if (TFC_Ticker[1] >= 125) {
 716:../Sources/main.c **** 		 TFC_Ticker[1] = 0;
 717:../Sources/main.c **** 		 t++;
 718:../Sources/main.c **** 		 if (t > 4) {
 719:../Sources/main.c **** 		 t = 0;
 720:../Sources/main.c **** 		 }
 721:../Sources/main.c **** 		 TFC_SetBatteryLED_Level(t);
 722:../Sources/main.c **** 		 }
 723:../Sources/main.c **** 
 724:../Sources/main.c **** 		 TFC_SetMotorPWM(0, 0); //Make sure motors are off
 725:../Sources/main.c **** 		 TFC_HBRIDGE_DISABLE;
 726:../Sources/main.c **** 
 727:../Sources/main.c **** 		 break;
 728:../Sources/main.c **** 
 729:../Sources/main.c **** 		 case 2:
 730:../Sources/main.c **** 
 731:../Sources/main.c **** 		 //Demo Mode 2 will use the Pots to make the motors move
 732:../Sources/main.c **** 		 TFC_HBRIDGE_ENABLE;
 733:../Sources/main.c **** 		 TFC_SetMotorPWM(TFC_ReadPot(0), TFC_ReadPot(1));
 734:../Sources/main.c **** 
 735:../Sources/main.c **** 		 //Let's put a pattern on the LEDs
 736:../Sources/main.c **** 		 if (TFC_Ticker[1] >= 125) {
 737:../Sources/main.c **** 		 TFC_Ticker[1] = 0;
 738:../Sources/main.c **** 		 t++;
 739:../Sources/main.c **** 		 if (t > 4) {
 740:../Sources/main.c **** 		 t = 0;
 741:../Sources/main.c **** 		 }
 742:../Sources/main.c **** 		 TFC_SetBatteryLED_Level(t);
 743:../Sources/main.c **** 		 }
 744:../Sources/main.c **** 		 break;
 745:../Sources/main.c **** 
 746:../Sources/main.c **** 		 case 3:
 747:../Sources/main.c **** 		 
 748:../Sources/main.c **** 
 749:../Sources/main.c **** 
 750:../Sources/main.c **** 		 if (LineScanImageReady == 1) {
 751:../Sources/main.c **** 
 752:../Sources/main.c **** 		 a = 63;
 753:../Sources/main.c **** 		 b = 64;
 754:../Sources/main.c **** 		 while (LineScanImage0[a] >= limiar
 755:../Sources/main.c **** 		 || LineScanImage0[b] >= limiar) {
 756:../Sources/main.c **** 		 if (LineScanImage0[a] >= limiar) {
 757:../Sources/main.c **** 		 a--;
 758:../Sources/main.c **** 		 }
 759:../Sources/main.c **** 		 if (LineScanImage0[b] >= limiar) {
 760:../Sources/main.c **** 		 b++;
 761:../Sources/main.c **** 		 }
 762:../Sources/main.c **** 		 }
 763:../Sources/main.c **** 		 if ((b - a) <= 50) {
 764:../Sources/main.c **** 		 media = media;
 765:../Sources/main.c **** 		 } else {
 766:../Sources/main.c **** 		 media = (int) (a + b) / 2;
 767:../Sources/main.c **** 		 }
 768:../Sources/main.c **** 		 /*if(media<60)TFC_SetServo(0,-0.5);
 769:../Sources/main.c **** 		 else if (media>70)
 770:../Sources/main.c **** 		 TFC_SetServo(0,0.5);
 771:../Sources/main.c **** 		 else TFC_SetServo(0,0);
 772:../Sources/main.c **** 		 
 773:../Sources/main.c **** 		 if(LineScanImage0[a]<=limiar)
 774:../Sources/main.c **** 		 {
 775:../Sources/main.c **** 		 TFC_SetServo(0,1.0);
 776:../Sources/main.c **** 		 }
 777:../Sources/main.c **** 		 else if(LineScanImage0[b]<=limiar)
 778:../Sources/main.c **** 		 {
 779:../Sources/main.c **** 		 TFC_SetServo(0,-1.0);
 780:../Sources/main.c **** 		 }
 781:../Sources/main.c **** 		 else 
 782:../Sources/main.c **** 		 TFC_HBRIDGE_ENABLE;
 783:../Sources/main.c **** 		 
 784:../Sources/main.c **** 		 if(teste>0.1)	TFC_SetMotorPWM(7.0/20.0,0.2);
 785:../Sources/main.c **** 		 else if(teste<-0.1)TFC_SetMotorPWM(0.2,7.0/20.0);
 786:../Sources/main.c **** 		 else 
 787:../Sources/main.c **** 		 TFC_SetMotorPWM(0.5,0.5);
 788:../Sources/main.c **** 		 
 789:../Sources/main.c **** 		 teste = media / 64.0 - 1.0;
 790:../Sources/main.c **** 		 TFC_SetServo(0, teste);
 791:../Sources/main.c **** 		 }
 792:../Sources/main.c **** 
 793:../Sources/main.c **** 		 //Demo Mode 3 will be in Freescale Garage Mode.  It will beam data from the Camera to the 
 794:../Sources/main.c **** 		 //Labview Application
 795:../Sources/main.c **** 
 796:../Sources/main.c **** 		 if (TFC_Ticker[0] > 100 && LineScanImageReady == 1) {
 797:../Sources/main.c **** 		 TFC_Ticker[0] = 0;
 798:../Sources/main.c **** 		 LineScanImageReady = 0;
 799:../Sources/main.c **** 		 TERMINAL_PRINTF("\r\n");
 800:../Sources/main.c **** 		 TERMINAL_PRINTF("L:");
 801:../Sources/main.c **** 
 802:../Sources/main.c **** 		 if (t == 0)
 803:../Sources/main.c **** 		 t = 3;
 804:../Sources/main.c **** 		 else
 805:../Sources/main.c **** 		 t--;
 806:../Sources/main.c **** 
 807:../Sources/main.c **** 		 TFC_SetBatteryLED_Level(t);
 808:../Sources/main.c **** 
 809:../Sources/main.c **** 		 for (i = 0; i < 128; i++) {
 810:../Sources/main.c **** 		 TERMINAL_PRINTF("%X,", LineScanImage0[i]);
 811:../Sources/main.c **** 		 }
 812:../Sources/main.c **** 
 813:../Sources/main.c **** 		 for (i = 0; i < 128; i++) {
 814:../Sources/main.c **** 		 TERMINAL_PRINTF("%X", LineScanImage1[i]);
 815:../Sources/main.c **** 		 if (i == 127)
 816:../Sources/main.c **** 		 TERMINAL_PRINTF("\r\n", LineScanImage1[i]);
 817:../Sources/main.c **** 		 else
 818:../Sources/main.c **** 		 TERMINAL_PRINTF(",", LineScanImage1[i]);
 819:../Sources/main.c **** 		 }
 820:../Sources/main.c **** 
 821:../Sources/main.c **** 		 }
 822:../Sources/main.c **** 
 823:../Sources/main.c **** 		 break;
 824:../Sources/main.c **** 		 }*/
 825:../Sources/main.c **** 	}
 6964              		.loc 1 825 0
 6965 01b8 32E7     		b	.L389
 6966              	.L391:
 6967 01ba C046     		.align	2
 6968              	.L390:
 6969 01bc 00000000 		.word	LineScanImageReady
 6970 01c0 00000000 		.word	LineScanImage0
 6971 01c4 00000000 		.word	media
 6972 01c8 00000000 		.word	TFC_Ticker
 6973 01cc 00000000 		.word	SDA_SERIAL_OUTGOING_QUEUE
 6974 01d0 00000000 		.word	.LC6
 6975 01d4 04000000 		.word	.LC8
 6976 01d8 08000000 		.word	.LC10
 6977 01dc 00000000 		.word	LineScanImage1
 6978 01e0 0C000000 		.word	.LC13
 6979 01e4 10000000 		.word	.LC15
 6980              		.cfi_endproc
 6981              	.LFE1:
 6983              		.text
 6984              	.Letext0:
 6985              		.file 2 "C:/Freescale/CW MCU v10.6/MCU/ARM_GCC_Support/ewl/EWL_C/include/cstdint"
 6986              		.file 3 "C:/Documents and Settings/aluno/git/arm-kl25z/FRDM-TFC/Project_Headers/MKL25Z4.h"
 6987              		.file 4 "C:/Documents and Settings/aluno/git/arm-kl25z/FRDM-TFC/Project_Headers/TFC\\TFC_Queue.h"
 6988              		.file 5 "C:/Documents and Settings/aluno/git/arm-kl25z/FRDM-TFC/Project_Headers/TFC\\TFC_ARM_SysTi
 6989              		.file 6 "C:/Documents and Settings/aluno/git/arm-kl25z/FRDM-TFC/Project_Headers/TFC\\TFC_LineScanC
 6990              		.file 7 "C:/Documents and Settings/aluno/git/arm-kl25z/FRDM-TFC/Project_Headers/TFC\\TFC_UART.h"
DEFINED SYMBOLS
                            *ABS*:00000000 main.c
C:\DOCUME~1\aluno\CONFIG~1\Temp\ccdRoy22.s:22     .data.media:00000000 media
C:\DOCUME~1\aluno\CONFIG~1\Temp\ccdRoy22.s:19     .data.media:00000000 $d
C:\DOCUME~1\aluno\CONFIG~1\Temp\ccdRoy22.s:38     .text.fuzzy:00000000 $t
C:\DOCUME~1\aluno\CONFIG~1\Temp\ccdRoy22.s:43     .text.fuzzy:00000000 fuzzy
C:\DOCUME~1\aluno\CONFIG~1\Temp\ccdRoy22.s:499    .text.fuzzy:00000330 $d
C:\DOCUME~1\aluno\CONFIG~1\Temp\ccdRoy22.s:521    .text.fuzzy:00000380 $t
C:\DOCUME~1\aluno\CONFIG~1\Temp\ccdRoy22.s:951    .text.fuzzy:000006c0 $d
C:\DOCUME~1\aluno\CONFIG~1\Temp\ccdRoy22.s:979    .text.fuzzy:00000728 $t
C:\DOCUME~1\aluno\CONFIG~1\Temp\ccdRoy22.s:1409   .text.fuzzy:00000a40 $d
C:\DOCUME~1\aluno\CONFIG~1\Temp\ccdRoy22.s:1424   .text.fuzzy:00000a74 $t
C:\DOCUME~1\aluno\CONFIG~1\Temp\ccdRoy22.s:1804   .text.fuzzy:00000d38 $d
C:\DOCUME~1\aluno\CONFIG~1\Temp\ccdRoy22.s:1820   .text.fuzzy:00000d70 $t
C:\DOCUME~1\aluno\CONFIG~1\Temp\ccdRoy22.s:2202   .text.fuzzy:00001038 $d
C:\DOCUME~1\aluno\CONFIG~1\Temp\ccdRoy22.s:2218   .text.fuzzy:00001070 $t
C:\DOCUME~1\aluno\CONFIG~1\Temp\ccdRoy22.s:2601   .text.fuzzy:00001338 $d
C:\DOCUME~1\aluno\CONFIG~1\Temp\ccdRoy22.s:2615   .text.fuzzy:00001368 $t
C:\DOCUME~1\aluno\CONFIG~1\Temp\ccdRoy22.s:3057   .text.fuzzy:000016a0 $d
C:\DOCUME~1\aluno\CONFIG~1\Temp\ccdRoy22.s:3073   .text.fuzzy:000016d8 $t
C:\DOCUME~1\aluno\CONFIG~1\Temp\ccdRoy22.s:3455   .text.fuzzy:00001998 $d
C:\DOCUME~1\aluno\CONFIG~1\Temp\ccdRoy22.s:3469   .text.fuzzy:000019c8 $t
C:\DOCUME~1\aluno\CONFIG~1\Temp\ccdRoy22.s:3851   .text.fuzzy:00001c88 $d
C:\DOCUME~1\aluno\CONFIG~1\Temp\ccdRoy22.s:3865   .text.fuzzy:00001cb8 $t
C:\DOCUME~1\aluno\CONFIG~1\Temp\ccdRoy22.s:4249   .text.fuzzy:00001f80 $d
C:\DOCUME~1\aluno\CONFIG~1\Temp\ccdRoy22.s:4263   .text.fuzzy:00001fb0 $t
C:\DOCUME~1\aluno\CONFIG~1\Temp\ccdRoy22.s:4575   .text.fuzzy:000021f0 $d
C:\DOCUME~1\aluno\CONFIG~1\Temp\ccdRoy22.s:4585   .text.fuzzy:00002210 $t
C:\DOCUME~1\aluno\CONFIG~1\Temp\ccdRoy22.s:4881   .text.fuzzy:00002430 $d
C:\DOCUME~1\aluno\CONFIG~1\Temp\ccdRoy22.s:4892   .text.fuzzy:00002454 $t
C:\DOCUME~1\aluno\CONFIG~1\Temp\ccdRoy22.s:5198   .text.fuzzy:00002688 $d
C:\DOCUME~1\aluno\CONFIG~1\Temp\ccdRoy22.s:5209   .text.fuzzy:000026ac $t
C:\DOCUME~1\aluno\CONFIG~1\Temp\ccdRoy22.s:5589   .text.fuzzy:00002970 $d
C:\DOCUME~1\aluno\CONFIG~1\Temp\ccdRoy22.s:5605   .text.fuzzy:000029a8 $t
C:\DOCUME~1\aluno\CONFIG~1\Temp\ccdRoy22.s:5908   .text.fuzzy:00002bd0 $d
C:\DOCUME~1\aluno\CONFIG~1\Temp\ccdRoy22.s:5920   .text.fuzzy:00002bf8 $t
C:\DOCUME~1\aluno\CONFIG~1\Temp\ccdRoy22.s:6398   .text.fuzzy:00002f68 $d
C:\DOCUME~1\aluno\CONFIG~1\Temp\ccdRoy22.s:6408   .text.fuzzy:00002f88 $t
C:\DOCUME~1\aluno\CONFIG~1\Temp\ccdRoy22.s:6648   .text.fuzzy:00003150 $d
C:\DOCUME~1\aluno\CONFIG~1\Temp\ccdRoy22.s:6665   .rodata:00000000 $d
C:\DOCUME~1\aluno\CONFIG~1\Temp\ccdRoy22.s:6681   .text.main:00000000 $t
C:\DOCUME~1\aluno\CONFIG~1\Temp\ccdRoy22.s:6686   .text.main:00000000 main
C:\DOCUME~1\aluno\CONFIG~1\Temp\ccdRoy22.s:6969   .text.main:000001bc $d
                     .debug_frame:00000010 $d
C:\DOCUME~1\aluno\CONFIG~1\Temp\ccdRoy22.s:6664   .text.fuzzy:00003184 $t

UNDEFINED SYMBOLS
__aeabi_i2d
__aeabi_ddiv
__aeabi_d2f
__aeabi_fadd
__aeabi_f2d
__aeabi_fsub
__aeabi_dsub
__aeabi_dcmpgt
__aeabi_dcmple
__aeabi_dadd
__aeabi_fcmplt
__aeabi_dcmplt
__aeabi_dmul
TFC_GetDIP_Switch
TFC_SetServo
TFC_SetMotorPWM
TFC_Init
Qprintf
TFC_SetBatteryLED_Level
TFC_Task
LineScanImageReady
LineScanImage0
TFC_Ticker
SDA_SERIAL_OUTGOING_QUEUE
LineScanImage1
