   1              		.cpu cortex-m0
   2              		.fpu softvfp
   3              		.eabi_attribute 20, 1
   4              		.eabi_attribute 21, 1
   5              		.eabi_attribute 23, 3
   6              		.eabi_attribute 24, 1
   7              		.eabi_attribute 25, 1
   8              		.eabi_attribute 26, 1
   9              		.eabi_attribute 30, 6
  10              		.eabi_attribute 34, 0
  11              		.eabi_attribute 18, 4
  12              		.code	16
  13              		.file	"main.c"
  14              		.text
  15              	.Ltext0:
  16              		.cfi_sections	.debug_frame
  17              		.global	media
  18              		.section	.data.media,"aw",%progbits
  19              		.align	2
  22              	media:
  23 0000 40000000 		.word	64
  24              		.global	__aeabi_idiv
  25              		.global	__aeabi_i2f
  26              		.global	__aeabi_fadd
  27              		.global	__aeabi_f2d
  28              		.global	__aeabi_i2d
  29              		.global	__aeabi_ddiv
  30              		.global	__aeabi_d2f
  31              		.global	__aeabi_fsub
  32              		.global	__aeabi_dcmpgt
  33              		.global	__aeabi_dsub
  34              		.global	__aeabi_dcmple
  35              		.global	__aeabi_dadd
  36              		.global	__aeabi_fcmplt
  37              		.global	__aeabi_dcmplt
  38              		.global	__aeabi_dmul
  39              		.section	.text.fuzzy,"ax",%progbits
  40              		.align	2
  41              		.global	fuzzy
  42              		.code	16
  43              		.thumb_func
  45              	fuzzy:
  46              	.LFB0:
  47              		.file 1 "../Sources/main.c"
   1:../Sources/main.c **** #include "derivative.h" /* include peripheral declarations */
   2:../Sources/main.c **** #include "TFC\TFC.h"
   3:../Sources/main.c **** int media = 64;
   4:../Sources/main.c **** 
   5:../Sources/main.c **** 
   6:../Sources/main.c **** void fuzzy(void) {
  48              		.loc 1 6 0
  49              		.cfi_startproc
  50 0000 F0B5     		push	{r4, r5, r6, r7, lr}
  51              	.LCFI0:
  52              		.cfi_def_cfa_offset 20
  53              		.cfi_offset 4, -20
  54              		.cfi_offset 5, -16
  55              		.cfi_offset 6, -12
  56              		.cfi_offset 7, -8
  57              		.cfi_offset 14, -4
  58 0002 D74C     		ldr	r4, .L340+32
  59 0004 A544     		add	sp, sp, r4
  60              	.LCFI1:
  61              		.cfi_def_cfa_offset 968
  62 0006 00AF     		add	r7, sp, #0
  63              	.LCFI2:
  64              		.cfi_def_cfa_register 7
   7:../Sources/main.c **** 	int a;
   8:../Sources/main.c **** 	float w;
   9:../Sources/main.c **** 	int spd = 20000;
  65              		.loc 1 9 0
  66 0008 D64B     		ldr	r3, .L340+36
  67 000a CF21     		mov	r1, #207
  68 000c 8900     		lsl	r1, r1, #2
  69 000e C919     		add	r1, r1, r7
  70 0010 0B60     		str	r3, [r1]
  10:../Sources/main.c **** 	int i = 0;
  71              		.loc 1 10 0
  72 0012 0023     		mov	r3, #0
  73 0014 EB22     		mov	r2, #235
  74 0016 9200     		lsl	r2, r2, #2
  75 0018 D219     		add	r2, r2, r7
  76 001a 1360     		str	r3, [r2]
  11:../Sources/main.c **** 	double grauvl = 0;
  77              		.loc 1 11 0
  78 001c C94C     		ldr	r4, .L340+4
  79 001e C84B     		ldr	r3, .L340
  80 0020 E821     		mov	r1, #232
  81 0022 8900     		lsl	r1, r1, #2
  82 0024 C919     		add	r1, r1, r7
  83 0026 0B60     		str	r3, [r1]
  84 0028 4C60     		str	r4, [r1, #4]
  12:../Sources/main.c **** 	volatile float graul = 0;
  85              		.loc 1 12 0
  86 002a 0023     		mov	r3, #0
  87 002c CB22     		mov	r2, #203
  88 002e 9200     		lsl	r2, r2, #2
  89 0030 D219     		add	r2, r2, r7
  90 0032 1360     		str	r3, [r2]
  13:../Sources/main.c **** 	volatile float graum = 0;
  91              		.loc 1 13 0
  92 0034 0023     		mov	r3, #0
  93 0036 CA24     		mov	r4, #202
  94 0038 A400     		lsl	r4, r4, #2
  95 003a E419     		add	r4, r4, r7
  96 003c 2360     		str	r3, [r4]
  14:../Sources/main.c **** 	double graur = 0;
  97              		.loc 1 14 0
  98 003e C14C     		ldr	r4, .L340+4
  99 0040 BF4B     		ldr	r3, .L340
 100 0042 E621     		mov	r1, #230
 101 0044 8900     		lsl	r1, r1, #2
 102 0046 C919     		add	r1, r1, r7
 103 0048 0B60     		str	r3, [r1]
 104 004a 4C60     		str	r4, [r1, #4]
  15:../Sources/main.c **** 	double grauvr = 0;
 105              		.loc 1 15 0
 106 004c BD4C     		ldr	r4, .L340+4
 107 004e BC4B     		ldr	r3, .L340
 108 0050 E422     		mov	r2, #228
 109 0052 9200     		lsl	r2, r2, #2
 110 0054 D219     		add	r2, r2, r7
 111 0056 1360     		str	r3, [r2]
 112 0058 5460     		str	r4, [r2, #4]
  16:../Sources/main.c **** 	volatile float grausl = 0;
 113              		.loc 1 16 0
 114 005a 0023     		mov	r3, #0
 115 005c C924     		mov	r4, #201
 116 005e A400     		lsl	r4, r4, #2
 117 0060 E419     		add	r4, r4, r7
 118 0062 2360     		str	r3, [r4]
  17:../Sources/main.c **** 	volatile float grauf = 0;
 119              		.loc 1 17 0
 120 0064 0023     		mov	r3, #0
 121 0066 C821     		mov	r1, #200
 122 0068 8900     		lsl	r1, r1, #2
 123 006a C919     		add	r1, r1, r7
 124 006c 0B60     		str	r3, [r1]
  18:../Sources/main.c **** 	double graura = 0;
 125              		.loc 1 18 0
 126 006e B54C     		ldr	r4, .L340+4
 127 0070 B34B     		ldr	r3, .L340
 128 0072 E222     		mov	r2, #226
 129 0074 9200     		lsl	r2, r2, #2
 130 0076 D219     		add	r2, r2, r7
 131 0078 1360     		str	r3, [r2]
 132 007a 5460     		str	r4, [r2, #4]
  19:../Sources/main.c **** 	double ns = 0;
 133              		.loc 1 19 0
 134 007c B14C     		ldr	r4, .L340+4
 135 007e B04B     		ldr	r3, .L340
 136 0080 E021     		mov	r1, #224
 137 0082 8900     		lsl	r1, r1, #2
 138 0084 C919     		add	r1, r1, r7
 139 0086 0B60     		str	r3, [r1]
 140 0088 4C60     		str	r4, [r1, #4]
  20:../Sources/main.c **** 	double nb = 0;
 141              		.loc 1 20 0
 142 008a AE4C     		ldr	r4, .L340+4
 143 008c AC4B     		ldr	r3, .L340
 144 008e DE22     		mov	r2, #222
 145 0090 9200     		lsl	r2, r2, #2
 146 0092 D219     		add	r2, r2, r7
 147 0094 1360     		str	r3, [r2]
 148 0096 5460     		str	r4, [r2, #4]
  21:../Sources/main.c **** 	double z = 0;
 149              		.loc 1 21 0
 150 0098 AA4C     		ldr	r4, .L340+4
 151 009a A94B     		ldr	r3, .L340
 152 009c DC21     		mov	r1, #220
 153 009e 8900     		lsl	r1, r1, #2
 154 00a0 C919     		add	r1, r1, r7
 155 00a2 0B60     		str	r3, [r1]
 156 00a4 4C60     		str	r4, [r1, #4]
  22:../Sources/main.c **** 	double ps = 0;
 157              		.loc 1 22 0
 158 00a6 A74C     		ldr	r4, .L340+4
 159 00a8 A54B     		ldr	r3, .L340
 160 00aa DA22     		mov	r2, #218
 161 00ac 9200     		lsl	r2, r2, #2
 162 00ae D219     		add	r2, r2, r7
 163 00b0 1360     		str	r3, [r2]
 164 00b2 5460     		str	r4, [r2, #4]
  23:../Sources/main.c **** 	double pb = 0;
 165              		.loc 1 23 0
 166 00b4 A34C     		ldr	r4, .L340+4
 167 00b6 A24B     		ldr	r3, .L340
 168 00b8 D821     		mov	r1, #216
 169 00ba 8900     		lsl	r1, r1, #2
 170 00bc C919     		add	r1, r1, r7
 171 00be 0B60     		str	r3, [r1]
 172 00c0 4C60     		str	r4, [r1, #4]
  24:../Sources/main.c **** 	int servang = 1000;
 173              		.loc 1 24 0
 174 00c2 FA23     		mov	r3, #250
 175 00c4 9B00     		lsl	r3, r3, #2
 176 00c6 D722     		mov	r2, #215
 177 00c8 9200     		lsl	r2, r2, #2
 178 00ca D219     		add	r2, r2, r7
 179 00cc 1360     		str	r3, [r2]
  25:../Sources/main.c **** 	double area[100];
  26:../Sources/main.c **** 	double grausaida = 0;
 180              		.loc 1 26 0
 181 00ce 9D4C     		ldr	r4, .L340+4
 182 00d0 9B4B     		ldr	r3, .L340
 183 00d2 D421     		mov	r1, #212
 184 00d4 8900     		lsl	r1, r1, #2
 185 00d6 C919     		add	r1, r1, r7
 186 00d8 0B60     		str	r3, [r1]
 187 00da 4C60     		str	r4, [r1, #4]
  27:../Sources/main.c **** 	double cognumerador = 0;
 188              		.loc 1 27 0
 189 00dc 994C     		ldr	r4, .L340+4
 190 00de 984B     		ldr	r3, .L340
 191 00e0 D222     		mov	r2, #210
 192 00e2 9200     		lsl	r2, r2, #2
 193 00e4 D219     		add	r2, r2, r7
 194 00e6 1360     		str	r3, [r2]
 195 00e8 5460     		str	r4, [r2, #4]
  28:../Sources/main.c **** 	double cogdenominador = 0;
 196              		.loc 1 28 0
 197 00ea 964C     		ldr	r4, .L340+4
 198 00ec 944B     		ldr	r3, .L340
 199 00ee D021     		mov	r1, #208
 200 00f0 8900     		lsl	r1, r1, #2
 201 00f2 C919     		add	r1, r1, r7
 202 00f4 0B60     		str	r3, [r1]
 203 00f6 4C60     		str	r4, [r1, #4]
  29:../Sources/main.c **** 	double cogfinal = 0;
 204              		.loc 1 29 0
 205 00f8 924C     		ldr	r4, .L340+4
 206 00fa 914B     		ldr	r3, .L340
 207 00fc CC22     		mov	r2, #204
 208 00fe 9200     		lsl	r2, r2, #2
 209 0100 D219     		add	r2, r2, r7
 210 0102 1360     		str	r3, [r2]
 211 0104 5460     		str	r4, [r2, #4]
  30:../Sources/main.c **** 
  31:../Sources/main.c **** //	float teste=(float)(media/22.0);
  32:../Sources/main.c **** 
  33:../Sources/main.c **** //---------------------OBTENÇÃO DE GRAU DAS FAIXA---------------------	
  34:../Sources/main.c **** 	if (((TFC_GetDIP_Switch() >> 1) & 0x03) == 0)
 212              		.loc 1 34 0
 213 0106 FFF7FEFF 		bl	TFC_GetDIP_Switch
 214 010a 031C     		mov	r3, r0
 215 010c 5B08     		lsr	r3, r3, #1
 216 010e DBB2     		uxtb	r3, r3
 217 0110 1A1C     		mov	r2, r3
 218 0112 0323     		mov	r3, #3
 219 0114 1340     		and	r3, r2
 220 0116 05D1     		bne	.L2
  35:../Sources/main.c **** 		TFC_HBRIDGE_DISABLE;
 221              		.loc 1 35 0
 222 0118 934B     		ldr	r3, .L340+40
 223 011a 8022     		mov	r2, #128
 224 011c 9203     		lsl	r2, r2, #14
 225 011e 9A60     		str	r2, [r3, #8]
 226 0120 03F008F8 		bl	.L1	@ far jump
 227              	.L2:
  36:../Sources/main.c **** 	else {
  37:../Sources/main.c **** 
  38:../Sources/main.c **** 		for (i = 0; i < 100; i++) // zerar o vetor da área
 228              		.loc 1 38 0
 229 0124 0023     		mov	r3, #0
 230 0126 EB24     		mov	r4, #235
 231 0128 A400     		lsl	r4, r4, #2
 232 012a E419     		add	r4, r4, r7
 233 012c 2360     		str	r3, [r4]
 234 012e 17E0     		b	.L4
 235              	.L5:
  39:../Sources/main.c **** 		{
  40:../Sources/main.c **** 			area[i] = 0;
 236              		.loc 1 40 0
 237 0130 8E4B     		ldr	r3, .L340+44
 238 0132 EC21     		mov	r1, #236
 239 0134 8900     		lsl	r1, r1, #2
 240 0136 C919     		add	r1, r1, r7
 241 0138 CA18     		add	r2, r1, r3
 242 013a EB24     		mov	r4, #235
 243 013c A400     		lsl	r4, r4, #2
 244 013e E419     		add	r4, r4, r7
 245 0140 2368     		ldr	r3, [r4]
 246 0142 DB00     		lsl	r3, r3, #3
 247 0144 D218     		add	r2, r2, r3
 248 0146 7F4C     		ldr	r4, .L340+4
 249 0148 7D4B     		ldr	r3, .L340
 250 014a 1360     		str	r3, [r2]
 251 014c 5460     		str	r4, [r2, #4]
  38:../Sources/main.c **** 		for (i = 0; i < 100; i++) // zerar o vetor da área
 252              		.loc 1 38 0
 253 014e EB21     		mov	r1, #235
 254 0150 8900     		lsl	r1, r1, #2
 255 0152 C919     		add	r1, r1, r7
 256 0154 0B68     		ldr	r3, [r1]
 257 0156 0133     		add	r3, r3, #1
 258 0158 EB22     		mov	r2, #235
 259 015a 9200     		lsl	r2, r2, #2
 260 015c D219     		add	r2, r2, r7
 261 015e 1360     		str	r3, [r2]
 262              	.L4:
  38:../Sources/main.c **** 		for (i = 0; i < 100; i++) // zerar o vetor da área
 263              		.loc 1 38 0 is_stmt 0
 264 0160 EB24     		mov	r4, #235
 265 0162 A400     		lsl	r4, r4, #2
 266 0164 E419     		add	r4, r4, r7
 267 0166 2368     		ldr	r3, [r4]
 268 0168 632B     		cmp	r3, #99
 269 016a E1DD     		ble	.L5
  41:../Sources/main.c **** 		}
  42:../Sources/main.c **** 
  43:../Sources/main.c **** //--------------Very left inicio------------------
  44:../Sources/main.c **** 
  45:../Sources/main.c **** 		if (media <= 20) {
 270              		.loc 1 45 0 is_stmt 1
 271 016c 804B     		ldr	r3, .L340+48
 272 016e 1B68     		ldr	r3, [r3]
 273 0170 142B     		cmp	r3, #20
 274 0172 07DC     		bgt	.L6
  46:../Sources/main.c **** 			grauvl = 1; // puxadinho da esquerda
 275              		.loc 1 46 0
 276 0174 744B     		ldr	r3, .L340+8
 277 0176 754C     		ldr	r4, .L340+12
 278 0178 E821     		mov	r1, #232
 279 017a 8900     		lsl	r1, r1, #2
 280 017c C919     		add	r1, r1, r7
 281 017e 0B60     		str	r3, [r1]
 282 0180 4C60     		str	r4, [r1, #4]
 283 0182 2BE0     		b	.L7
 284              	.L6:
  47:../Sources/main.c **** 		} else if (media >= 20 && media <= 40) {
 285              		.loc 1 47 0
 286 0184 7A4B     		ldr	r3, .L340+48
 287 0186 1B68     		ldr	r3, [r3]
 288 0188 132B     		cmp	r3, #19
 289 018a 20DD     		ble	.L8
 290              		.loc 1 47 0 is_stmt 0
 291 018c 784B     		ldr	r3, .L340+48
 292 018e 1B68     		ldr	r3, [r3]
 293 0190 282B     		cmp	r3, #40
 294 0192 1CDC     		bgt	.L8
  48:../Sources/main.c **** 			grauvl = ((float) (-media / 20)) + ((float) (2.0)); // reta s da folha
 295              		.loc 1 48 0 is_stmt 1
 296 0194 764B     		ldr	r3, .L340+48
 297 0196 1B68     		ldr	r3, [r3]
 298 0198 5B42     		neg	r3, r3
 299 019a 181C     		mov	r0, r3
 300 019c 1421     		mov	r1, #20
 301 019e FFF7FEFF 		bl	__aeabi_idiv
 302 01a2 031C     		mov	r3, r0
 303 01a4 181C     		mov	r0, r3
 304 01a6 FFF7FEFF 		bl	__aeabi_i2f
 305 01aa 031C     		add	r3, r0, #0
 306 01ac 181C     		add	r0, r3, #0
 307 01ae 8021     		mov	r1, #128
 308 01b0 C905     		lsl	r1, r1, #23
 309 01b2 FFF7FEFF 		bl	__aeabi_fadd
 310 01b6 031C     		add	r3, r0, #0
 311 01b8 181C     		add	r0, r3, #0
 312 01ba FFF7FEFF 		bl	__aeabi_f2d
 313 01be 031C     		mov	r3, r0
 314 01c0 0C1C     		mov	r4, r1
 315 01c2 E822     		mov	r2, #232
 316 01c4 9200     		lsl	r2, r2, #2
 317 01c6 D219     		add	r2, r2, r7
 318 01c8 1360     		str	r3, [r2]
 319 01ca 5460     		str	r4, [r2, #4]
 320 01cc 06E0     		b	.L7
 321              	.L8:
  49:../Sources/main.c **** 		} else
  50:../Sources/main.c **** 			grauvl = 0;
 322              		.loc 1 50 0
 323 01ce 5D4C     		ldr	r4, .L340+4
 324 01d0 5B4B     		ldr	r3, .L340
 325 01d2 E821     		mov	r1, #232
 326 01d4 8900     		lsl	r1, r1, #2
 327 01d6 C919     		add	r1, r1, r7
 328 01d8 0B60     		str	r3, [r1]
 329 01da 4C60     		str	r4, [r1, #4]
 330              	.L7:
  51:../Sources/main.c **** //----------very left final-------------
  52:../Sources/main.c **** 
  53:../Sources/main.c **** //-------------- left inicio------------------
  54:../Sources/main.c **** 
  55:../Sources/main.c **** 		if (media >= 20 && media <= 40) {
 331              		.loc 1 55 0
 332 01dc 644B     		ldr	r3, .L340+48
 333 01de 1B68     		ldr	r3, [r3]
 334 01e0 132B     		cmp	r3, #19
 335 01e2 22DD     		ble	.L9
 336              		.loc 1 55 0 is_stmt 0
 337 01e4 624B     		ldr	r3, .L340+48
 338 01e6 1B68     		ldr	r3, [r3]
 339 01e8 282B     		cmp	r3, #40
 340 01ea 1EDC     		bgt	.L9
  56:../Sources/main.c **** 			graul = ((float) (media / 20.0)) - ((float) (1.0)); // reta r da folha
 341              		.loc 1 56 0 is_stmt 1
 342 01ec 604B     		ldr	r3, .L340+48
 343 01ee 1B68     		ldr	r3, [r3]
 344 01f0 181C     		mov	r0, r3
 345 01f2 FFF7FEFF 		bl	__aeabi_i2d
 346 01f6 031C     		mov	r3, r0
 347 01f8 0C1C     		mov	r4, r1
 348 01fa 181C     		mov	r0, r3
 349 01fc 211C     		mov	r1, r4
 350 01fe 544A     		ldr	r2, .L340+16
 351 0200 544B     		ldr	r3, .L340+20
 352 0202 FFF7FEFF 		bl	__aeabi_ddiv
 353 0206 031C     		mov	r3, r0
 354 0208 0C1C     		mov	r4, r1
 355 020a 181C     		mov	r0, r3
 356 020c 211C     		mov	r1, r4
 357 020e FFF7FEFF 		bl	__aeabi_d2f
 358 0212 031C     		add	r3, r0, #0
 359 0214 181C     		add	r0, r3, #0
 360 0216 FE21     		mov	r1, #254
 361 0218 8905     		lsl	r1, r1, #22
 362 021a FFF7FEFF 		bl	__aeabi_fsub
 363 021e 031C     		add	r3, r0, #0
 364 0220 CB22     		mov	r2, #203
 365 0222 9200     		lsl	r2, r2, #2
 366 0224 D219     		add	r2, r2, r7
 367 0226 1360     		str	r3, [r2]
 368 0228 2BE0     		b	.L10
 369              	.L9:
  57:../Sources/main.c **** 		} else if (media >= 40 && media < 50) {
 370              		.loc 1 57 0
 371 022a 514B     		ldr	r3, .L340+48
 372 022c 1B68     		ldr	r3, [r3]
 373 022e 272B     		cmp	r3, #39
 374 0230 22DD     		ble	.L11
 375              		.loc 1 57 0 is_stmt 0
 376 0232 4F4B     		ldr	r3, .L340+48
 377 0234 1B68     		ldr	r3, [r3]
 378 0236 312B     		cmp	r3, #49
 379 0238 1EDC     		bgt	.L11
  58:../Sources/main.c **** 			graul = ((float) (-media / 10.0)) + ((float) (5.0)); // reta u da folha
 380              		.loc 1 58 0 is_stmt 1
 381 023a 4D4B     		ldr	r3, .L340+48
 382 023c 1B68     		ldr	r3, [r3]
 383 023e 5B42     		neg	r3, r3
 384 0240 181C     		mov	r0, r3
 385 0242 FFF7FEFF 		bl	__aeabi_i2d
 386 0246 031C     		mov	r3, r0
 387 0248 0C1C     		mov	r4, r1
 388 024a 181C     		mov	r0, r3
 389 024c 211C     		mov	r1, r4
 390 024e 424A     		ldr	r2, .L340+24
 391 0250 424B     		ldr	r3, .L340+28
 392 0252 FFF7FEFF 		bl	__aeabi_ddiv
 393 0256 031C     		mov	r3, r0
 394 0258 0C1C     		mov	r4, r1
 395 025a 181C     		mov	r0, r3
 396 025c 211C     		mov	r1, r4
 397 025e FFF7FEFF 		bl	__aeabi_d2f
 398 0262 031C     		add	r3, r0, #0
 399 0264 181C     		add	r0, r3, #0
 400 0266 4349     		ldr	r1, .L340+52
 401 0268 FFF7FEFF 		bl	__aeabi_fadd
 402 026c 031C     		add	r3, r0, #0
 403 026e CB24     		mov	r4, #203
 404 0270 A400     		lsl	r4, r4, #2
 405 0272 E419     		add	r4, r4, r7
 406 0274 2360     		str	r3, [r4]
 407 0276 04E0     		b	.L10
 408              	.L11:
  59:../Sources/main.c **** 		} else
  60:../Sources/main.c **** 			graul = 0;
 409              		.loc 1 60 0
 410 0278 0023     		mov	r3, #0
 411 027a CB21     		mov	r1, #203
 412 027c 8900     		lsl	r1, r1, #2
 413 027e C919     		add	r1, r1, r7
 414 0280 0B60     		str	r3, [r1]
 415              	.L10:
  61:../Sources/main.c **** //---------- left final-------------	
  62:../Sources/main.c **** 
  63:../Sources/main.c **** //-------------- medium inicio------------------
  64:../Sources/main.c **** 
  65:../Sources/main.c **** 		if (media >= 40 && media <= 50) {
 416              		.loc 1 65 0
 417 0282 3B4B     		ldr	r3, .L340+48
 418 0284 1B68     		ldr	r3, [r3]
 419 0286 272B     		cmp	r3, #39
 420 0288 22DD     		ble	.L12
 421              		.loc 1 65 0 is_stmt 0
 422 028a 394B     		ldr	r3, .L340+48
 423 028c 1B68     		ldr	r3, [r3]
 424 028e 322B     		cmp	r3, #50
 425 0290 1EDC     		bgt	.L12
  66:../Sources/main.c **** 			graum = ((float) (media / 10.0)) - ((float) (4.0)); // reta t da folha
 426              		.loc 1 66 0 is_stmt 1
 427 0292 374B     		ldr	r3, .L340+48
 428 0294 1B68     		ldr	r3, [r3]
 429 0296 181C     		mov	r0, r3
 430 0298 FFF7FEFF 		bl	__aeabi_i2d
 431 029c 031C     		mov	r3, r0
 432 029e 0C1C     		mov	r4, r1
 433 02a0 181C     		mov	r0, r3
 434 02a2 211C     		mov	r1, r4
 435 02a4 2C4A     		ldr	r2, .L340+24
 436 02a6 2D4B     		ldr	r3, .L340+28
 437 02a8 FFF7FEFF 		bl	__aeabi_ddiv
 438 02ac 031C     		mov	r3, r0
 439 02ae 0C1C     		mov	r4, r1
 440 02b0 181C     		mov	r0, r3
 441 02b2 211C     		mov	r1, r4
 442 02b4 FFF7FEFF 		bl	__aeabi_d2f
 443 02b8 031C     		add	r3, r0, #0
 444 02ba 181C     		add	r0, r3, #0
 445 02bc 8121     		mov	r1, #129
 446 02be C905     		lsl	r1, r1, #23
 447 02c0 FFF7FEFF 		bl	__aeabi_fsub
 448 02c4 031C     		add	r3, r0, #0
 449 02c6 CA22     		mov	r2, #202
 450 02c8 9200     		lsl	r2, r2, #2
 451 02ca D219     		add	r2, r2, r7
 452 02cc 1360     		str	r3, [r2]
 453 02ce 5AE0     		b	.L13
 454              	.L12:
  67:../Sources/main.c **** 		} else if (media >= 80 && media <= 90) {
 455              		.loc 1 67 0
 456 02d0 274B     		ldr	r3, .L340+48
 457 02d2 1B68     		ldr	r3, [r3]
 458 02d4 4F2B     		cmp	r3, #79
 459 02d6 22DD     		ble	.L14
 460              		.loc 1 67 0 is_stmt 0
 461 02d8 254B     		ldr	r3, .L340+48
 462 02da 1B68     		ldr	r3, [r3]
 463 02dc 5A2B     		cmp	r3, #90
 464 02de 1EDC     		bgt	.L14
  68:../Sources/main.c **** 			graum = ((float) (-media / 10.0)) + ((float) (9.0)); // reta w da folha
 465              		.loc 1 68 0 is_stmt 1
 466 02e0 234B     		ldr	r3, .L340+48
 467 02e2 1B68     		ldr	r3, [r3]
 468 02e4 5B42     		neg	r3, r3
 469 02e6 181C     		mov	r0, r3
 470 02e8 FFF7FEFF 		bl	__aeabi_i2d
 471 02ec 031C     		mov	r3, r0
 472 02ee 0C1C     		mov	r4, r1
 473 02f0 181C     		mov	r0, r3
 474 02f2 211C     		mov	r1, r4
 475 02f4 184A     		ldr	r2, .L340+24
 476 02f6 194B     		ldr	r3, .L340+28
 477 02f8 FFF7FEFF 		bl	__aeabi_ddiv
 478 02fc 031C     		mov	r3, r0
 479 02fe 0C1C     		mov	r4, r1
 480 0300 181C     		mov	r0, r3
 481 0302 211C     		mov	r1, r4
 482 0304 FFF7FEFF 		bl	__aeabi_d2f
 483 0308 031C     		add	r3, r0, #0
 484 030a 181C     		add	r0, r3, #0
 485 030c 1A49     		ldr	r1, .L340+56
 486 030e FFF7FEFF 		bl	__aeabi_fadd
 487 0312 031C     		add	r3, r0, #0
 488 0314 CA24     		mov	r4, #202
 489 0316 A400     		lsl	r4, r4, #2
 490 0318 E419     		add	r4, r4, r7
 491 031a 2360     		str	r3, [r4]
 492 031c 33E0     		b	.L13
 493              	.L14:
  69:../Sources/main.c **** 		} 
  70:../Sources/main.c **** 		else if(media>=50 && media<=80){
 494              		.loc 1 70 0
 495 031e 144B     		ldr	r3, .L340+48
 496 0320 1B68     		ldr	r3, [r3]
 497 0322 312B     		cmp	r3, #49
 498 0324 2ADD     		ble	.L15
 499              		.loc 1 70 0 is_stmt 0
 500 0326 124B     		ldr	r3, .L340+48
 501 0328 1B68     		ldr	r3, [r3]
 502 032a 502B     		cmp	r3, #80
 503 032c 26DC     		bgt	.L15
  71:../Sources/main.c **** 			graum=1;
 504              		.loc 1 71 0 is_stmt 1
 505 032e FE23     		mov	r3, #254
 506 0330 9B05     		lsl	r3, r3, #22
 507 0332 CA21     		mov	r1, #202
 508 0334 8900     		lsl	r1, r1, #2
 509 0336 C919     		add	r1, r1, r7
 510 0338 0B60     		str	r3, [r1]
 511 033a 24E0     		b	.L13
 512              	.L341:
 513 033c C046C046 		.align	3
 514              	.L340:
 515 0340 00000000 		.word	0
 516 0344 00000000 		.word	0
 517 0348 00000000 		.word	0
 518 034c 0000F03F 		.word	1072693248
 519 0350 00000000 		.word	0
 520 0354 00003440 		.word	1077149696
 521 0358 00000000 		.word	0
 522 035c 00002440 		.word	1076101120
 523 0360 4CFCFFFF 		.word	-948
 524 0364 204E0000 		.word	20000
 525 0368 00F10F40 		.word	1074786560
 526 036c 50FCFFFF 		.word	-944
 527 0370 00000000 		.word	media
 528 0374 0000A040 		.word	1084227584
 529 0378 00001041 		.word	1091567616
 530              	.L15:
  72:../Sources/main.c **** 		}
  73:../Sources/main.c **** 				else
  74:../Sources/main.c **** 			graum = 0;
 531              		.loc 1 74 0
 532 037c 0023     		mov	r3, #0
 533 037e CA22     		mov	r2, #202
 534 0380 9200     		lsl	r2, r2, #2
 535 0382 D219     		add	r2, r2, r7
 536 0384 1360     		str	r3, [r2]
 537              	.L13:
  75:../Sources/main.c **** //---------- medium final-------------	
  76:../Sources/main.c **** 
  77:../Sources/main.c **** //-------------- right inicio------------------
  78:../Sources/main.c **** 
  79:../Sources/main.c **** 		if (media >= 80 && media <= 90) {
 538              		.loc 1 79 0
 539 0386 D84B     		ldr	r3, .L342+48
 540 0388 1B68     		ldr	r3, [r3]
 541 038a 4F2B     		cmp	r3, #79
 542 038c 27DD     		ble	.L16
 543              		.loc 1 79 0 is_stmt 0
 544 038e D64B     		ldr	r3, .L342+48
 545 0390 1B68     		ldr	r3, [r3]
 546 0392 5A2B     		cmp	r3, #90
 547 0394 23DC     		bgt	.L16
  80:../Sources/main.c **** 			graur = ((float) (media / 10.0)) - (7); // reta v da folha
 548              		.loc 1 80 0 is_stmt 1
 549 0396 D44B     		ldr	r3, .L342+48
 550 0398 1B68     		ldr	r3, [r3]
 551 039a 181C     		mov	r0, r3
 552 039c FFF7FEFF 		bl	__aeabi_i2d
 553 03a0 031C     		mov	r3, r0
 554 03a2 0C1C     		mov	r4, r1
 555 03a4 181C     		mov	r0, r3
 556 03a6 211C     		mov	r1, r4
 557 03a8 C44B     		ldr	r3, .L342+4
 558 03aa C34A     		ldr	r2, .L342
 559 03ac FFF7FEFF 		bl	__aeabi_ddiv
 560 03b0 031C     		mov	r3, r0
 561 03b2 0C1C     		mov	r4, r1
 562 03b4 181C     		mov	r0, r3
 563 03b6 211C     		mov	r1, r4
 564 03b8 FFF7FEFF 		bl	__aeabi_d2f
 565 03bc 031C     		add	r3, r0, #0
 566 03be 181C     		add	r0, r3, #0
 567 03c0 CA49     		ldr	r1, .L342+52
 568 03c2 FFF7FEFF 		bl	__aeabi_fsub
 569 03c6 031C     		add	r3, r0, #0
 570 03c8 181C     		add	r0, r3, #0
 571 03ca FFF7FEFF 		bl	__aeabi_f2d
 572 03ce 031C     		mov	r3, r0
 573 03d0 0C1C     		mov	r4, r1
 574 03d2 E621     		mov	r1, #230
 575 03d4 8900     		lsl	r1, r1, #2
 576 03d6 C919     		add	r1, r1, r7
 577 03d8 0B60     		str	r3, [r1]
 578 03da 4C60     		str	r4, [r1, #4]
 579 03dc 33E0     		b	.L17
 580              	.L16:
  81:../Sources/main.c **** 		} else if (media >= 90 && media < 110) {
 581              		.loc 1 81 0
 582 03de C24B     		ldr	r3, .L342+48
 583 03e0 1B68     		ldr	r3, [r3]
 584 03e2 592B     		cmp	r3, #89
 585 03e4 28DD     		ble	.L18
 586              		.loc 1 81 0 is_stmt 0
 587 03e6 C04B     		ldr	r3, .L342+48
 588 03e8 1B68     		ldr	r3, [r3]
 589 03ea 6D2B     		cmp	r3, #109
 590 03ec 24DC     		bgt	.L18
  82:../Sources/main.c **** 			graur = ((float) (-media /20.0)) + ((float) (5.0)); // reta y da folha
 591              		.loc 1 82 0 is_stmt 1
 592 03ee BE4B     		ldr	r3, .L342+48
 593 03f0 1B68     		ldr	r3, [r3]
 594 03f2 5B42     		neg	r3, r3
 595 03f4 181C     		mov	r0, r3
 596 03f6 FFF7FEFF 		bl	__aeabi_i2d
 597 03fa 031C     		mov	r3, r0
 598 03fc 0C1C     		mov	r4, r1
 599 03fe 181C     		mov	r0, r3
 600 0400 211C     		mov	r1, r4
 601 0402 AF4A     		ldr	r2, .L342+8
 602 0404 AF4B     		ldr	r3, .L342+12
 603 0406 FFF7FEFF 		bl	__aeabi_ddiv
 604 040a 031C     		mov	r3, r0
 605 040c 0C1C     		mov	r4, r1
 606 040e 181C     		mov	r0, r3
 607 0410 211C     		mov	r1, r4
 608 0412 FFF7FEFF 		bl	__aeabi_d2f
 609 0416 031C     		add	r3, r0, #0
 610 0418 181C     		add	r0, r3, #0
 611 041a B549     		ldr	r1, .L342+56
 612 041c FFF7FEFF 		bl	__aeabi_fadd
 613 0420 031C     		add	r3, r0, #0
 614 0422 181C     		add	r0, r3, #0
 615 0424 FFF7FEFF 		bl	__aeabi_f2d
 616 0428 031C     		mov	r3, r0
 617 042a 0C1C     		mov	r4, r1
 618 042c E622     		mov	r2, #230
 619 042e 9200     		lsl	r2, r2, #2
 620 0430 D219     		add	r2, r2, r7
 621 0432 1360     		str	r3, [r2]
 622 0434 5460     		str	r4, [r2, #4]
 623 0436 06E0     		b	.L17
 624              	.L18:
  83:../Sources/main.c **** 		} else
  84:../Sources/main.c **** 			graur = 0;
 625              		.loc 1 84 0
 626 0438 A34B     		ldr	r3, .L342+16
 627 043a A44C     		ldr	r4, .L342+20
 628 043c E621     		mov	r1, #230
 629 043e 8900     		lsl	r1, r1, #2
 630 0440 C919     		add	r1, r1, r7
 631 0442 0B60     		str	r3, [r1]
 632 0444 4C60     		str	r4, [r1, #4]
 633              	.L17:
  85:../Sources/main.c **** //-------------- right final-------------			
  86:../Sources/main.c **** 
  87:../Sources/main.c **** //-------------- very right inicio------------------
  88:../Sources/main.c **** 
  89:../Sources/main.c **** 		if (media >= 90 && media < 110) {
 634              		.loc 1 89 0
 635 0446 A84B     		ldr	r3, .L342+48
 636 0448 1B68     		ldr	r3, [r3]
 637 044a 592B     		cmp	r3, #89
 638 044c 27DD     		ble	.L19
 639              		.loc 1 89 0 is_stmt 0
 640 044e A64B     		ldr	r3, .L342+48
 641 0450 1B68     		ldr	r3, [r3]
 642 0452 6D2B     		cmp	r3, #109
 643 0454 23DC     		bgt	.L19
  90:../Sources/main.c **** 			grauvr = ((float) (media / 20.0)) - ((float) (4.5)); // reta x da folha
 644              		.loc 1 90 0 is_stmt 1
 645 0456 A44B     		ldr	r3, .L342+48
 646 0458 1B68     		ldr	r3, [r3]
 647 045a 181C     		mov	r0, r3
 648 045c FFF7FEFF 		bl	__aeabi_i2d
 649 0460 031C     		mov	r3, r0
 650 0462 0C1C     		mov	r4, r1
 651 0464 181C     		mov	r0, r3
 652 0466 211C     		mov	r1, r4
 653 0468 954A     		ldr	r2, .L342+8
 654 046a 964B     		ldr	r3, .L342+12
 655 046c FFF7FEFF 		bl	__aeabi_ddiv
 656 0470 031C     		mov	r3, r0
 657 0472 0C1C     		mov	r4, r1
 658 0474 181C     		mov	r0, r3
 659 0476 211C     		mov	r1, r4
 660 0478 FFF7FEFF 		bl	__aeabi_d2f
 661 047c 031C     		add	r3, r0, #0
 662 047e 181C     		add	r0, r3, #0
 663 0480 9C49     		ldr	r1, .L342+60
 664 0482 FFF7FEFF 		bl	__aeabi_fsub
 665 0486 031C     		add	r3, r0, #0
 666 0488 181C     		add	r0, r3, #0
 667 048a FFF7FEFF 		bl	__aeabi_f2d
 668 048e 031C     		mov	r3, r0
 669 0490 0C1C     		mov	r4, r1
 670 0492 E422     		mov	r2, #228
 671 0494 9200     		lsl	r2, r2, #2
 672 0496 D219     		add	r2, r2, r7
 673 0498 1360     		str	r3, [r2]
 674 049a 5460     		str	r4, [r2, #4]
 675 049c 12E0     		b	.L20
 676              	.L19:
  91:../Sources/main.c **** 		} else if (media >= 110) {
 677              		.loc 1 91 0
 678 049e 924B     		ldr	r3, .L342+48
 679 04a0 1B68     		ldr	r3, [r3]
 680 04a2 6D2B     		cmp	r3, #109
 681 04a4 07DD     		ble	.L21
  92:../Sources/main.c **** 			grauvr = 1; // reta y da folha
 682              		.loc 1 92 0
 683 04a6 8A4B     		ldr	r3, .L342+24
 684 04a8 8A4C     		ldr	r4, .L342+28
 685 04aa E421     		mov	r1, #228
 686 04ac 8900     		lsl	r1, r1, #2
 687 04ae C919     		add	r1, r1, r7
 688 04b0 0B60     		str	r3, [r1]
 689 04b2 4C60     		str	r4, [r1, #4]
 690 04b4 06E0     		b	.L20
 691              	.L21:
  93:../Sources/main.c **** 		} else
  94:../Sources/main.c **** 			grauvr = 0;
 692              		.loc 1 94 0
 693 04b6 844B     		ldr	r3, .L342+16
 694 04b8 844C     		ldr	r4, .L342+20
 695 04ba E422     		mov	r2, #228
 696 04bc 9200     		lsl	r2, r2, #2
 697 04be D219     		add	r2, r2, r7
 698 04c0 1360     		str	r3, [r2]
 699 04c2 5460     		str	r4, [r2, #4]
 700              	.L20:
  95:../Sources/main.c **** //-------------- very right final-------------			
  96:../Sources/main.c **** 
  97:../Sources/main.c **** //----------- FIM DA OBTENÇÃO DOS GRAUS DA FAIXA-------------
  98:../Sources/main.c **** 
  99:../Sources/main.c **** //----------- GRAU VELOCIDADE ----------------
 100:../Sources/main.c **** 
 101:../Sources/main.c **** //---------- SLOW --------------------------
 102:../Sources/main.c **** 
 103:../Sources/main.c **** 		if (spd < 2000) {
 701              		.loc 1 103 0
 702 04c4 CF23     		mov	r3, #207
 703 04c6 9B00     		lsl	r3, r3, #2
 704 04c8 DB19     		add	r3, r3, r7
 705 04ca 1A68     		ldr	r2, [r3]
 706 04cc 8A4B     		ldr	r3, .L342+64
 707 04ce 9A42     		cmp	r2, r3
 708 04d0 06DC     		bgt	.L22
 104:../Sources/main.c **** 			grausl = 1;
 709              		.loc 1 104 0
 710 04d2 FE23     		mov	r3, #254
 711 04d4 9B05     		lsl	r3, r3, #22
 712 04d6 C924     		mov	r4, #201
 713 04d8 A400     		lsl	r4, r4, #2
 714 04da E419     		add	r4, r4, r7
 715 04dc 2360     		str	r3, [r4]
 716 04de 2DE0     		b	.L23
 717              	.L22:
 105:../Sources/main.c **** 
 106:../Sources/main.c **** 		} else if (spd >= 2000 && spd < 11000) {
 718              		.loc 1 106 0
 719 04e0 CF21     		mov	r1, #207
 720 04e2 8900     		lsl	r1, r1, #2
 721 04e4 C919     		add	r1, r1, r7
 722 04e6 0A68     		ldr	r2, [r1]
 723 04e8 834B     		ldr	r3, .L342+64
 724 04ea 9A42     		cmp	r2, r3
 725 04ec 26DD     		ble	.L23
 726              		.loc 1 106 0 is_stmt 0
 727 04ee CF23     		mov	r3, #207
 728 04f0 9B00     		lsl	r3, r3, #2
 729 04f2 DB19     		add	r3, r3, r7
 730 04f4 1A68     		ldr	r2, [r3]
 731 04f6 814B     		ldr	r3, .L342+68
 732 04f8 9A42     		cmp	r2, r3
 733 04fa 1FDC     		bgt	.L23
 107:../Sources/main.c **** 			grausl = ((float) (-spd / 9000.0)) + ((float) (11.0 / 9));
 734              		.loc 1 107 0 is_stmt 1
 735 04fc CF24     		mov	r4, #207
 736 04fe A400     		lsl	r4, r4, #2
 737 0500 E419     		add	r4, r4, r7
 738 0502 2368     		ldr	r3, [r4]
 739 0504 5B42     		neg	r3, r3
 740 0506 181C     		mov	r0, r3
 741 0508 FFF7FEFF 		bl	__aeabi_i2d
 742 050c 031C     		mov	r3, r0
 743 050e 0C1C     		mov	r4, r1
 744 0510 181C     		mov	r0, r3
 745 0512 211C     		mov	r1, r4
 746 0514 704A     		ldr	r2, .L342+32
 747 0516 714B     		ldr	r3, .L342+36
 748 0518 FFF7FEFF 		bl	__aeabi_ddiv
 749 051c 031C     		mov	r3, r0
 750 051e 0C1C     		mov	r4, r1
 751 0520 181C     		mov	r0, r3
 752 0522 211C     		mov	r1, r4
 753 0524 FFF7FEFF 		bl	__aeabi_d2f
 754 0528 031C     		add	r3, r0, #0
 755 052a 181C     		add	r0, r3, #0
 756 052c 7449     		ldr	r1, .L342+72
 757 052e FFF7FEFF 		bl	__aeabi_fadd
 758 0532 031C     		add	r3, r0, #0
 759 0534 C921     		mov	r1, #201
 760 0536 8900     		lsl	r1, r1, #2
 761 0538 C919     		add	r1, r1, r7
 762 053a 0B60     		str	r3, [r1]
 763              	.L23:
 108:../Sources/main.c **** 		}
 109:../Sources/main.c **** 
 110:../Sources/main.c **** //--------------- FAST ---------------------
 111:../Sources/main.c **** 
 112:../Sources/main.c **** 		if (spd > 2000 && spd < 11000) {
 764              		.loc 1 112 0
 765 053c CF23     		mov	r3, #207
 766 053e 9B00     		lsl	r3, r3, #2
 767 0540 DB19     		add	r3, r3, r7
 768 0542 1A68     		ldr	r2, [r3]
 769 0544 FA23     		mov	r3, #250
 770 0546 DB00     		lsl	r3, r3, #3
 771 0548 9A42     		cmp	r2, r3
 772 054a 25DD     		ble	.L24
 773              		.loc 1 112 0 is_stmt 0
 774 054c CF24     		mov	r4, #207
 775 054e A400     		lsl	r4, r4, #2
 776 0550 E419     		add	r4, r4, r7
 777 0552 2268     		ldr	r2, [r4]
 778 0554 694B     		ldr	r3, .L342+68
 779 0556 9A42     		cmp	r2, r3
 780 0558 1EDC     		bgt	.L24
 113:../Sources/main.c **** 			grauf = ((float) (spd / 9000.0)) - ((float) (2.0 / 9));
 781              		.loc 1 113 0 is_stmt 1
 782 055a CF21     		mov	r1, #207
 783 055c 8900     		lsl	r1, r1, #2
 784 055e C919     		add	r1, r1, r7
 785 0560 0868     		ldr	r0, [r1]
 786 0562 FFF7FEFF 		bl	__aeabi_i2d
 787 0566 031C     		mov	r3, r0
 788 0568 0C1C     		mov	r4, r1
 789 056a 181C     		mov	r0, r3
 790 056c 211C     		mov	r1, r4
 791 056e 5A4A     		ldr	r2, .L342+32
 792 0570 5A4B     		ldr	r3, .L342+36
 793 0572 FFF7FEFF 		bl	__aeabi_ddiv
 794 0576 031C     		mov	r3, r0
 795 0578 0C1C     		mov	r4, r1
 796 057a 181C     		mov	r0, r3
 797 057c 211C     		mov	r1, r4
 798 057e FFF7FEFF 		bl	__aeabi_d2f
 799 0582 031C     		add	r3, r0, #0
 800 0584 181C     		add	r0, r3, #0
 801 0586 5F49     		ldr	r1, .L342+76
 802 0588 FFF7FEFF 		bl	__aeabi_fsub
 803 058c 031C     		add	r3, r0, #0
 804 058e C822     		mov	r2, #200
 805 0590 9200     		lsl	r2, r2, #2
 806 0592 D219     		add	r2, r2, r7
 807 0594 1360     		str	r3, [r2]
 808 0596 2DE0     		b	.L25
 809              	.L24:
 114:../Sources/main.c **** 		}
 115:../Sources/main.c **** 
 116:../Sources/main.c **** 		else if (spd >= 11000 && spd < 18000) {
 810              		.loc 1 116 0
 811 0598 CF23     		mov	r3, #207
 812 059a 9B00     		lsl	r3, r3, #2
 813 059c DB19     		add	r3, r3, r7
 814 059e 1A68     		ldr	r2, [r3]
 815 05a0 564B     		ldr	r3, .L342+68
 816 05a2 9A42     		cmp	r2, r3
 817 05a4 26DD     		ble	.L25
 818              		.loc 1 116 0 is_stmt 0
 819 05a6 CF24     		mov	r4, #207
 820 05a8 A400     		lsl	r4, r4, #2
 821 05aa E419     		add	r4, r4, r7
 822 05ac 2268     		ldr	r2, [r4]
 823 05ae 564B     		ldr	r3, .L342+80
 824 05b0 9A42     		cmp	r2, r3
 825 05b2 1FDC     		bgt	.L25
 117:../Sources/main.c **** 			grauf = ((float) (-spd / 7000.0)) + ((float) (18.0 / 7));
 826              		.loc 1 117 0 is_stmt 1
 827 05b4 CF21     		mov	r1, #207
 828 05b6 8900     		lsl	r1, r1, #2
 829 05b8 C919     		add	r1, r1, r7
 830 05ba 0B68     		ldr	r3, [r1]
 831 05bc 5B42     		neg	r3, r3
 832 05be 181C     		mov	r0, r3
 833 05c0 FFF7FEFF 		bl	__aeabi_i2d
 834 05c4 031C     		mov	r3, r0
 835 05c6 0C1C     		mov	r4, r1
 836 05c8 181C     		mov	r0, r3
 837 05ca 211C     		mov	r1, r4
 838 05cc 444A     		ldr	r2, .L342+40
 839 05ce 454B     		ldr	r3, .L342+44
 840 05d0 FFF7FEFF 		bl	__aeabi_ddiv
 841 05d4 031C     		mov	r3, r0
 842 05d6 0C1C     		mov	r4, r1
 843 05d8 181C     		mov	r0, r3
 844 05da 211C     		mov	r1, r4
 845 05dc FFF7FEFF 		bl	__aeabi_d2f
 846 05e0 031C     		add	r3, r0, #0
 847 05e2 181C     		add	r0, r3, #0
 848 05e4 4949     		ldr	r1, .L342+84
 849 05e6 FFF7FEFF 		bl	__aeabi_fadd
 850 05ea 031C     		add	r3, r0, #0
 851 05ec C822     		mov	r2, #200
 852 05ee 9200     		lsl	r2, r2, #2
 853 05f0 D219     		add	r2, r2, r7
 854 05f2 1360     		str	r3, [r2]
 855              	.L25:
 118:../Sources/main.c **** 		}
 119:../Sources/main.c **** 
 120:../Sources/main.c **** //------------ RAPID ---------------------
 121:../Sources/main.c **** 
 122:../Sources/main.c **** 		if (spd > 11000 && spd <= 18000) {
 856              		.loc 1 122 0
 857 05f4 CF23     		mov	r3, #207
 858 05f6 9B00     		lsl	r3, r3, #2
 859 05f8 DB19     		add	r3, r3, r7
 860 05fa 1A68     		ldr	r2, [r3]
 861 05fc 444B     		ldr	r3, .L342+88
 862 05fe 9A42     		cmp	r2, r3
 863 0600 2BDD     		ble	.L26
 864              		.loc 1 122 0 is_stmt 0
 865 0602 CF24     		mov	r4, #207
 866 0604 A400     		lsl	r4, r4, #2
 867 0606 E419     		add	r4, r4, r7
 868 0608 2268     		ldr	r2, [r4]
 869 060a 424B     		ldr	r3, .L342+92
 870 060c 9A42     		cmp	r2, r3
 871 060e 24DC     		bgt	.L26
 123:../Sources/main.c **** 			graura = ((float) (spd / 7000.0)) - ((float) (11.0 / 7));
 872              		.loc 1 123 0 is_stmt 1
 873 0610 CF21     		mov	r1, #207
 874 0612 8900     		lsl	r1, r1, #2
 875 0614 C919     		add	r1, r1, r7
 876 0616 0868     		ldr	r0, [r1]
 877 0618 FFF7FEFF 		bl	__aeabi_i2d
 878 061c 031C     		mov	r3, r0
 879 061e 0C1C     		mov	r4, r1
 880 0620 181C     		mov	r0, r3
 881 0622 211C     		mov	r1, r4
 882 0624 2E4A     		ldr	r2, .L342+40
 883 0626 2F4B     		ldr	r3, .L342+44
 884 0628 FFF7FEFF 		bl	__aeabi_ddiv
 885 062c 031C     		mov	r3, r0
 886 062e 0C1C     		mov	r4, r1
 887 0630 181C     		mov	r0, r3
 888 0632 211C     		mov	r1, r4
 889 0634 FFF7FEFF 		bl	__aeabi_d2f
 890 0638 031C     		add	r3, r0, #0
 891 063a 181C     		add	r0, r3, #0
 892 063c 3649     		ldr	r1, .L342+96
 893 063e FFF7FEFF 		bl	__aeabi_fsub
 894 0642 031C     		add	r3, r0, #0
 895 0644 181C     		add	r0, r3, #0
 896 0646 FFF7FEFF 		bl	__aeabi_f2d
 897 064a 031C     		mov	r3, r0
 898 064c 0C1C     		mov	r4, r1
 899 064e E222     		mov	r2, #226
 900 0650 9200     		lsl	r2, r2, #2
 901 0652 D219     		add	r2, r2, r7
 902 0654 1360     		str	r3, [r2]
 903 0656 5460     		str	r4, [r2, #4]
 904 0658 0DE0     		b	.L27
 905              	.L26:
 124:../Sources/main.c **** 		} else if (spd > 18000)
 906              		.loc 1 124 0
 907 065a CF23     		mov	r3, #207
 908 065c 9B00     		lsl	r3, r3, #2
 909 065e DB19     		add	r3, r3, r7
 910 0660 1A68     		ldr	r2, [r3]
 911 0662 2C4B     		ldr	r3, .L342+92
 912 0664 9A42     		cmp	r2, r3
 913 0666 06DD     		ble	.L27
 125:../Sources/main.c **** 			graura = 1;
 914              		.loc 1 125 0
 915 0668 194B     		ldr	r3, .L342+24
 916 066a 1A4C     		ldr	r4, .L342+28
 917 066c E221     		mov	r1, #226
 918 066e 8900     		lsl	r1, r1, #2
 919 0670 C919     		add	r1, r1, r7
 920 0672 0B60     		str	r3, [r1]
 921 0674 4C60     		str	r4, [r1, #4]
 922              	.L27:
 126:../Sources/main.c **** 
 127:../Sources/main.c **** //------------- FIM DOS GRAUS ---------------	
 128:../Sources/main.c **** 
 129:../Sources/main.c **** //---------- COMPARAÇÃO DOS GRAUS -------------
 130:../Sources/main.c **** 
 131:../Sources/main.c **** // --------------- SL e VL --------------
 132:../Sources/main.c **** 
 133:../Sources/main.c **** 		if (grauvl < grausl) {
 923              		.loc 1 133 0
 924 0676 C922     		mov	r2, #201
 925 0678 9200     		lsl	r2, r2, #2
 926 067a D219     		add	r2, r2, r7
 927 067c 1368     		ldr	r3, [r2]
 928 067e 181C     		add	r0, r3, #0
 929 0680 FFF7FEFF 		bl	__aeabi_f2d
 930 0684 031C     		mov	r3, r0
 931 0686 0C1C     		mov	r4, r1
 932 0688 181C     		mov	r0, r3
 933 068a 211C     		mov	r1, r4
 934 068c E824     		mov	r4, #232
 935 068e A400     		lsl	r4, r4, #2
 936 0690 E419     		add	r4, r4, r7
 937 0692 2268     		ldr	r2, [r4]
 938 0694 6368     		ldr	r3, [r4, #4]
 939 0696 FFF7FEFF 		bl	__aeabi_dcmpgt
 940 069a 031C     		mov	r3, r0
 941 069c 002B     		cmp	r3, #0
 942 069e 3DD0     		beq	.L323
 943              	.L252:
 134:../Sources/main.c **** 			ns = grauvl;
 944              		.loc 1 134 0
 945 06a0 E821     		mov	r1, #232
 946 06a2 8900     		lsl	r1, r1, #2
 947 06a4 C919     		add	r1, r1, r7
 948 06a6 0B68     		ldr	r3, [r1]
 949 06a8 4C68     		ldr	r4, [r1, #4]
 950 06aa E022     		mov	r2, #224
 951 06ac 9200     		lsl	r2, r2, #2
 952 06ae D219     		add	r2, r2, r7
 953 06b0 1360     		str	r3, [r2]
 954 06b2 5460     		str	r4, [r2, #4]
 955 06b4 40E0     		b	.L30
 956              	.L343:
 957 06b6 C046     		.align	3
 958              	.L342:
 959 06b8 00000000 		.word	0
 960 06bc 00002440 		.word	1076101120
 961 06c0 00000000 		.word	0
 962 06c4 00003440 		.word	1077149696
 963 06c8 00000000 		.word	0
 964 06cc 00000000 		.word	0
 965 06d0 00000000 		.word	0
 966 06d4 0000F03F 		.word	1072693248
 967 06d8 00000000 		.word	0
 968 06dc 0094C140 		.word	1086428160
 969 06e0 00000000 		.word	0
 970 06e4 0058BB40 		.word	1086019584
 971 06e8 00000000 		.word	media
 972 06ec 0000E040 		.word	1088421888
 973 06f0 0000A040 		.word	1084227584
 974 06f4 00009040 		.word	1083179008
 975 06f8 CF070000 		.word	1999
 976 06fc F72A0000 		.word	10999
 977 0700 C7719C3F 		.word	1067217351
 978 0704 398E633E 		.word	1046711865
 979 0708 4F460000 		.word	17999
 980 070c 49922440 		.word	1076138569
 981 0710 F82A0000 		.word	11000
 982 0714 50460000 		.word	18000
 983 0718 9224C93F 		.word	1070146706
 984              	.L323:
 135:../Sources/main.c **** 		} else
 136:../Sources/main.c **** 			ns = grausl;
 985              		.loc 1 136 0
 986 071c C924     		mov	r4, #201
 987 071e A400     		lsl	r4, r4, #2
 988 0720 E419     		add	r4, r4, r7
 989 0722 2368     		ldr	r3, [r4]
 990 0724 181C     		add	r0, r3, #0
 991 0726 FFF7FEFF 		bl	__aeabi_f2d
 992 072a 031C     		mov	r3, r0
 993 072c 0C1C     		mov	r4, r1
 994 072e E021     		mov	r1, #224
 995 0730 8900     		lsl	r1, r1, #2
 996 0732 C919     		add	r1, r1, r7
 997 0734 0B60     		str	r3, [r1]
 998 0736 4C60     		str	r4, [r1, #4]
 999              	.L30:
 137:../Sources/main.c **** 
 138:../Sources/main.c **** 		for (i = 0; i < 100; i++) {
 1000              		.loc 1 138 0
 1001 0738 0023     		mov	r3, #0
 1002 073a EB22     		mov	r2, #235
 1003 073c 9200     		lsl	r2, r2, #2
 1004 073e D219     		add	r2, r2, r7
 1005 0740 1360     		str	r3, [r2]
 1006 0742 1FE1     		b	.L31
 1007              	.L43:
 139:../Sources/main.c **** 			if (servang < 1250 || servang > 1500) {
 1008              		.loc 1 139 0
 1009 0744 D723     		mov	r3, #215
 1010 0746 9B00     		lsl	r3, r3, #2
 1011 0748 DB19     		add	r3, r3, r7
 1012 074a 1A68     		ldr	r2, [r3]
 1013 074c C04B     		ldr	r3, .L344+32
 1014 074e 9A42     		cmp	r2, r3
 1015 0750 06DD     		ble	.L32
 1016              		.loc 1 139 0 is_stmt 0
 1017 0752 D724     		mov	r4, #215
 1018 0754 A400     		lsl	r4, r4, #2
 1019 0756 E419     		add	r4, r4, r7
 1020 0758 2268     		ldr	r2, [r4]
 1021 075a BE4B     		ldr	r3, .L344+36
 1022 075c 9A42     		cmp	r2, r3
 1023 075e 07DD     		ble	.L33
 1024              	.L32:
 140:../Sources/main.c **** 				grausaida = 0;
 1025              		.loc 1 140 0 is_stmt 1
 1026 0760 B44C     		ldr	r4, .L344+4
 1027 0762 B34B     		ldr	r3, .L344
 1028 0764 D421     		mov	r1, #212
 1029 0766 8900     		lsl	r1, r1, #2
 1030 0768 C919     		add	r1, r1, r7
 1031 076a 0B60     		str	r3, [r1]
 1032 076c 4C60     		str	r4, [r1, #4]
 1033 076e F7E0     		b	.L34
 1034              	.L33:
 141:../Sources/main.c **** 				//if(area[i]<=grausaida) area[i]=grausaida;
 142:../Sources/main.c **** 
 143:../Sources/main.c **** 			} else if (servang >= 1250 && servang <= 1375) {
 1035              		.loc 1 143 0
 1036 0770 D723     		mov	r3, #215
 1037 0772 9B00     		lsl	r3, r3, #2
 1038 0774 DB19     		add	r3, r3, r7
 1039 0776 1A68     		ldr	r2, [r3]
 1040 0778 B54B     		ldr	r3, .L344+32
 1041 077a 9A42     		cmp	r2, r3
 1042 077c 00DC     		bgt	.LCB891
 1043 077e 73E0     		b	.L35	@long jump
 1044              	.LCB891:
 1045              		.loc 1 143 0 is_stmt 0
 1046 0780 D724     		mov	r4, #215
 1047 0782 A400     		lsl	r4, r4, #2
 1048 0784 E419     		add	r4, r4, r7
 1049 0786 2268     		ldr	r2, [r4]
 1050 0788 B34B     		ldr	r3, .L344+40
 1051 078a 9A42     		cmp	r2, r3
 1052 078c 6CDC     		bgt	.L35
 144:../Sources/main.c **** 
 145:../Sources/main.c **** 				grausaida = ((float) (servang / 125.0)) - (10.0); // reta b
 1053              		.loc 1 145 0 is_stmt 1
 1054 078e D721     		mov	r1, #215
 1055 0790 8900     		lsl	r1, r1, #2
 1056 0792 C919     		add	r1, r1, r7
 1057 0794 0868     		ldr	r0, [r1]
 1058 0796 FFF7FEFF 		bl	__aeabi_i2d
 1059 079a 031C     		mov	r3, r0
 1060 079c 0C1C     		mov	r4, r1
 1061 079e 181C     		mov	r0, r3
 1062 07a0 211C     		mov	r1, r4
 1063 07a2 A54A     		ldr	r2, .L344+8
 1064 07a4 A54B     		ldr	r3, .L344+12
 1065 07a6 FFF7FEFF 		bl	__aeabi_ddiv
 1066 07aa 031C     		mov	r3, r0
 1067 07ac 0C1C     		mov	r4, r1
 1068 07ae 181C     		mov	r0, r3
 1069 07b0 211C     		mov	r1, r4
 1070 07b2 FFF7FEFF 		bl	__aeabi_d2f
 1071 07b6 031C     		add	r3, r0, #0
 1072 07b8 181C     		add	r0, r3, #0
 1073 07ba FFF7FEFF 		bl	__aeabi_f2d
 1074 07be 031C     		mov	r3, r0
 1075 07c0 0C1C     		mov	r4, r1
 1076 07c2 181C     		mov	r0, r3
 1077 07c4 211C     		mov	r1, r4
 1078 07c6 9E4A     		ldr	r2, .L344+16
 1079 07c8 9E4B     		ldr	r3, .L344+20
 1080 07ca FFF7FEFF 		bl	__aeabi_dsub
 1081 07ce 031C     		mov	r3, r0
 1082 07d0 0C1C     		mov	r4, r1
 1083 07d2 D422     		mov	r2, #212
 1084 07d4 9200     		lsl	r2, r2, #2
 1085 07d6 D219     		add	r2, r2, r7
 1086 07d8 1360     		str	r3, [r2]
 1087 07da 5460     		str	r4, [r2, #4]
 146:../Sources/main.c **** 
 147:../Sources/main.c **** 				if (grausaida > ns)
 1088              		.loc 1 147 0
 1089 07dc D423     		mov	r3, #212
 1090 07de 9B00     		lsl	r3, r3, #2
 1091 07e0 DB19     		add	r3, r3, r7
 1092 07e2 1868     		ldr	r0, [r3]
 1093 07e4 5968     		ldr	r1, [r3, #4]
 1094 07e6 E024     		mov	r4, #224
 1095 07e8 A400     		lsl	r4, r4, #2
 1096 07ea E419     		add	r4, r4, r7
 1097 07ec 2268     		ldr	r2, [r4]
 1098 07ee 6368     		ldr	r3, [r4, #4]
 1099 07f0 FFF7FEFF 		bl	__aeabi_dcmpgt
 1100 07f4 031C     		mov	r3, r0
 1101 07f6 002B     		cmp	r3, #0
 1102 07f8 09D0     		beq	.L36
 1103              	.L253:
 148:../Sources/main.c **** 					grausaida = ns;
 1104              		.loc 1 148 0
 1105 07fa E021     		mov	r1, #224
 1106 07fc 8900     		lsl	r1, r1, #2
 1107 07fe C919     		add	r1, r1, r7
 1108 0800 0B68     		ldr	r3, [r1]
 1109 0802 4C68     		ldr	r4, [r1, #4]
 1110 0804 D422     		mov	r2, #212
 1111 0806 9200     		lsl	r2, r2, #2
 1112 0808 D219     		add	r2, r2, r7
 1113 080a 1360     		str	r3, [r2]
 1114 080c 5460     		str	r4, [r2, #4]
 1115              	.L36:
 149:../Sources/main.c **** 				if (area[i] <= grausaida)
 1116              		.loc 1 149 0
 1117 080e 934B     		ldr	r3, .L344+44
 1118 0810 EC24     		mov	r4, #236
 1119 0812 A400     		lsl	r4, r4, #2
 1120 0814 E419     		add	r4, r4, r7
 1121 0816 E218     		add	r2, r4, r3
 1122 0818 EB21     		mov	r1, #235
 1123 081a 8900     		lsl	r1, r1, #2
 1124 081c C919     		add	r1, r1, r7
 1125 081e 0B68     		ldr	r3, [r1]
 1126 0820 DB00     		lsl	r3, r3, #3
 1127 0822 D318     		add	r3, r2, r3
 1128 0824 5C68     		ldr	r4, [r3, #4]
 1129 0826 1B68     		ldr	r3, [r3]
 1130 0828 181C     		mov	r0, r3
 1131 082a 211C     		mov	r1, r4
 1132 082c D424     		mov	r4, #212
 1133 082e A400     		lsl	r4, r4, #2
 1134 0830 E419     		add	r4, r4, r7
 1135 0832 2268     		ldr	r2, [r4]
 1136 0834 6368     		ldr	r3, [r4, #4]
 1137 0836 FFF7FEFF 		bl	__aeabi_dcmple
 1138 083a 031C     		mov	r3, r0
 1139 083c 002B     		cmp	r3, #0
 1140 083e 00D1     		bne	.LCB974
 1141 0840 8EE0     		b	.L34	@long jump
 1142              	.LCB974:
 1143              	.L254:
 150:../Sources/main.c **** 					area[i] = grausaida;
 1144              		.loc 1 150 0
 1145 0842 864B     		ldr	r3, .L344+44
 1146 0844 EC21     		mov	r1, #236
 1147 0846 8900     		lsl	r1, r1, #2
 1148 0848 C919     		add	r1, r1, r7
 1149 084a CA18     		add	r2, r1, r3
 1150 084c EB24     		mov	r4, #235
 1151 084e A400     		lsl	r4, r4, #2
 1152 0850 E419     		add	r4, r4, r7
 1153 0852 2368     		ldr	r3, [r4]
 1154 0854 DB00     		lsl	r3, r3, #3
 1155 0856 D218     		add	r2, r2, r3
 1156 0858 D421     		mov	r1, #212
 1157 085a 8900     		lsl	r1, r1, #2
 1158 085c C919     		add	r1, r1, r7
 1159 085e 0B68     		ldr	r3, [r1]
 1160 0860 4C68     		ldr	r4, [r1, #4]
 1161 0862 1360     		str	r3, [r2]
 1162 0864 5460     		str	r4, [r2, #4]
 149:../Sources/main.c **** 				if (area[i] <= grausaida)
 1163              		.loc 1 149 0
 1164 0866 7BE0     		b	.L34
 1165              	.L35:
 151:../Sources/main.c **** 			}
 152:../Sources/main.c **** 
 153:../Sources/main.c **** 			else if (servang >= 1375 && servang <= 1500) {
 1166              		.loc 1 153 0
 1167 0868 D723     		mov	r3, #215
 1168 086a 9B00     		lsl	r3, r3, #2
 1169 086c DB19     		add	r3, r3, r7
 1170 086e 1A68     		ldr	r2, [r3]
 1171 0870 7B4B     		ldr	r3, .L344+48
 1172 0872 9A42     		cmp	r2, r3
 1173 0874 00DC     		bgt	.LCB1002
 1174 0876 73E0     		b	.L34	@long jump
 1175              	.LCB1002:
 1176              		.loc 1 153 0 is_stmt 0
 1177 0878 D724     		mov	r4, #215
 1178 087a A400     		lsl	r4, r4, #2
 1179 087c E419     		add	r4, r4, r7
 1180 087e 2268     		ldr	r2, [r4]
 1181 0880 744B     		ldr	r3, .L344+36
 1182 0882 9A42     		cmp	r2, r3
 1183 0884 6CDC     		bgt	.L34
 154:../Sources/main.c **** 
 155:../Sources/main.c **** 				grausaida = ((float) (-servang / 125.0)) + (12.0); //reta c
 1184              		.loc 1 155 0 is_stmt 1
 1185 0886 D721     		mov	r1, #215
 1186 0888 8900     		lsl	r1, r1, #2
 1187 088a C919     		add	r1, r1, r7
 1188 088c 0B68     		ldr	r3, [r1]
 1189 088e 5B42     		neg	r3, r3
 1190 0890 181C     		mov	r0, r3
 1191 0892 FFF7FEFF 		bl	__aeabi_i2d
 1192 0896 031C     		mov	r3, r0
 1193 0898 0C1C     		mov	r4, r1
 1194 089a 181C     		mov	r0, r3
 1195 089c 211C     		mov	r1, r4
 1196 089e 664A     		ldr	r2, .L344+8
 1197 08a0 664B     		ldr	r3, .L344+12
 1198 08a2 FFF7FEFF 		bl	__aeabi_ddiv
 1199 08a6 031C     		mov	r3, r0
 1200 08a8 0C1C     		mov	r4, r1
 1201 08aa 181C     		mov	r0, r3
 1202 08ac 211C     		mov	r1, r4
 1203 08ae FFF7FEFF 		bl	__aeabi_d2f
 1204 08b2 031C     		add	r3, r0, #0
 1205 08b4 181C     		add	r0, r3, #0
 1206 08b6 FFF7FEFF 		bl	__aeabi_f2d
 1207 08ba 031C     		mov	r3, r0
 1208 08bc 0C1C     		mov	r4, r1
 1209 08be 181C     		mov	r0, r3
 1210 08c0 211C     		mov	r1, r4
 1211 08c2 614A     		ldr	r2, .L344+24
 1212 08c4 614B     		ldr	r3, .L344+28
 1213 08c6 FFF7FEFF 		bl	__aeabi_dadd
 1214 08ca 031C     		mov	r3, r0
 1215 08cc 0C1C     		mov	r4, r1
 1216 08ce D422     		mov	r2, #212
 1217 08d0 9200     		lsl	r2, r2, #2
 1218 08d2 D219     		add	r2, r2, r7
 1219 08d4 1360     		str	r3, [r2]
 1220 08d6 5460     		str	r4, [r2, #4]
 156:../Sources/main.c **** 				if (grausaida > ns)
 1221              		.loc 1 156 0
 1222 08d8 D423     		mov	r3, #212
 1223 08da 9B00     		lsl	r3, r3, #2
 1224 08dc DB19     		add	r3, r3, r7
 1225 08de 1868     		ldr	r0, [r3]
 1226 08e0 5968     		ldr	r1, [r3, #4]
 1227 08e2 E024     		mov	r4, #224
 1228 08e4 A400     		lsl	r4, r4, #2
 1229 08e6 E419     		add	r4, r4, r7
 1230 08e8 2268     		ldr	r2, [r4]
 1231 08ea 6368     		ldr	r3, [r4, #4]
 1232 08ec FFF7FEFF 		bl	__aeabi_dcmpgt
 1233 08f0 031C     		mov	r3, r0
 1234 08f2 002B     		cmp	r3, #0
 1235 08f4 09D0     		beq	.L40
 1236              	.L255:
 157:../Sources/main.c **** 					grausaida = ns;
 1237              		.loc 1 157 0
 1238 08f6 E021     		mov	r1, #224
 1239 08f8 8900     		lsl	r1, r1, #2
 1240 08fa C919     		add	r1, r1, r7
 1241 08fc 0B68     		ldr	r3, [r1]
 1242 08fe 4C68     		ldr	r4, [r1, #4]
 1243 0900 D422     		mov	r2, #212
 1244 0902 9200     		lsl	r2, r2, #2
 1245 0904 D219     		add	r2, r2, r7
 1246 0906 1360     		str	r3, [r2]
 1247 0908 5460     		str	r4, [r2, #4]
 1248              	.L40:
 158:../Sources/main.c **** 				if (area[i] <= grausaida)
 1249              		.loc 1 158 0
 1250 090a 544B     		ldr	r3, .L344+44
 1251 090c EC24     		mov	r4, #236
 1252 090e A400     		lsl	r4, r4, #2
 1253 0910 E419     		add	r4, r4, r7
 1254 0912 E218     		add	r2, r4, r3
 1255 0914 EB21     		mov	r1, #235
 1256 0916 8900     		lsl	r1, r1, #2
 1257 0918 C919     		add	r1, r1, r7
 1258 091a 0B68     		ldr	r3, [r1]
 1259 091c DB00     		lsl	r3, r3, #3
 1260 091e D318     		add	r3, r2, r3
 1261 0920 5C68     		ldr	r4, [r3, #4]
 1262 0922 1B68     		ldr	r3, [r3]
 1263 0924 181C     		mov	r0, r3
 1264 0926 211C     		mov	r1, r4
 1265 0928 D424     		mov	r4, #212
 1266 092a A400     		lsl	r4, r4, #2
 1267 092c E419     		add	r4, r4, r7
 1268 092e 2268     		ldr	r2, [r4]
 1269 0930 6368     		ldr	r3, [r4, #4]
 1270 0932 FFF7FEFF 		bl	__aeabi_dcmple
 1271 0936 031C     		mov	r3, r0
 1272 0938 002B     		cmp	r3, #0
 1273 093a 11D0     		beq	.L34
 1274              	.L256:
 159:../Sources/main.c **** 					area[i] = grausaida;
 1275              		.loc 1 159 0
 1276 093c 474B     		ldr	r3, .L344+44
 1277 093e EC21     		mov	r1, #236
 1278 0940 8900     		lsl	r1, r1, #2
 1279 0942 C919     		add	r1, r1, r7
 1280 0944 CA18     		add	r2, r1, r3
 1281 0946 EB24     		mov	r4, #235
 1282 0948 A400     		lsl	r4, r4, #2
 1283 094a E419     		add	r4, r4, r7
 1284 094c 2368     		ldr	r3, [r4]
 1285 094e DB00     		lsl	r3, r3, #3
 1286 0950 D218     		add	r2, r2, r3
 1287 0952 D421     		mov	r1, #212
 1288 0954 8900     		lsl	r1, r1, #2
 1289 0956 C919     		add	r1, r1, r7
 1290 0958 0B68     		ldr	r3, [r1]
 1291 095a 4C68     		ldr	r4, [r1, #4]
 1292 095c 1360     		str	r3, [r2]
 1293 095e 5460     		str	r4, [r2, #4]
 1294              	.L34:
 160:../Sources/main.c **** 			}
 161:../Sources/main.c **** 			servang = servang + 10;
 1295              		.loc 1 161 0
 1296 0960 D722     		mov	r2, #215
 1297 0962 9200     		lsl	r2, r2, #2
 1298 0964 D219     		add	r2, r2, r7
 1299 0966 1368     		ldr	r3, [r2]
 1300 0968 0A33     		add	r3, r3, #10
 1301 096a D724     		mov	r4, #215
 1302 096c A400     		lsl	r4, r4, #2
 1303 096e E419     		add	r4, r4, r7
 1304 0970 2360     		str	r3, [r4]
 138:../Sources/main.c **** 		for (i = 0; i < 100; i++) {
 1305              		.loc 1 138 0
 1306 0972 EB21     		mov	r1, #235
 1307 0974 8900     		lsl	r1, r1, #2
 1308 0976 C919     		add	r1, r1, r7
 1309 0978 0B68     		ldr	r3, [r1]
 1310 097a 0133     		add	r3, r3, #1
 1311 097c EB22     		mov	r2, #235
 1312 097e 9200     		lsl	r2, r2, #2
 1313 0980 D219     		add	r2, r2, r7
 1314 0982 1360     		str	r3, [r2]
 1315              	.L31:
 138:../Sources/main.c **** 		for (i = 0; i < 100; i++) {
 1316              		.loc 1 138 0 is_stmt 0
 1317 0984 EB24     		mov	r4, #235
 1318 0986 A400     		lsl	r4, r4, #2
 1319 0988 E419     		add	r4, r4, r7
 1320 098a 2368     		ldr	r3, [r4]
 1321 098c 632B     		cmp	r3, #99
 1322 098e 00DC     		bgt	.LCB1132
 1323 0990 D8E6     		b	.L43	@long jump
 1324              	.LCB1132:
 162:../Sources/main.c **** 		}
 163:../Sources/main.c **** 		servang = 1000;
 1325              		.loc 1 163 0 is_stmt 1
 1326 0992 FA23     		mov	r3, #250
 1327 0994 9B00     		lsl	r3, r3, #2
 1328 0996 D721     		mov	r1, #215
 1329 0998 8900     		lsl	r1, r1, #2
 1330 099a C919     		add	r1, r1, r7
 1331 099c 0B60     		str	r3, [r1]
 164:../Sources/main.c **** 
 165:../Sources/main.c **** //-------------- SL e L ---------------
 166:../Sources/main.c **** 		if (graul < grausl) {
 1332              		.loc 1 166 0
 1333 099e CB23     		mov	r3, #203
 1334 09a0 9B00     		lsl	r3, r3, #2
 1335 09a2 DB19     		add	r3, r3, r7
 1336 09a4 1A68     		ldr	r2, [r3]
 1337 09a6 C924     		mov	r4, #201
 1338 09a8 A400     		lsl	r4, r4, #2
 1339 09aa E419     		add	r4, r4, r7
 1340 09ac 2368     		ldr	r3, [r4]
 1341 09ae 101C     		add	r0, r2, #0
 1342 09b0 191C     		add	r1, r3, #0
 1343 09b2 FFF7FEFF 		bl	__aeabi_fcmplt
 1344 09b6 031C     		mov	r3, r0
 1345 09b8 002B     		cmp	r3, #0
 1346 09ba 0ED0     		beq	.L324
 1347              	.L257:
 167:../Sources/main.c **** 			ns = graul;
 1348              		.loc 1 167 0
 1349 09bc CB21     		mov	r1, #203
 1350 09be 8900     		lsl	r1, r1, #2
 1351 09c0 C919     		add	r1, r1, r7
 1352 09c2 0B68     		ldr	r3, [r1]
 1353 09c4 181C     		add	r0, r3, #0
 1354 09c6 FFF7FEFF 		bl	__aeabi_f2d
 1355 09ca 031C     		mov	r3, r0
 1356 09cc 0C1C     		mov	r4, r1
 1357 09ce E022     		mov	r2, #224
 1358 09d0 9200     		lsl	r2, r2, #2
 1359 09d2 D219     		add	r2, r2, r7
 1360 09d4 1360     		str	r3, [r2]
 1361 09d6 5460     		str	r4, [r2, #4]
 1362 09d8 0DE0     		b	.L46
 1363              	.L324:
 168:../Sources/main.c **** 		} else
 169:../Sources/main.c **** 			ns = grausl;
 1364              		.loc 1 169 0
 1365 09da C924     		mov	r4, #201
 1366 09dc A400     		lsl	r4, r4, #2
 1367 09de E419     		add	r4, r4, r7
 1368 09e0 2368     		ldr	r3, [r4]
 1369 09e2 181C     		add	r0, r3, #0
 1370 09e4 FFF7FEFF 		bl	__aeabi_f2d
 1371 09e8 031C     		mov	r3, r0
 1372 09ea 0C1C     		mov	r4, r1
 1373 09ec E021     		mov	r1, #224
 1374 09ee 8900     		lsl	r1, r1, #2
 1375 09f0 C919     		add	r1, r1, r7
 1376 09f2 0B60     		str	r3, [r1]
 1377 09f4 4C60     		str	r4, [r1, #4]
 1378              	.L46:
 170:../Sources/main.c **** 
 171:../Sources/main.c **** 		for (i = 0; i < 100; i++) {
 1379              		.loc 1 171 0
 1380 09f6 0023     		mov	r3, #0
 1381 09f8 EB22     		mov	r2, #235
 1382 09fa 9200     		lsl	r2, r2, #2
 1383 09fc D219     		add	r2, r2, r7
 1384 09fe 1360     		str	r3, [r2]
 1385 0a00 3AE1     		b	.L47
 1386              	.L59:
 172:../Sources/main.c **** 			if (servang < 1250 || servang > 1500) {
 1387              		.loc 1 172 0
 1388 0a02 D723     		mov	r3, #215
 1389 0a04 9B00     		lsl	r3, r3, #2
 1390 0a06 DB19     		add	r3, r3, r7
 1391 0a08 1A68     		ldr	r2, [r3]
 1392 0a0a 114B     		ldr	r3, .L344+32
 1393 0a0c 9A42     		cmp	r2, r3
 1394 0a0e 06DD     		ble	.L48
 1395              		.loc 1 172 0 is_stmt 0
 1396 0a10 D724     		mov	r4, #215
 1397 0a12 A400     		lsl	r4, r4, #2
 1398 0a14 E419     		add	r4, r4, r7
 1399 0a16 2268     		ldr	r2, [r4]
 1400 0a18 0E4B     		ldr	r3, .L344+36
 1401 0a1a 9A42     		cmp	r2, r3
 1402 0a1c 22DD     		ble	.L49
 1403              	.L48:
 173:../Sources/main.c **** 				grausaida = 0;
 1404              		.loc 1 173 0 is_stmt 1
 1405 0a1e 054C     		ldr	r4, .L344+4
 1406 0a20 034B     		ldr	r3, .L344
 1407 0a22 D421     		mov	r1, #212
 1408 0a24 8900     		lsl	r1, r1, #2
 1409 0a26 C919     		add	r1, r1, r7
 1410 0a28 0B60     		str	r3, [r1]
 1411 0a2a 4C60     		str	r4, [r1, #4]
 1412 0a2c 12E1     		b	.L50
 1413              	.L345:
 1414 0a2e C046     		.align	3
 1415              	.L344:
 1416 0a30 00000000 		.word	0
 1417 0a34 00000000 		.word	0
 1418 0a38 00000000 		.word	0
 1419 0a3c 00405F40 		.word	1079984128
 1420 0a40 00000000 		.word	0
 1421 0a44 00002440 		.word	1076101120
 1422 0a48 00000000 		.word	0
 1423 0a4c 00002840 		.word	1076363264
 1424 0a50 E1040000 		.word	1249
 1425 0a54 DC050000 		.word	1500
 1426 0a58 5F050000 		.word	1375
 1427 0a5c 50FCFFFF 		.word	-944
 1428 0a60 5E050000 		.word	1374
 1429              	.L49:
 174:../Sources/main.c **** 				//if(area[i]<=grausaida) area[i]=grausaida;
 175:../Sources/main.c **** 
 176:../Sources/main.c **** 			} else if (servang >= 1250 && servang <= 1375) {
 1430              		.loc 1 176 0
 1431 0a64 D723     		mov	r3, #215
 1432 0a66 9B00     		lsl	r3, r3, #2
 1433 0a68 DB19     		add	r3, r3, r7
 1434 0a6a 1A68     		ldr	r2, [r3]
 1435 0a6c B64B     		ldr	r3, .L346+32
 1436 0a6e 9A42     		cmp	r2, r3
 1437 0a70 00DC     		bgt	.LCB1237
 1438 0a72 73E0     		b	.L51	@long jump
 1439              	.LCB1237:
 1440              		.loc 1 176 0 is_stmt 0
 1441 0a74 D724     		mov	r4, #215
 1442 0a76 A400     		lsl	r4, r4, #2
 1443 0a78 E419     		add	r4, r4, r7
 1444 0a7a 2268     		ldr	r2, [r4]
 1445 0a7c B34B     		ldr	r3, .L346+36
 1446 0a7e 9A42     		cmp	r2, r3
 1447 0a80 6CDC     		bgt	.L51
 177:../Sources/main.c **** 
 178:../Sources/main.c **** 				grausaida = ((float) (servang / 125.0)) - (10.0); // reta b
 1448              		.loc 1 178 0 is_stmt 1
 1449 0a82 D721     		mov	r1, #215
 1450 0a84 8900     		lsl	r1, r1, #2
 1451 0a86 C919     		add	r1, r1, r7
 1452 0a88 0868     		ldr	r0, [r1]
 1453 0a8a FFF7FEFF 		bl	__aeabi_i2d
 1454 0a8e 031C     		mov	r3, r0
 1455 0a90 0C1C     		mov	r4, r1
 1456 0a92 181C     		mov	r0, r3
 1457 0a94 211C     		mov	r1, r4
 1458 0a96 A54B     		ldr	r3, .L346+4
 1459 0a98 A34A     		ldr	r2, .L346
 1460 0a9a FFF7FEFF 		bl	__aeabi_ddiv
 1461 0a9e 031C     		mov	r3, r0
 1462 0aa0 0C1C     		mov	r4, r1
 1463 0aa2 181C     		mov	r0, r3
 1464 0aa4 211C     		mov	r1, r4
 1465 0aa6 FFF7FEFF 		bl	__aeabi_d2f
 1466 0aaa 031C     		add	r3, r0, #0
 1467 0aac 181C     		add	r0, r3, #0
 1468 0aae FFF7FEFF 		bl	__aeabi_f2d
 1469 0ab2 031C     		mov	r3, r0
 1470 0ab4 0C1C     		mov	r4, r1
 1471 0ab6 181C     		mov	r0, r3
 1472 0ab8 211C     		mov	r1, r4
 1473 0aba 9D4A     		ldr	r2, .L346+8
 1474 0abc 9D4B     		ldr	r3, .L346+12
 1475 0abe FFF7FEFF 		bl	__aeabi_dsub
 1476 0ac2 031C     		mov	r3, r0
 1477 0ac4 0C1C     		mov	r4, r1
 1478 0ac6 D422     		mov	r2, #212
 1479 0ac8 9200     		lsl	r2, r2, #2
 1480 0aca D219     		add	r2, r2, r7
 1481 0acc 1360     		str	r3, [r2]
 1482 0ace 5460     		str	r4, [r2, #4]
 179:../Sources/main.c **** 				if (grausaida > ns)
 1483              		.loc 1 179 0
 1484 0ad0 D423     		mov	r3, #212
 1485 0ad2 9B00     		lsl	r3, r3, #2
 1486 0ad4 DB19     		add	r3, r3, r7
 1487 0ad6 1868     		ldr	r0, [r3]
 1488 0ad8 5968     		ldr	r1, [r3, #4]
 1489 0ada E024     		mov	r4, #224
 1490 0adc A400     		lsl	r4, r4, #2
 1491 0ade E419     		add	r4, r4, r7
 1492 0ae0 2268     		ldr	r2, [r4]
 1493 0ae2 6368     		ldr	r3, [r4, #4]
 1494 0ae4 FFF7FEFF 		bl	__aeabi_dcmpgt
 1495 0ae8 031C     		mov	r3, r0
 1496 0aea 002B     		cmp	r3, #0
 1497 0aec 09D0     		beq	.L52
 1498              	.L258:
 180:../Sources/main.c **** 					grausaida = ns;
 1499              		.loc 1 180 0
 1500 0aee E021     		mov	r1, #224
 1501 0af0 8900     		lsl	r1, r1, #2
 1502 0af2 C919     		add	r1, r1, r7
 1503 0af4 0B68     		ldr	r3, [r1]
 1504 0af6 4C68     		ldr	r4, [r1, #4]
 1505 0af8 D422     		mov	r2, #212
 1506 0afa 9200     		lsl	r2, r2, #2
 1507 0afc D219     		add	r2, r2, r7
 1508 0afe 1360     		str	r3, [r2]
 1509 0b00 5460     		str	r4, [r2, #4]
 1510              	.L52:
 181:../Sources/main.c **** 				if (area[i] <= grausaida)
 1511              		.loc 1 181 0
 1512 0b02 934B     		ldr	r3, .L346+40
 1513 0b04 EC24     		mov	r4, #236
 1514 0b06 A400     		lsl	r4, r4, #2
 1515 0b08 E419     		add	r4, r4, r7
 1516 0b0a E218     		add	r2, r4, r3
 1517 0b0c EB21     		mov	r1, #235
 1518 0b0e 8900     		lsl	r1, r1, #2
 1519 0b10 C919     		add	r1, r1, r7
 1520 0b12 0B68     		ldr	r3, [r1]
 1521 0b14 DB00     		lsl	r3, r3, #3
 1522 0b16 D318     		add	r3, r2, r3
 1523 0b18 5C68     		ldr	r4, [r3, #4]
 1524 0b1a 1B68     		ldr	r3, [r3]
 1525 0b1c 181C     		mov	r0, r3
 1526 0b1e 211C     		mov	r1, r4
 1527 0b20 D424     		mov	r4, #212
 1528 0b22 A400     		lsl	r4, r4, #2
 1529 0b24 E419     		add	r4, r4, r7
 1530 0b26 2268     		ldr	r2, [r4]
 1531 0b28 6368     		ldr	r3, [r4, #4]
 1532 0b2a FFF7FEFF 		bl	__aeabi_dcmple
 1533 0b2e 031C     		mov	r3, r0
 1534 0b30 002B     		cmp	r3, #0
 1535 0b32 00D1     		bne	.LCB1320
 1536 0b34 8EE0     		b	.L50	@long jump
 1537              	.LCB1320:
 1538              	.L259:
 182:../Sources/main.c **** 					area[i] = grausaida;
 1539              		.loc 1 182 0
 1540 0b36 864B     		ldr	r3, .L346+40
 1541 0b38 EC21     		mov	r1, #236
 1542 0b3a 8900     		lsl	r1, r1, #2
 1543 0b3c C919     		add	r1, r1, r7
 1544 0b3e CA18     		add	r2, r1, r3
 1545 0b40 EB24     		mov	r4, #235
 1546 0b42 A400     		lsl	r4, r4, #2
 1547 0b44 E419     		add	r4, r4, r7
 1548 0b46 2368     		ldr	r3, [r4]
 1549 0b48 DB00     		lsl	r3, r3, #3
 1550 0b4a D218     		add	r2, r2, r3
 1551 0b4c D421     		mov	r1, #212
 1552 0b4e 8900     		lsl	r1, r1, #2
 1553 0b50 C919     		add	r1, r1, r7
 1554 0b52 0B68     		ldr	r3, [r1]
 1555 0b54 4C68     		ldr	r4, [r1, #4]
 1556 0b56 1360     		str	r3, [r2]
 1557 0b58 5460     		str	r4, [r2, #4]
 181:../Sources/main.c **** 				if (area[i] <= grausaida)
 1558              		.loc 1 181 0
 1559 0b5a 7BE0     		b	.L50
 1560              	.L51:
 183:../Sources/main.c **** 			}
 184:../Sources/main.c **** 
 185:../Sources/main.c **** 			else if (servang >= 1375 && servang <= 1500) {
 1561              		.loc 1 185 0
 1562 0b5c D723     		mov	r3, #215
 1563 0b5e 9B00     		lsl	r3, r3, #2
 1564 0b60 DB19     		add	r3, r3, r7
 1565 0b62 1A68     		ldr	r2, [r3]
 1566 0b64 7B4B     		ldr	r3, .L346+44
 1567 0b66 9A42     		cmp	r2, r3
 1568 0b68 00DC     		bgt	.LCB1348
 1569 0b6a 73E0     		b	.L50	@long jump
 1570              	.LCB1348:
 1571              		.loc 1 185 0 is_stmt 0
 1572 0b6c D724     		mov	r4, #215
 1573 0b6e A400     		lsl	r4, r4, #2
 1574 0b70 E419     		add	r4, r4, r7
 1575 0b72 2268     		ldr	r2, [r4]
 1576 0b74 784B     		ldr	r3, .L346+48
 1577 0b76 9A42     		cmp	r2, r3
 1578 0b78 6CDC     		bgt	.L50
 186:../Sources/main.c **** 
 187:../Sources/main.c **** 				grausaida = ((float) (-servang / 125.0)) + (12.0); //reta c
 1579              		.loc 1 187 0 is_stmt 1
 1580 0b7a D721     		mov	r1, #215
 1581 0b7c 8900     		lsl	r1, r1, #2
 1582 0b7e C919     		add	r1, r1, r7
 1583 0b80 0B68     		ldr	r3, [r1]
 1584 0b82 5B42     		neg	r3, r3
 1585 0b84 181C     		mov	r0, r3
 1586 0b86 FFF7FEFF 		bl	__aeabi_i2d
 1587 0b8a 031C     		mov	r3, r0
 1588 0b8c 0C1C     		mov	r4, r1
 1589 0b8e 181C     		mov	r0, r3
 1590 0b90 211C     		mov	r1, r4
 1591 0b92 664B     		ldr	r3, .L346+4
 1592 0b94 644A     		ldr	r2, .L346
 1593 0b96 FFF7FEFF 		bl	__aeabi_ddiv
 1594 0b9a 031C     		mov	r3, r0
 1595 0b9c 0C1C     		mov	r4, r1
 1596 0b9e 181C     		mov	r0, r3
 1597 0ba0 211C     		mov	r1, r4
 1598 0ba2 FFF7FEFF 		bl	__aeabi_d2f
 1599 0ba6 031C     		add	r3, r0, #0
 1600 0ba8 181C     		add	r0, r3, #0
 1601 0baa FFF7FEFF 		bl	__aeabi_f2d
 1602 0bae 031C     		mov	r3, r0
 1603 0bb0 0C1C     		mov	r4, r1
 1604 0bb2 181C     		mov	r0, r3
 1605 0bb4 211C     		mov	r1, r4
 1606 0bb6 604A     		ldr	r2, .L346+16
 1607 0bb8 604B     		ldr	r3, .L346+20
 1608 0bba FFF7FEFF 		bl	__aeabi_dadd
 1609 0bbe 031C     		mov	r3, r0
 1610 0bc0 0C1C     		mov	r4, r1
 1611 0bc2 D422     		mov	r2, #212
 1612 0bc4 9200     		lsl	r2, r2, #2
 1613 0bc6 D219     		add	r2, r2, r7
 1614 0bc8 1360     		str	r3, [r2]
 1615 0bca 5460     		str	r4, [r2, #4]
 188:../Sources/main.c **** 				if (grausaida > ns)
 1616              		.loc 1 188 0
 1617 0bcc D423     		mov	r3, #212
 1618 0bce 9B00     		lsl	r3, r3, #2
 1619 0bd0 DB19     		add	r3, r3, r7
 1620 0bd2 1868     		ldr	r0, [r3]
 1621 0bd4 5968     		ldr	r1, [r3, #4]
 1622 0bd6 E024     		mov	r4, #224
 1623 0bd8 A400     		lsl	r4, r4, #2
 1624 0bda E419     		add	r4, r4, r7
 1625 0bdc 2268     		ldr	r2, [r4]
 1626 0bde 6368     		ldr	r3, [r4, #4]
 1627 0be0 FFF7FEFF 		bl	__aeabi_dcmpgt
 1628 0be4 031C     		mov	r3, r0
 1629 0be6 002B     		cmp	r3, #0
 1630 0be8 09D0     		beq	.L56
 1631              	.L260:
 189:../Sources/main.c **** 					grausaida = ns;
 1632              		.loc 1 189 0
 1633 0bea E021     		mov	r1, #224
 1634 0bec 8900     		lsl	r1, r1, #2
 1635 0bee C919     		add	r1, r1, r7
 1636 0bf0 0B68     		ldr	r3, [r1]
 1637 0bf2 4C68     		ldr	r4, [r1, #4]
 1638 0bf4 D422     		mov	r2, #212
 1639 0bf6 9200     		lsl	r2, r2, #2
 1640 0bf8 D219     		add	r2, r2, r7
 1641 0bfa 1360     		str	r3, [r2]
 1642 0bfc 5460     		str	r4, [r2, #4]
 1643              	.L56:
 190:../Sources/main.c **** 				if (area[i] <= grausaida)
 1644              		.loc 1 190 0
 1645 0bfe 544B     		ldr	r3, .L346+40
 1646 0c00 EC24     		mov	r4, #236
 1647 0c02 A400     		lsl	r4, r4, #2
 1648 0c04 E419     		add	r4, r4, r7
 1649 0c06 E218     		add	r2, r4, r3
 1650 0c08 EB21     		mov	r1, #235
 1651 0c0a 8900     		lsl	r1, r1, #2
 1652 0c0c C919     		add	r1, r1, r7
 1653 0c0e 0B68     		ldr	r3, [r1]
 1654 0c10 DB00     		lsl	r3, r3, #3
 1655 0c12 D318     		add	r3, r2, r3
 1656 0c14 5C68     		ldr	r4, [r3, #4]
 1657 0c16 1B68     		ldr	r3, [r3]
 1658 0c18 181C     		mov	r0, r3
 1659 0c1a 211C     		mov	r1, r4
 1660 0c1c D424     		mov	r4, #212
 1661 0c1e A400     		lsl	r4, r4, #2
 1662 0c20 E419     		add	r4, r4, r7
 1663 0c22 2268     		ldr	r2, [r4]
 1664 0c24 6368     		ldr	r3, [r4, #4]
 1665 0c26 FFF7FEFF 		bl	__aeabi_dcmple
 1666 0c2a 031C     		mov	r3, r0
 1667 0c2c 002B     		cmp	r3, #0
 1668 0c2e 11D0     		beq	.L50
 1669              	.L261:
 191:../Sources/main.c **** 					area[i] = grausaida;
 1670              		.loc 1 191 0
 1671 0c30 474B     		ldr	r3, .L346+40
 1672 0c32 EC21     		mov	r1, #236
 1673 0c34 8900     		lsl	r1, r1, #2
 1674 0c36 C919     		add	r1, r1, r7
 1675 0c38 CA18     		add	r2, r1, r3
 1676 0c3a EB24     		mov	r4, #235
 1677 0c3c A400     		lsl	r4, r4, #2
 1678 0c3e E419     		add	r4, r4, r7
 1679 0c40 2368     		ldr	r3, [r4]
 1680 0c42 DB00     		lsl	r3, r3, #3
 1681 0c44 D218     		add	r2, r2, r3
 1682 0c46 D421     		mov	r1, #212
 1683 0c48 8900     		lsl	r1, r1, #2
 1684 0c4a C919     		add	r1, r1, r7
 1685 0c4c 0B68     		ldr	r3, [r1]
 1686 0c4e 4C68     		ldr	r4, [r1, #4]
 1687 0c50 1360     		str	r3, [r2]
 1688 0c52 5460     		str	r4, [r2, #4]
 1689              	.L50:
 192:../Sources/main.c **** 			}
 193:../Sources/main.c **** 			servang = servang + 10;
 1690              		.loc 1 193 0
 1691 0c54 D722     		mov	r2, #215
 1692 0c56 9200     		lsl	r2, r2, #2
 1693 0c58 D219     		add	r2, r2, r7
 1694 0c5a 1368     		ldr	r3, [r2]
 1695 0c5c 0A33     		add	r3, r3, #10
 1696 0c5e D724     		mov	r4, #215
 1697 0c60 A400     		lsl	r4, r4, #2
 1698 0c62 E419     		add	r4, r4, r7
 1699 0c64 2360     		str	r3, [r4]
 171:../Sources/main.c **** 		for (i = 0; i < 100; i++) {
 1700              		.loc 1 171 0
 1701 0c66 EB21     		mov	r1, #235
 1702 0c68 8900     		lsl	r1, r1, #2
 1703 0c6a C919     		add	r1, r1, r7
 1704 0c6c 0B68     		ldr	r3, [r1]
 1705 0c6e 0133     		add	r3, r3, #1
 1706 0c70 EB22     		mov	r2, #235
 1707 0c72 9200     		lsl	r2, r2, #2
 1708 0c74 D219     		add	r2, r2, r7
 1709 0c76 1360     		str	r3, [r2]
 1710              	.L47:
 171:../Sources/main.c **** 		for (i = 0; i < 100; i++) {
 1711              		.loc 1 171 0 is_stmt 0
 1712 0c78 EB24     		mov	r4, #235
 1713 0c7a A400     		lsl	r4, r4, #2
 1714 0c7c E419     		add	r4, r4, r7
 1715 0c7e 2368     		ldr	r3, [r4]
 1716 0c80 632B     		cmp	r3, #99
 1717 0c82 00DC     		bgt	.LCB1478
 1718 0c84 BDE6     		b	.L59	@long jump
 1719              	.LCB1478:
 194:../Sources/main.c **** 		}
 195:../Sources/main.c **** 
 196:../Sources/main.c **** 		servang = 1000;
 1720              		.loc 1 196 0 is_stmt 1
 1721 0c86 FA23     		mov	r3, #250
 1722 0c88 9B00     		lsl	r3, r3, #2
 1723 0c8a D721     		mov	r1, #215
 1724 0c8c 8900     		lsl	r1, r1, #2
 1725 0c8e C919     		add	r1, r1, r7
 1726 0c90 0B60     		str	r3, [r1]
 197:../Sources/main.c **** 
 198:../Sources/main.c **** //-------------- SL e M ---------------
 199:../Sources/main.c **** 		if (graum < grausl) {
 1727              		.loc 1 199 0
 1728 0c92 CA23     		mov	r3, #202
 1729 0c94 9B00     		lsl	r3, r3, #2
 1730 0c96 DB19     		add	r3, r3, r7
 1731 0c98 1A68     		ldr	r2, [r3]
 1732 0c9a C924     		mov	r4, #201
 1733 0c9c A400     		lsl	r4, r4, #2
 1734 0c9e E419     		add	r4, r4, r7
 1735 0ca0 2368     		ldr	r3, [r4]
 1736 0ca2 101C     		add	r0, r2, #0
 1737 0ca4 191C     		add	r1, r3, #0
 1738 0ca6 FFF7FEFF 		bl	__aeabi_fcmplt
 1739 0caa 031C     		mov	r3, r0
 1740 0cac 002B     		cmp	r3, #0
 1741 0cae 0ED0     		beq	.L325
 1742              	.L262:
 200:../Sources/main.c **** 			z = graum;
 1743              		.loc 1 200 0
 1744 0cb0 CA21     		mov	r1, #202
 1745 0cb2 8900     		lsl	r1, r1, #2
 1746 0cb4 C919     		add	r1, r1, r7
 1747 0cb6 0B68     		ldr	r3, [r1]
 1748 0cb8 181C     		add	r0, r3, #0
 1749 0cba FFF7FEFF 		bl	__aeabi_f2d
 1750 0cbe 031C     		mov	r3, r0
 1751 0cc0 0C1C     		mov	r4, r1
 1752 0cc2 DC22     		mov	r2, #220
 1753 0cc4 9200     		lsl	r2, r2, #2
 1754 0cc6 D219     		add	r2, r2, r7
 1755 0cc8 1360     		str	r3, [r2]
 1756 0cca 5460     		str	r4, [r2, #4]
 1757 0ccc 0DE0     		b	.L62
 1758              	.L325:
 201:../Sources/main.c **** 		} else
 202:../Sources/main.c **** 			z = grausl;
 1759              		.loc 1 202 0
 1760 0cce C924     		mov	r4, #201
 1761 0cd0 A400     		lsl	r4, r4, #2
 1762 0cd2 E419     		add	r4, r4, r7
 1763 0cd4 2368     		ldr	r3, [r4]
 1764 0cd6 181C     		add	r0, r3, #0
 1765 0cd8 FFF7FEFF 		bl	__aeabi_f2d
 1766 0cdc 031C     		mov	r3, r0
 1767 0cde 0C1C     		mov	r4, r1
 1768 0ce0 DC21     		mov	r1, #220
 1769 0ce2 8900     		lsl	r1, r1, #2
 1770 0ce4 C919     		add	r1, r1, r7
 1771 0ce6 0B60     		str	r3, [r1]
 1772 0ce8 4C60     		str	r4, [r1, #4]
 1773              	.L62:
 203:../Sources/main.c **** 
 204:../Sources/main.c **** 		for (i = 0; i < 100; i++) {
 1774              		.loc 1 204 0
 1775 0cea 0023     		mov	r3, #0
 1776 0cec EB22     		mov	r2, #235
 1777 0cee 9200     		lsl	r2, r2, #2
 1778 0cf0 D219     		add	r2, r2, r7
 1779 0cf2 1360     		str	r3, [r2]
 1780 0cf4 3EE1     		b	.L63
 1781              	.L75:
 205:../Sources/main.c **** 			if (servang < 1375 || servang > 1625) {
 1782              		.loc 1 205 0
 1783 0cf6 D723     		mov	r3, #215
 1784 0cf8 9B00     		lsl	r3, r3, #2
 1785 0cfa DB19     		add	r3, r3, r7
 1786 0cfc 1A68     		ldr	r2, [r3]
 1787 0cfe 154B     		ldr	r3, .L346+44
 1788 0d00 9A42     		cmp	r2, r3
 1789 0d02 06DD     		ble	.L64
 1790              		.loc 1 205 0 is_stmt 0
 1791 0d04 D724     		mov	r4, #215
 1792 0d06 A400     		lsl	r4, r4, #2
 1793 0d08 E419     		add	r4, r4, r7
 1794 0d0a 2268     		ldr	r2, [r4]
 1795 0d0c 134B     		ldr	r3, .L346+52
 1796 0d0e 9A42     		cmp	r2, r3
 1797 0d10 26DD     		ble	.L65
 1798              	.L64:
 206:../Sources/main.c **** 				grausaida = 0;
 1799              		.loc 1 206 0 is_stmt 1
 1800 0d12 0B4B     		ldr	r3, .L346+24
 1801 0d14 0B4C     		ldr	r4, .L346+28
 1802 0d16 D421     		mov	r1, #212
 1803 0d18 8900     		lsl	r1, r1, #2
 1804 0d1a C919     		add	r1, r1, r7
 1805 0d1c 0B60     		str	r3, [r1]
 1806 0d1e 4C60     		str	r4, [r1, #4]
 1807 0d20 16E1     		b	.L66
 1808              	.L347:
 1809 0d22 C046C046 		.align	3
 1809      C046
 1810              	.L346:
 1811 0d28 00000000 		.word	0
 1812 0d2c 00405F40 		.word	1079984128
 1813 0d30 00000000 		.word	0
 1814 0d34 00002440 		.word	1076101120
 1815 0d38 00000000 		.word	0
 1816 0d3c 00002840 		.word	1076363264
 1817 0d40 00000000 		.word	0
 1818 0d44 00000000 		.word	0
 1819 0d48 E1040000 		.word	1249
 1820 0d4c 5F050000 		.word	1375
 1821 0d50 50FCFFFF 		.word	-944
 1822 0d54 5E050000 		.word	1374
 1823 0d58 DC050000 		.word	1500
 1824 0d5c 59060000 		.word	1625
 1825              	.L65:
 207:../Sources/main.c **** 				//if(area[i]<=grausaida) area[i]=grausaida;
 208:../Sources/main.c **** 
 209:../Sources/main.c **** 			} else if (servang >= 1375 && servang <= 1500) {
 1826              		.loc 1 209 0
 1827 0d60 D723     		mov	r3, #215
 1828 0d62 9B00     		lsl	r3, r3, #2
 1829 0d64 DB19     		add	r3, r3, r7
 1830 0d66 1A68     		ldr	r2, [r3]
 1831 0d68 B74B     		ldr	r3, .L348+32
 1832 0d6a 9A42     		cmp	r2, r3
 1833 0d6c 00DC     		bgt	.LCB1584
 1834 0d6e 73E0     		b	.L67	@long jump
 1835              	.LCB1584:
 1836              		.loc 1 209 0 is_stmt 0
 1837 0d70 D724     		mov	r4, #215
 1838 0d72 A400     		lsl	r4, r4, #2
 1839 0d74 E419     		add	r4, r4, r7
 1840 0d76 2268     		ldr	r2, [r4]
 1841 0d78 B44B     		ldr	r3, .L348+36
 1842 0d7a 9A42     		cmp	r2, r3
 1843 0d7c 6CDC     		bgt	.L67
 210:../Sources/main.c **** 
 211:../Sources/main.c **** 				grausaida = ((float) (servang / 125.0)) - (11.0); // reta d
 1844              		.loc 1 211 0 is_stmt 1
 1845 0d7e D721     		mov	r1, #215
 1846 0d80 8900     		lsl	r1, r1, #2
 1847 0d82 C919     		add	r1, r1, r7
 1848 0d84 0868     		ldr	r0, [r1]
 1849 0d86 FFF7FEFF 		bl	__aeabi_i2d
 1850 0d8a 031C     		mov	r3, r0
 1851 0d8c 0C1C     		mov	r4, r1
 1852 0d8e 181C     		mov	r0, r3
 1853 0d90 211C     		mov	r1, r4
 1854 0d92 A64B     		ldr	r3, .L348+4
 1855 0d94 A44A     		ldr	r2, .L348
 1856 0d96 FFF7FEFF 		bl	__aeabi_ddiv
 1857 0d9a 031C     		mov	r3, r0
 1858 0d9c 0C1C     		mov	r4, r1
 1859 0d9e 181C     		mov	r0, r3
 1860 0da0 211C     		mov	r1, r4
 1861 0da2 FFF7FEFF 		bl	__aeabi_d2f
 1862 0da6 031C     		add	r3, r0, #0
 1863 0da8 181C     		add	r0, r3, #0
 1864 0daa FFF7FEFF 		bl	__aeabi_f2d
 1865 0dae 031C     		mov	r3, r0
 1866 0db0 0C1C     		mov	r4, r1
 1867 0db2 181C     		mov	r0, r3
 1868 0db4 211C     		mov	r1, r4
 1869 0db6 9E4A     		ldr	r2, .L348+8
 1870 0db8 9E4B     		ldr	r3, .L348+12
 1871 0dba FFF7FEFF 		bl	__aeabi_dsub
 1872 0dbe 031C     		mov	r3, r0
 1873 0dc0 0C1C     		mov	r4, r1
 1874 0dc2 D422     		mov	r2, #212
 1875 0dc4 9200     		lsl	r2, r2, #2
 1876 0dc6 D219     		add	r2, r2, r7
 1877 0dc8 1360     		str	r3, [r2]
 1878 0dca 5460     		str	r4, [r2, #4]
 212:../Sources/main.c **** 				if (grausaida > z)
 1879              		.loc 1 212 0
 1880 0dcc D423     		mov	r3, #212
 1881 0dce 9B00     		lsl	r3, r3, #2
 1882 0dd0 DB19     		add	r3, r3, r7
 1883 0dd2 1868     		ldr	r0, [r3]
 1884 0dd4 5968     		ldr	r1, [r3, #4]
 1885 0dd6 DC24     		mov	r4, #220
 1886 0dd8 A400     		lsl	r4, r4, #2
 1887 0dda E419     		add	r4, r4, r7
 1888 0ddc 2268     		ldr	r2, [r4]
 1889 0dde 6368     		ldr	r3, [r4, #4]
 1890 0de0 FFF7FEFF 		bl	__aeabi_dcmpgt
 1891 0de4 031C     		mov	r3, r0
 1892 0de6 002B     		cmp	r3, #0
 1893 0de8 09D0     		beq	.L68
 1894              	.L263:
 213:../Sources/main.c **** 					grausaida = z;
 1895              		.loc 1 213 0
 1896 0dea DC21     		mov	r1, #220
 1897 0dec 8900     		lsl	r1, r1, #2
 1898 0dee C919     		add	r1, r1, r7
 1899 0df0 0B68     		ldr	r3, [r1]
 1900 0df2 4C68     		ldr	r4, [r1, #4]
 1901 0df4 D422     		mov	r2, #212
 1902 0df6 9200     		lsl	r2, r2, #2
 1903 0df8 D219     		add	r2, r2, r7
 1904 0dfa 1360     		str	r3, [r2]
 1905 0dfc 5460     		str	r4, [r2, #4]
 1906              	.L68:
 214:../Sources/main.c **** 				if (area[i] <= grausaida)
 1907              		.loc 1 214 0
 1908 0dfe 944B     		ldr	r3, .L348+40
 1909 0e00 EC24     		mov	r4, #236
 1910 0e02 A400     		lsl	r4, r4, #2
 1911 0e04 E419     		add	r4, r4, r7
 1912 0e06 E218     		add	r2, r4, r3
 1913 0e08 EB21     		mov	r1, #235
 1914 0e0a 8900     		lsl	r1, r1, #2
 1915 0e0c C919     		add	r1, r1, r7
 1916 0e0e 0B68     		ldr	r3, [r1]
 1917 0e10 DB00     		lsl	r3, r3, #3
 1918 0e12 D318     		add	r3, r2, r3
 1919 0e14 5C68     		ldr	r4, [r3, #4]
 1920 0e16 1B68     		ldr	r3, [r3]
 1921 0e18 181C     		mov	r0, r3
 1922 0e1a 211C     		mov	r1, r4
 1923 0e1c D424     		mov	r4, #212
 1924 0e1e A400     		lsl	r4, r4, #2
 1925 0e20 E419     		add	r4, r4, r7
 1926 0e22 2268     		ldr	r2, [r4]
 1927 0e24 6368     		ldr	r3, [r4, #4]
 1928 0e26 FFF7FEFF 		bl	__aeabi_dcmple
 1929 0e2a 031C     		mov	r3, r0
 1930 0e2c 002B     		cmp	r3, #0
 1931 0e2e 00D1     		bne	.LCB1667
 1932 0e30 8EE0     		b	.L66	@long jump
 1933              	.LCB1667:
 1934              	.L264:
 215:../Sources/main.c **** 					area[i] = grausaida;
 1935              		.loc 1 215 0
 1936 0e32 874B     		ldr	r3, .L348+40
 1937 0e34 EC21     		mov	r1, #236
 1938 0e36 8900     		lsl	r1, r1, #2
 1939 0e38 C919     		add	r1, r1, r7
 1940 0e3a CA18     		add	r2, r1, r3
 1941 0e3c EB24     		mov	r4, #235
 1942 0e3e A400     		lsl	r4, r4, #2
 1943 0e40 E419     		add	r4, r4, r7
 1944 0e42 2368     		ldr	r3, [r4]
 1945 0e44 DB00     		lsl	r3, r3, #3
 1946 0e46 D218     		add	r2, r2, r3
 1947 0e48 D421     		mov	r1, #212
 1948 0e4a 8900     		lsl	r1, r1, #2
 1949 0e4c C919     		add	r1, r1, r7
 1950 0e4e 0B68     		ldr	r3, [r1]
 1951 0e50 4C68     		ldr	r4, [r1, #4]
 1952 0e52 1360     		str	r3, [r2]
 1953 0e54 5460     		str	r4, [r2, #4]
 214:../Sources/main.c **** 				if (area[i] <= grausaida)
 1954              		.loc 1 214 0
 1955 0e56 7BE0     		b	.L66
 1956              	.L67:
 216:../Sources/main.c **** 			}
 217:../Sources/main.c **** 
 218:../Sources/main.c **** 			else if (servang >= 1500 && servang <= 1625) {
 1957              		.loc 1 218 0
 1958 0e58 D723     		mov	r3, #215
 1959 0e5a 9B00     		lsl	r3, r3, #2
 1960 0e5c DB19     		add	r3, r3, r7
 1961 0e5e 1A68     		ldr	r2, [r3]
 1962 0e60 7C4B     		ldr	r3, .L348+44
 1963 0e62 9A42     		cmp	r2, r3
 1964 0e64 00DC     		bgt	.LCB1695
 1965 0e66 73E0     		b	.L66	@long jump
 1966              	.LCB1695:
 1967              		.loc 1 218 0 is_stmt 0
 1968 0e68 D724     		mov	r4, #215
 1969 0e6a A400     		lsl	r4, r4, #2
 1970 0e6c E419     		add	r4, r4, r7
 1971 0e6e 2268     		ldr	r2, [r4]
 1972 0e70 794B     		ldr	r3, .L348+48
 1973 0e72 9A42     		cmp	r2, r3
 1974 0e74 6CDC     		bgt	.L66
 219:../Sources/main.c **** 
 220:../Sources/main.c **** 				grausaida = ((float) (-servang / 125.0)) + (13.0); //reta e
 1975              		.loc 1 220 0 is_stmt 1
 1976 0e76 D721     		mov	r1, #215
 1977 0e78 8900     		lsl	r1, r1, #2
 1978 0e7a C919     		add	r1, r1, r7
 1979 0e7c 0B68     		ldr	r3, [r1]
 1980 0e7e 5B42     		neg	r3, r3
 1981 0e80 181C     		mov	r0, r3
 1982 0e82 FFF7FEFF 		bl	__aeabi_i2d
 1983 0e86 031C     		mov	r3, r0
 1984 0e88 0C1C     		mov	r4, r1
 1985 0e8a 181C     		mov	r0, r3
 1986 0e8c 211C     		mov	r1, r4
 1987 0e8e 674B     		ldr	r3, .L348+4
 1988 0e90 654A     		ldr	r2, .L348
 1989 0e92 FFF7FEFF 		bl	__aeabi_ddiv
 1990 0e96 031C     		mov	r3, r0
 1991 0e98 0C1C     		mov	r4, r1
 1992 0e9a 181C     		mov	r0, r3
 1993 0e9c 211C     		mov	r1, r4
 1994 0e9e FFF7FEFF 		bl	__aeabi_d2f
 1995 0ea2 031C     		add	r3, r0, #0
 1996 0ea4 181C     		add	r0, r3, #0
 1997 0ea6 FFF7FEFF 		bl	__aeabi_f2d
 1998 0eaa 031C     		mov	r3, r0
 1999 0eac 0C1C     		mov	r4, r1
 2000 0eae 181C     		mov	r0, r3
 2001 0eb0 211C     		mov	r1, r4
 2002 0eb2 614A     		ldr	r2, .L348+16
 2003 0eb4 614B     		ldr	r3, .L348+20
 2004 0eb6 FFF7FEFF 		bl	__aeabi_dadd
 2005 0eba 031C     		mov	r3, r0
 2006 0ebc 0C1C     		mov	r4, r1
 2007 0ebe D422     		mov	r2, #212
 2008 0ec0 9200     		lsl	r2, r2, #2
 2009 0ec2 D219     		add	r2, r2, r7
 2010 0ec4 1360     		str	r3, [r2]
 2011 0ec6 5460     		str	r4, [r2, #4]
 221:../Sources/main.c **** 				if (grausaida > z)
 2012              		.loc 1 221 0
 2013 0ec8 D423     		mov	r3, #212
 2014 0eca 9B00     		lsl	r3, r3, #2
 2015 0ecc DB19     		add	r3, r3, r7
 2016 0ece 1868     		ldr	r0, [r3]
 2017 0ed0 5968     		ldr	r1, [r3, #4]
 2018 0ed2 DC24     		mov	r4, #220
 2019 0ed4 A400     		lsl	r4, r4, #2
 2020 0ed6 E419     		add	r4, r4, r7
 2021 0ed8 2268     		ldr	r2, [r4]
 2022 0eda 6368     		ldr	r3, [r4, #4]
 2023 0edc FFF7FEFF 		bl	__aeabi_dcmpgt
 2024 0ee0 031C     		mov	r3, r0
 2025 0ee2 002B     		cmp	r3, #0
 2026 0ee4 09D0     		beq	.L72
 2027              	.L265:
 222:../Sources/main.c **** 					grausaida = z;
 2028              		.loc 1 222 0
 2029 0ee6 DC21     		mov	r1, #220
 2030 0ee8 8900     		lsl	r1, r1, #2
 2031 0eea C919     		add	r1, r1, r7
 2032 0eec 0B68     		ldr	r3, [r1]
 2033 0eee 4C68     		ldr	r4, [r1, #4]
 2034 0ef0 D422     		mov	r2, #212
 2035 0ef2 9200     		lsl	r2, r2, #2
 2036 0ef4 D219     		add	r2, r2, r7
 2037 0ef6 1360     		str	r3, [r2]
 2038 0ef8 5460     		str	r4, [r2, #4]
 2039              	.L72:
 223:../Sources/main.c **** 				if (area[i] <= grausaida)
 2040              		.loc 1 223 0
 2041 0efa 554B     		ldr	r3, .L348+40
 2042 0efc EC24     		mov	r4, #236
 2043 0efe A400     		lsl	r4, r4, #2
 2044 0f00 E419     		add	r4, r4, r7
 2045 0f02 E218     		add	r2, r4, r3
 2046 0f04 EB21     		mov	r1, #235
 2047 0f06 8900     		lsl	r1, r1, #2
 2048 0f08 C919     		add	r1, r1, r7
 2049 0f0a 0B68     		ldr	r3, [r1]
 2050 0f0c DB00     		lsl	r3, r3, #3
 2051 0f0e D318     		add	r3, r2, r3
 2052 0f10 5C68     		ldr	r4, [r3, #4]
 2053 0f12 1B68     		ldr	r3, [r3]
 2054 0f14 181C     		mov	r0, r3
 2055 0f16 211C     		mov	r1, r4
 2056 0f18 D424     		mov	r4, #212
 2057 0f1a A400     		lsl	r4, r4, #2
 2058 0f1c E419     		add	r4, r4, r7
 2059 0f1e 2268     		ldr	r2, [r4]
 2060 0f20 6368     		ldr	r3, [r4, #4]
 2061 0f22 FFF7FEFF 		bl	__aeabi_dcmple
 2062 0f26 031C     		mov	r3, r0
 2063 0f28 002B     		cmp	r3, #0
 2064 0f2a 11D0     		beq	.L66
 2065              	.L266:
 224:../Sources/main.c **** 					area[i] = grausaida;
 2066              		.loc 1 224 0
 2067 0f2c 484B     		ldr	r3, .L348+40
 2068 0f2e EC21     		mov	r1, #236
 2069 0f30 8900     		lsl	r1, r1, #2
 2070 0f32 C919     		add	r1, r1, r7
 2071 0f34 CA18     		add	r2, r1, r3
 2072 0f36 EB24     		mov	r4, #235
 2073 0f38 A400     		lsl	r4, r4, #2
 2074 0f3a E419     		add	r4, r4, r7
 2075 0f3c 2368     		ldr	r3, [r4]
 2076 0f3e DB00     		lsl	r3, r3, #3
 2077 0f40 D218     		add	r2, r2, r3
 2078 0f42 D421     		mov	r1, #212
 2079 0f44 8900     		lsl	r1, r1, #2
 2080 0f46 C919     		add	r1, r1, r7
 2081 0f48 0B68     		ldr	r3, [r1]
 2082 0f4a 4C68     		ldr	r4, [r1, #4]
 2083 0f4c 1360     		str	r3, [r2]
 2084 0f4e 5460     		str	r4, [r2, #4]
 2085              	.L66:
 225:../Sources/main.c **** 			}
 226:../Sources/main.c **** 			servang = servang + 10;
 2086              		.loc 1 226 0
 2087 0f50 D722     		mov	r2, #215
 2088 0f52 9200     		lsl	r2, r2, #2
 2089 0f54 D219     		add	r2, r2, r7
 2090 0f56 1368     		ldr	r3, [r2]
 2091 0f58 0A33     		add	r3, r3, #10
 2092 0f5a D724     		mov	r4, #215
 2093 0f5c A400     		lsl	r4, r4, #2
 2094 0f5e E419     		add	r4, r4, r7
 2095 0f60 2360     		str	r3, [r4]
 204:../Sources/main.c **** 		for (i = 0; i < 100; i++) {
 2096              		.loc 1 204 0
 2097 0f62 EB21     		mov	r1, #235
 2098 0f64 8900     		lsl	r1, r1, #2
 2099 0f66 C919     		add	r1, r1, r7
 2100 0f68 0B68     		ldr	r3, [r1]
 2101 0f6a 0133     		add	r3, r3, #1
 2102 0f6c EB22     		mov	r2, #235
 2103 0f6e 9200     		lsl	r2, r2, #2
 2104 0f70 D219     		add	r2, r2, r7
 2105 0f72 1360     		str	r3, [r2]
 2106              	.L63:
 204:../Sources/main.c **** 		for (i = 0; i < 100; i++) {
 2107              		.loc 1 204 0 is_stmt 0
 2108 0f74 EB24     		mov	r4, #235
 2109 0f76 A400     		lsl	r4, r4, #2
 2110 0f78 E419     		add	r4, r4, r7
 2111 0f7a 2368     		ldr	r3, [r4]
 2112 0f7c 632B     		cmp	r3, #99
 2113 0f7e 00DC     		bgt	.LCB1825
 2114 0f80 B9E6     		b	.L75	@long jump
 2115              	.LCB1825:
 227:../Sources/main.c **** 		}
 228:../Sources/main.c **** 		servang = 1000;
 2116              		.loc 1 228 0 is_stmt 1
 2117 0f82 FA23     		mov	r3, #250
 2118 0f84 9B00     		lsl	r3, r3, #2
 2119 0f86 D721     		mov	r1, #215
 2120 0f88 8900     		lsl	r1, r1, #2
 2121 0f8a C919     		add	r1, r1, r7
 2122 0f8c 0B60     		str	r3, [r1]
 229:../Sources/main.c **** //------------ SL e R ----------------
 230:../Sources/main.c **** 		if (graur < grausl) {
 2123              		.loc 1 230 0
 2124 0f8e C922     		mov	r2, #201
 2125 0f90 9200     		lsl	r2, r2, #2
 2126 0f92 D219     		add	r2, r2, r7
 2127 0f94 1368     		ldr	r3, [r2]
 2128 0f96 181C     		add	r0, r3, #0
 2129 0f98 FFF7FEFF 		bl	__aeabi_f2d
 2130 0f9c 031C     		mov	r3, r0
 2131 0f9e 0C1C     		mov	r4, r1
 2132 0fa0 181C     		mov	r0, r3
 2133 0fa2 211C     		mov	r1, r4
 2134 0fa4 E624     		mov	r4, #230
 2135 0fa6 A400     		lsl	r4, r4, #2
 2136 0fa8 E419     		add	r4, r4, r7
 2137 0faa 2268     		ldr	r2, [r4]
 2138 0fac 6368     		ldr	r3, [r4, #4]
 2139 0fae FFF7FEFF 		bl	__aeabi_dcmpgt
 2140 0fb2 031C     		mov	r3, r0
 2141 0fb4 002B     		cmp	r3, #0
 2142 0fb6 0AD0     		beq	.L326
 2143              	.L267:
 231:../Sources/main.c **** 			ps = graur;
 2144              		.loc 1 231 0
 2145 0fb8 E621     		mov	r1, #230
 2146 0fba 8900     		lsl	r1, r1, #2
 2147 0fbc C919     		add	r1, r1, r7
 2148 0fbe 0B68     		ldr	r3, [r1]
 2149 0fc0 4C68     		ldr	r4, [r1, #4]
 2150 0fc2 DA22     		mov	r2, #218
 2151 0fc4 9200     		lsl	r2, r2, #2
 2152 0fc6 D219     		add	r2, r2, r7
 2153 0fc8 1360     		str	r3, [r2]
 2154 0fca 5460     		str	r4, [r2, #4]
 2155 0fcc 0DE0     		b	.L78
 2156              	.L326:
 232:../Sources/main.c **** 		} else
 233:../Sources/main.c **** 			ps = grausl;
 2157              		.loc 1 233 0
 2158 0fce C924     		mov	r4, #201
 2159 0fd0 A400     		lsl	r4, r4, #2
 2160 0fd2 E419     		add	r4, r4, r7
 2161 0fd4 2368     		ldr	r3, [r4]
 2162 0fd6 181C     		add	r0, r3, #0
 2163 0fd8 FFF7FEFF 		bl	__aeabi_f2d
 2164 0fdc 031C     		mov	r3, r0
 2165 0fde 0C1C     		mov	r4, r1
 2166 0fe0 DA21     		mov	r1, #218
 2167 0fe2 8900     		lsl	r1, r1, #2
 2168 0fe4 C919     		add	r1, r1, r7
 2169 0fe6 0B60     		str	r3, [r1]
 2170 0fe8 4C60     		str	r4, [r1, #4]
 2171              	.L78:
 234:../Sources/main.c **** 
 235:../Sources/main.c **** 		for (i = 0; i < 100; i++) {
 2172              		.loc 1 235 0
 2173 0fea 0023     		mov	r3, #0
 2174 0fec EB22     		mov	r2, #235
 2175 0fee 9200     		lsl	r2, r2, #2
 2176 0ff0 D219     		add	r2, r2, r7
 2177 0ff2 1360     		str	r3, [r2]
 2178 0ff4 3FE1     		b	.L79
 2179              	.L91:
 236:../Sources/main.c **** 			if (servang < 1500 || servang > 1750) {
 2180              		.loc 1 236 0
 2181 0ff6 D723     		mov	r3, #215
 2182 0ff8 9B00     		lsl	r3, r3, #2
 2183 0ffa DB19     		add	r3, r3, r7
 2184 0ffc 1A68     		ldr	r2, [r3]
 2185 0ffe 154B     		ldr	r3, .L348+44
 2186 1000 9A42     		cmp	r2, r3
 2187 1002 06DD     		ble	.L80
 2188              		.loc 1 236 0 is_stmt 0
 2189 1004 D724     		mov	r4, #215
 2190 1006 A400     		lsl	r4, r4, #2
 2191 1008 E419     		add	r4, r4, r7
 2192 100a 2268     		ldr	r2, [r4]
 2193 100c 134B     		ldr	r3, .L348+52
 2194 100e 9A42     		cmp	r2, r3
 2195 1010 26DD     		ble	.L81
 2196              	.L80:
 237:../Sources/main.c **** 				grausaida = 0;
 2197              		.loc 1 237 0 is_stmt 1
 2198 1012 0B4B     		ldr	r3, .L348+24
 2199 1014 0B4C     		ldr	r4, .L348+28
 2200 1016 D421     		mov	r1, #212
 2201 1018 8900     		lsl	r1, r1, #2
 2202 101a C919     		add	r1, r1, r7
 2203 101c 0B60     		str	r3, [r1]
 2204 101e 4C60     		str	r4, [r1, #4]
 2205 1020 17E1     		b	.L82
 2206              	.L349:
 2207 1022 C046C046 		.align	3
 2207      C046
 2208              	.L348:
 2209 1028 00000000 		.word	0
 2210 102c 00405F40 		.word	1079984128
 2211 1030 00000000 		.word	0
 2212 1034 00002640 		.word	1076232192
 2213 1038 00000000 		.word	0
 2214 103c 00002A40 		.word	1076494336
 2215 1040 00000000 		.word	0
 2216 1044 00000000 		.word	0
 2217 1048 5E050000 		.word	1374
 2218 104c DC050000 		.word	1500
 2219 1050 50FCFFFF 		.word	-944
 2220 1054 DB050000 		.word	1499
 2221 1058 59060000 		.word	1625
 2222 105c D6060000 		.word	1750
 2223              	.L81:
 238:../Sources/main.c **** 				//if(area[i]<=grausaida) area[i]=grausaida;
 239:../Sources/main.c **** 
 240:../Sources/main.c **** 			} else if (servang >= 1500 && servang <= 1625) {
 2224              		.loc 1 240 0
 2225 1060 D723     		mov	r3, #215
 2226 1062 9B00     		lsl	r3, r3, #2
 2227 1064 DB19     		add	r3, r3, r7
 2228 1066 1A68     		ldr	r2, [r3]
 2229 1068 B74B     		ldr	r3, .L350+32
 2230 106a 9A42     		cmp	r2, r3
 2231 106c 00DC     		bgt	.LCB1931
 2232 106e 73E0     		b	.L83	@long jump
 2233              	.LCB1931:
 2234              		.loc 1 240 0 is_stmt 0
 2235 1070 D724     		mov	r4, #215
 2236 1072 A400     		lsl	r4, r4, #2
 2237 1074 E419     		add	r4, r4, r7
 2238 1076 2268     		ldr	r2, [r4]
 2239 1078 B44B     		ldr	r3, .L350+36
 2240 107a 9A42     		cmp	r2, r3
 2241 107c 6CDC     		bgt	.L83
 241:../Sources/main.c **** 
 242:../Sources/main.c **** 				grausaida = ((float) (servang / 125.0)) - (12.0); // reta f
 2242              		.loc 1 242 0 is_stmt 1
 2243 107e D721     		mov	r1, #215
 2244 1080 8900     		lsl	r1, r1, #2
 2245 1082 C919     		add	r1, r1, r7
 2246 1084 0868     		ldr	r0, [r1]
 2247 1086 FFF7FEFF 		bl	__aeabi_i2d
 2248 108a 031C     		mov	r3, r0
 2249 108c 0C1C     		mov	r4, r1
 2250 108e 181C     		mov	r0, r3
 2251 1090 211C     		mov	r1, r4
 2252 1092 A64B     		ldr	r3, .L350+4
 2253 1094 A44A     		ldr	r2, .L350
 2254 1096 FFF7FEFF 		bl	__aeabi_ddiv
 2255 109a 031C     		mov	r3, r0
 2256 109c 0C1C     		mov	r4, r1
 2257 109e 181C     		mov	r0, r3
 2258 10a0 211C     		mov	r1, r4
 2259 10a2 FFF7FEFF 		bl	__aeabi_d2f
 2260 10a6 031C     		add	r3, r0, #0
 2261 10a8 181C     		add	r0, r3, #0
 2262 10aa FFF7FEFF 		bl	__aeabi_f2d
 2263 10ae 031C     		mov	r3, r0
 2264 10b0 0C1C     		mov	r4, r1
 2265 10b2 181C     		mov	r0, r3
 2266 10b4 211C     		mov	r1, r4
 2267 10b6 9E4A     		ldr	r2, .L350+8
 2268 10b8 9E4B     		ldr	r3, .L350+12
 2269 10ba FFF7FEFF 		bl	__aeabi_dsub
 2270 10be 031C     		mov	r3, r0
 2271 10c0 0C1C     		mov	r4, r1
 2272 10c2 D422     		mov	r2, #212
 2273 10c4 9200     		lsl	r2, r2, #2
 2274 10c6 D219     		add	r2, r2, r7
 2275 10c8 1360     		str	r3, [r2]
 2276 10ca 5460     		str	r4, [r2, #4]
 243:../Sources/main.c **** 				if (grausaida > ps)
 2277              		.loc 1 243 0
 2278 10cc D423     		mov	r3, #212
 2279 10ce 9B00     		lsl	r3, r3, #2
 2280 10d0 DB19     		add	r3, r3, r7
 2281 10d2 1868     		ldr	r0, [r3]
 2282 10d4 5968     		ldr	r1, [r3, #4]
 2283 10d6 DA24     		mov	r4, #218
 2284 10d8 A400     		lsl	r4, r4, #2
 2285 10da E419     		add	r4, r4, r7
 2286 10dc 2268     		ldr	r2, [r4]
 2287 10de 6368     		ldr	r3, [r4, #4]
 2288 10e0 FFF7FEFF 		bl	__aeabi_dcmpgt
 2289 10e4 031C     		mov	r3, r0
 2290 10e6 002B     		cmp	r3, #0
 2291 10e8 09D0     		beq	.L84
 2292              	.L268:
 244:../Sources/main.c **** 					grausaida = ps;
 2293              		.loc 1 244 0
 2294 10ea DA21     		mov	r1, #218
 2295 10ec 8900     		lsl	r1, r1, #2
 2296 10ee C919     		add	r1, r1, r7
 2297 10f0 0B68     		ldr	r3, [r1]
 2298 10f2 4C68     		ldr	r4, [r1, #4]
 2299 10f4 D422     		mov	r2, #212
 2300 10f6 9200     		lsl	r2, r2, #2
 2301 10f8 D219     		add	r2, r2, r7
 2302 10fa 1360     		str	r3, [r2]
 2303 10fc 5460     		str	r4, [r2, #4]
 2304              	.L84:
 245:../Sources/main.c **** 				if (area[i] <= grausaida)
 2305              		.loc 1 245 0
 2306 10fe 944B     		ldr	r3, .L350+40
 2307 1100 EC24     		mov	r4, #236
 2308 1102 A400     		lsl	r4, r4, #2
 2309 1104 E419     		add	r4, r4, r7
 2310 1106 E218     		add	r2, r4, r3
 2311 1108 EB21     		mov	r1, #235
 2312 110a 8900     		lsl	r1, r1, #2
 2313 110c C919     		add	r1, r1, r7
 2314 110e 0B68     		ldr	r3, [r1]
 2315 1110 DB00     		lsl	r3, r3, #3
 2316 1112 D318     		add	r3, r2, r3
 2317 1114 5C68     		ldr	r4, [r3, #4]
 2318 1116 1B68     		ldr	r3, [r3]
 2319 1118 181C     		mov	r0, r3
 2320 111a 211C     		mov	r1, r4
 2321 111c D424     		mov	r4, #212
 2322 111e A400     		lsl	r4, r4, #2
 2323 1120 E419     		add	r4, r4, r7
 2324 1122 2268     		ldr	r2, [r4]
 2325 1124 6368     		ldr	r3, [r4, #4]
 2326 1126 FFF7FEFF 		bl	__aeabi_dcmple
 2327 112a 031C     		mov	r3, r0
 2328 112c 002B     		cmp	r3, #0
 2329 112e 00D1     		bne	.LCB2014
 2330 1130 8FE0     		b	.L82	@long jump
 2331              	.LCB2014:
 2332              	.L269:
 246:../Sources/main.c **** 					area[i] = grausaida;
 2333              		.loc 1 246 0
 2334 1132 874B     		ldr	r3, .L350+40
 2335 1134 EC21     		mov	r1, #236
 2336 1136 8900     		lsl	r1, r1, #2
 2337 1138 C919     		add	r1, r1, r7
 2338 113a CA18     		add	r2, r1, r3
 2339 113c EB24     		mov	r4, #235
 2340 113e A400     		lsl	r4, r4, #2
 2341 1140 E419     		add	r4, r4, r7
 2342 1142 2368     		ldr	r3, [r4]
 2343 1144 DB00     		lsl	r3, r3, #3
 2344 1146 D218     		add	r2, r2, r3
 2345 1148 D421     		mov	r1, #212
 2346 114a 8900     		lsl	r1, r1, #2
 2347 114c C919     		add	r1, r1, r7
 2348 114e 0B68     		ldr	r3, [r1]
 2349 1150 4C68     		ldr	r4, [r1, #4]
 2350 1152 1360     		str	r3, [r2]
 2351 1154 5460     		str	r4, [r2, #4]
 245:../Sources/main.c **** 				if (area[i] <= grausaida)
 2352              		.loc 1 245 0
 2353 1156 7CE0     		b	.L82
 2354              	.L83:
 247:../Sources/main.c **** 			}
 248:../Sources/main.c **** 
 249:../Sources/main.c **** 			else if (servang >= 1625 && servang <= 1750) {
 2355              		.loc 1 249 0
 2356 1158 D723     		mov	r3, #215
 2357 115a 9B00     		lsl	r3, r3, #2
 2358 115c DB19     		add	r3, r3, r7
 2359 115e 1A68     		ldr	r2, [r3]
 2360 1160 CB23     		mov	r3, #203
 2361 1162 DB00     		lsl	r3, r3, #3
 2362 1164 9A42     		cmp	r2, r3
 2363 1166 00DC     		bgt	.LCB2043
 2364 1168 73E0     		b	.L82	@long jump
 2365              	.LCB2043:
 2366              		.loc 1 249 0 is_stmt 0
 2367 116a D724     		mov	r4, #215
 2368 116c A400     		lsl	r4, r4, #2
 2369 116e E419     		add	r4, r4, r7
 2370 1170 2268     		ldr	r2, [r4]
 2371 1172 784B     		ldr	r3, .L350+44
 2372 1174 9A42     		cmp	r2, r3
 2373 1176 6CDC     		bgt	.L82
 250:../Sources/main.c **** 
 251:../Sources/main.c **** 				grausaida = ((float) (-servang / 125.0)) + (14.0); //reta g
 2374              		.loc 1 251 0 is_stmt 1
 2375 1178 D721     		mov	r1, #215
 2376 117a 8900     		lsl	r1, r1, #2
 2377 117c C919     		add	r1, r1, r7
 2378 117e 0B68     		ldr	r3, [r1]
 2379 1180 5B42     		neg	r3, r3
 2380 1182 181C     		mov	r0, r3
 2381 1184 FFF7FEFF 		bl	__aeabi_i2d
 2382 1188 031C     		mov	r3, r0
 2383 118a 0C1C     		mov	r4, r1
 2384 118c 181C     		mov	r0, r3
 2385 118e 211C     		mov	r1, r4
 2386 1190 664B     		ldr	r3, .L350+4
 2387 1192 654A     		ldr	r2, .L350
 2388 1194 FFF7FEFF 		bl	__aeabi_ddiv
 2389 1198 031C     		mov	r3, r0
 2390 119a 0C1C     		mov	r4, r1
 2391 119c 181C     		mov	r0, r3
 2392 119e 211C     		mov	r1, r4
 2393 11a0 FFF7FEFF 		bl	__aeabi_d2f
 2394 11a4 031C     		add	r3, r0, #0
 2395 11a6 181C     		add	r0, r3, #0
 2396 11a8 FFF7FEFF 		bl	__aeabi_f2d
 2397 11ac 031C     		mov	r3, r0
 2398 11ae 0C1C     		mov	r4, r1
 2399 11b0 181C     		mov	r0, r3
 2400 11b2 211C     		mov	r1, r4
 2401 11b4 604A     		ldr	r2, .L350+16
 2402 11b6 614B     		ldr	r3, .L350+20
 2403 11b8 FFF7FEFF 		bl	__aeabi_dadd
 2404 11bc 031C     		mov	r3, r0
 2405 11be 0C1C     		mov	r4, r1
 2406 11c0 D422     		mov	r2, #212
 2407 11c2 9200     		lsl	r2, r2, #2
 2408 11c4 D219     		add	r2, r2, r7
 2409 11c6 1360     		str	r3, [r2]
 2410 11c8 5460     		str	r4, [r2, #4]
 252:../Sources/main.c **** 				if (grausaida > ps)
 2411              		.loc 1 252 0
 2412 11ca D423     		mov	r3, #212
 2413 11cc 9B00     		lsl	r3, r3, #2
 2414 11ce DB19     		add	r3, r3, r7
 2415 11d0 1868     		ldr	r0, [r3]
 2416 11d2 5968     		ldr	r1, [r3, #4]
 2417 11d4 DA24     		mov	r4, #218
 2418 11d6 A400     		lsl	r4, r4, #2
 2419 11d8 E419     		add	r4, r4, r7
 2420 11da 2268     		ldr	r2, [r4]
 2421 11dc 6368     		ldr	r3, [r4, #4]
 2422 11de FFF7FEFF 		bl	__aeabi_dcmpgt
 2423 11e2 031C     		mov	r3, r0
 2424 11e4 002B     		cmp	r3, #0
 2425 11e6 09D0     		beq	.L88
 2426              	.L270:
 253:../Sources/main.c **** 					grausaida = ps;
 2427              		.loc 1 253 0
 2428 11e8 DA21     		mov	r1, #218
 2429 11ea 8900     		lsl	r1, r1, #2
 2430 11ec C919     		add	r1, r1, r7
 2431 11ee 0B68     		ldr	r3, [r1]
 2432 11f0 4C68     		ldr	r4, [r1, #4]
 2433 11f2 D422     		mov	r2, #212
 2434 11f4 9200     		lsl	r2, r2, #2
 2435 11f6 D219     		add	r2, r2, r7
 2436 11f8 1360     		str	r3, [r2]
 2437 11fa 5460     		str	r4, [r2, #4]
 2438              	.L88:
 254:../Sources/main.c **** 				if (area[i] <= grausaida)
 2439              		.loc 1 254 0
 2440 11fc 544B     		ldr	r3, .L350+40
 2441 11fe EC24     		mov	r4, #236
 2442 1200 A400     		lsl	r4, r4, #2
 2443 1202 E419     		add	r4, r4, r7
 2444 1204 E218     		add	r2, r4, r3
 2445 1206 EB21     		mov	r1, #235
 2446 1208 8900     		lsl	r1, r1, #2
 2447 120a C919     		add	r1, r1, r7
 2448 120c 0B68     		ldr	r3, [r1]
 2449 120e DB00     		lsl	r3, r3, #3
 2450 1210 D318     		add	r3, r2, r3
 2451 1212 5C68     		ldr	r4, [r3, #4]
 2452 1214 1B68     		ldr	r3, [r3]
 2453 1216 181C     		mov	r0, r3
 2454 1218 211C     		mov	r1, r4
 2455 121a D424     		mov	r4, #212
 2456 121c A400     		lsl	r4, r4, #2
 2457 121e E419     		add	r4, r4, r7
 2458 1220 2268     		ldr	r2, [r4]
 2459 1222 6368     		ldr	r3, [r4, #4]
 2460 1224 FFF7FEFF 		bl	__aeabi_dcmple
 2461 1228 031C     		mov	r3, r0
 2462 122a 002B     		cmp	r3, #0
 2463 122c 11D0     		beq	.L82
 2464              	.L271:
 255:../Sources/main.c **** 					area[i] = grausaida;
 2465              		.loc 1 255 0
 2466 122e 484B     		ldr	r3, .L350+40
 2467 1230 EC21     		mov	r1, #236
 2468 1232 8900     		lsl	r1, r1, #2
 2469 1234 C919     		add	r1, r1, r7
 2470 1236 CA18     		add	r2, r1, r3
 2471 1238 EB24     		mov	r4, #235
 2472 123a A400     		lsl	r4, r4, #2
 2473 123c E419     		add	r4, r4, r7
 2474 123e 2368     		ldr	r3, [r4]
 2475 1240 DB00     		lsl	r3, r3, #3
 2476 1242 D218     		add	r2, r2, r3
 2477 1244 D421     		mov	r1, #212
 2478 1246 8900     		lsl	r1, r1, #2
 2479 1248 C919     		add	r1, r1, r7
 2480 124a 0B68     		ldr	r3, [r1]
 2481 124c 4C68     		ldr	r4, [r1, #4]
 2482 124e 1360     		str	r3, [r2]
 2483 1250 5460     		str	r4, [r2, #4]
 2484              	.L82:
 256:../Sources/main.c **** 			}
 257:../Sources/main.c **** 			servang = servang + 10;
 2485              		.loc 1 257 0
 2486 1252 D722     		mov	r2, #215
 2487 1254 9200     		lsl	r2, r2, #2
 2488 1256 D219     		add	r2, r2, r7
 2489 1258 1368     		ldr	r3, [r2]
 2490 125a 0A33     		add	r3, r3, #10
 2491 125c D724     		mov	r4, #215
 2492 125e A400     		lsl	r4, r4, #2
 2493 1260 E419     		add	r4, r4, r7
 2494 1262 2360     		str	r3, [r4]
 235:../Sources/main.c **** 		for (i = 0; i < 100; i++) {
 2495              		.loc 1 235 0
 2496 1264 EB21     		mov	r1, #235
 2497 1266 8900     		lsl	r1, r1, #2
 2498 1268 C919     		add	r1, r1, r7
 2499 126a 0B68     		ldr	r3, [r1]
 2500 126c 0133     		add	r3, r3, #1
 2501 126e EB22     		mov	r2, #235
 2502 1270 9200     		lsl	r2, r2, #2
 2503 1272 D219     		add	r2, r2, r7
 2504 1274 1360     		str	r3, [r2]
 2505              	.L79:
 235:../Sources/main.c **** 		for (i = 0; i < 100; i++) {
 2506              		.loc 1 235 0 is_stmt 0
 2507 1276 EB24     		mov	r4, #235
 2508 1278 A400     		lsl	r4, r4, #2
 2509 127a E419     		add	r4, r4, r7
 2510 127c 2368     		ldr	r3, [r4]
 2511 127e 632B     		cmp	r3, #99
 2512 1280 00DC     		bgt	.LCB2173
 2513 1282 B8E6     		b	.L91	@long jump
 2514              	.LCB2173:
 258:../Sources/main.c **** 		}
 259:../Sources/main.c **** 		servang = 1000;
 2515              		.loc 1 259 0 is_stmt 1
 2516 1284 FA23     		mov	r3, #250
 2517 1286 9B00     		lsl	r3, r3, #2
 2518 1288 D721     		mov	r1, #215
 2519 128a 8900     		lsl	r1, r1, #2
 2520 128c C919     		add	r1, r1, r7
 2521 128e 0B60     		str	r3, [r1]
 260:../Sources/main.c **** //------------- SL e VR -------------
 261:../Sources/main.c **** 		if (grauvr < grausl) {
 2522              		.loc 1 261 0
 2523 1290 C922     		mov	r2, #201
 2524 1292 9200     		lsl	r2, r2, #2
 2525 1294 D219     		add	r2, r2, r7
 2526 1296 1368     		ldr	r3, [r2]
 2527 1298 181C     		add	r0, r3, #0
 2528 129a FFF7FEFF 		bl	__aeabi_f2d
 2529 129e 031C     		mov	r3, r0
 2530 12a0 0C1C     		mov	r4, r1
 2531 12a2 181C     		mov	r0, r3
 2532 12a4 211C     		mov	r1, r4
 2533 12a6 E424     		mov	r4, #228
 2534 12a8 A400     		lsl	r4, r4, #2
 2535 12aa E419     		add	r4, r4, r7
 2536 12ac 2268     		ldr	r2, [r4]
 2537 12ae 6368     		ldr	r3, [r4, #4]
 2538 12b0 FFF7FEFF 		bl	__aeabi_dcmpgt
 2539 12b4 031C     		mov	r3, r0
 2540 12b6 002B     		cmp	r3, #0
 2541 12b8 0AD0     		beq	.L327
 2542              	.L272:
 262:../Sources/main.c **** 			ps = grauvr;
 2543              		.loc 1 262 0
 2544 12ba E421     		mov	r1, #228
 2545 12bc 8900     		lsl	r1, r1, #2
 2546 12be C919     		add	r1, r1, r7
 2547 12c0 0B68     		ldr	r3, [r1]
 2548 12c2 4C68     		ldr	r4, [r1, #4]
 2549 12c4 DA22     		mov	r2, #218
 2550 12c6 9200     		lsl	r2, r2, #2
 2551 12c8 D219     		add	r2, r2, r7
 2552 12ca 1360     		str	r3, [r2]
 2553 12cc 5460     		str	r4, [r2, #4]
 2554 12ce 0DE0     		b	.L94
 2555              	.L327:
 263:../Sources/main.c **** 		} else
 264:../Sources/main.c **** 			ps = grausl;
 2556              		.loc 1 264 0
 2557 12d0 C924     		mov	r4, #201
 2558 12d2 A400     		lsl	r4, r4, #2
 2559 12d4 E419     		add	r4, r4, r7
 2560 12d6 2368     		ldr	r3, [r4]
 2561 12d8 181C     		add	r0, r3, #0
 2562 12da FFF7FEFF 		bl	__aeabi_f2d
 2563 12de 031C     		mov	r3, r0
 2564 12e0 0C1C     		mov	r4, r1
 2565 12e2 DA21     		mov	r1, #218
 2566 12e4 8900     		lsl	r1, r1, #2
 2567 12e6 C919     		add	r1, r1, r7
 2568 12e8 0B60     		str	r3, [r1]
 2569 12ea 4C60     		str	r4, [r1, #4]
 2570              	.L94:
 265:../Sources/main.c **** 
 266:../Sources/main.c **** 		for (i = 0; i < 100; i++) {
 2571              		.loc 1 266 0
 2572 12ec 0023     		mov	r3, #0
 2573 12ee EB22     		mov	r2, #235
 2574 12f0 9200     		lsl	r2, r2, #2
 2575 12f2 D219     		add	r2, r2, r7
 2576 12f4 1360     		str	r3, [r2]
 2577 12f6 3AE1     		b	.L95
 2578              	.L107:
 267:../Sources/main.c **** 			if (servang < 1500 || servang > 1750) {
 2579              		.loc 1 267 0
 2580 12f8 D723     		mov	r3, #215
 2581 12fa 9B00     		lsl	r3, r3, #2
 2582 12fc DB19     		add	r3, r3, r7
 2583 12fe 1A68     		ldr	r2, [r3]
 2584 1300 114B     		ldr	r3, .L350+32
 2585 1302 9A42     		cmp	r2, r3
 2586 1304 06DD     		ble	.L96
 2587              		.loc 1 267 0 is_stmt 0
 2588 1306 D724     		mov	r4, #215
 2589 1308 A400     		lsl	r4, r4, #2
 2590 130a E419     		add	r4, r4, r7
 2591 130c 2268     		ldr	r2, [r4]
 2592 130e 114B     		ldr	r3, .L350+44
 2593 1310 9A42     		cmp	r2, r3
 2594 1312 21DD     		ble	.L97
 2595              	.L96:
 268:../Sources/main.c **** 				grausaida = 0;
 2596              		.loc 1 268 0 is_stmt 1
 2597 1314 0A4B     		ldr	r3, .L350+24
 2598 1316 0B4C     		ldr	r4, .L350+28
 2599 1318 D421     		mov	r1, #212
 2600 131a 8900     		lsl	r1, r1, #2
 2601 131c C919     		add	r1, r1, r7
 2602 131e 0B60     		str	r3, [r1]
 2603 1320 4C60     		str	r4, [r1, #4]
 2604 1322 12E1     		b	.L98
 2605              	.L351:
 2606 1324 C046C046 		.align	3
 2607              	.L350:
 2608 1328 00000000 		.word	0
 2609 132c 00405F40 		.word	1079984128
 2610 1330 00000000 		.word	0
 2611 1334 00002840 		.word	1076363264
 2612 1338 00000000 		.word	0
 2613 133c 00002C40 		.word	1076625408
 2614 1340 00000000 		.word	0
 2615 1344 00000000 		.word	0
 2616 1348 DB050000 		.word	1499
 2617 134c 59060000 		.word	1625
 2618 1350 50FCFFFF 		.word	-944
 2619 1354 D6060000 		.word	1750
 2620              	.L97:
 269:../Sources/main.c **** 				//if(area[i]<=grausaida) area[i]=grausaida;
 270:../Sources/main.c **** 
 271:../Sources/main.c **** 			} else if (servang >= 1500 && servang <= 1625) {
 2621              		.loc 1 271 0
 2622 1358 D723     		mov	r3, #215
 2623 135a 9B00     		lsl	r3, r3, #2
 2624 135c DB19     		add	r3, r3, r7
 2625 135e 1A68     		ldr	r2, [r3]
 2626 1360 D34B     		ldr	r3, .L352+32
 2627 1362 9A42     		cmp	r2, r3
 2628 1364 00DC     		bgt	.LCB2277
 2629 1366 73E0     		b	.L99	@long jump
 2630              	.LCB2277:
 2631              		.loc 1 271 0 is_stmt 0
 2632 1368 D724     		mov	r4, #215
 2633 136a A400     		lsl	r4, r4, #2
 2634 136c E419     		add	r4, r4, r7
 2635 136e 2268     		ldr	r2, [r4]
 2636 1370 D04B     		ldr	r3, .L352+36
 2637 1372 9A42     		cmp	r2, r3
 2638 1374 6CDC     		bgt	.L99
 272:../Sources/main.c **** 
 273:../Sources/main.c **** 				grausaida = ((float) (servang / 125.0)) - (12.0); // reta f
 2639              		.loc 1 273 0 is_stmt 1
 2640 1376 D721     		mov	r1, #215
 2641 1378 8900     		lsl	r1, r1, #2
 2642 137a C919     		add	r1, r1, r7
 2643 137c 0868     		ldr	r0, [r1]
 2644 137e FFF7FEFF 		bl	__aeabi_i2d
 2645 1382 031C     		mov	r3, r0
 2646 1384 0C1C     		mov	r4, r1
 2647 1386 181C     		mov	r0, r3
 2648 1388 211C     		mov	r1, r4
 2649 138a C24B     		ldr	r3, .L352+4
 2650 138c C04A     		ldr	r2, .L352
 2651 138e FFF7FEFF 		bl	__aeabi_ddiv
 2652 1392 031C     		mov	r3, r0
 2653 1394 0C1C     		mov	r4, r1
 2654 1396 181C     		mov	r0, r3
 2655 1398 211C     		mov	r1, r4
 2656 139a FFF7FEFF 		bl	__aeabi_d2f
 2657 139e 031C     		add	r3, r0, #0
 2658 13a0 181C     		add	r0, r3, #0
 2659 13a2 FFF7FEFF 		bl	__aeabi_f2d
 2660 13a6 031C     		mov	r3, r0
 2661 13a8 0C1C     		mov	r4, r1
 2662 13aa 181C     		mov	r0, r3
 2663 13ac 211C     		mov	r1, r4
 2664 13ae BA4A     		ldr	r2, .L352+8
 2665 13b0 BA4B     		ldr	r3, .L352+12
 2666 13b2 FFF7FEFF 		bl	__aeabi_dsub
 2667 13b6 031C     		mov	r3, r0
 2668 13b8 0C1C     		mov	r4, r1
 2669 13ba D422     		mov	r2, #212
 2670 13bc 9200     		lsl	r2, r2, #2
 2671 13be D219     		add	r2, r2, r7
 2672 13c0 1360     		str	r3, [r2]
 2673 13c2 5460     		str	r4, [r2, #4]
 274:../Sources/main.c **** 				if (grausaida > ps)
 2674              		.loc 1 274 0
 2675 13c4 D423     		mov	r3, #212
 2676 13c6 9B00     		lsl	r3, r3, #2
 2677 13c8 DB19     		add	r3, r3, r7
 2678 13ca 1868     		ldr	r0, [r3]
 2679 13cc 5968     		ldr	r1, [r3, #4]
 2680 13ce DA24     		mov	r4, #218
 2681 13d0 A400     		lsl	r4, r4, #2
 2682 13d2 E419     		add	r4, r4, r7
 2683 13d4 2268     		ldr	r2, [r4]
 2684 13d6 6368     		ldr	r3, [r4, #4]
 2685 13d8 FFF7FEFF 		bl	__aeabi_dcmpgt
 2686 13dc 031C     		mov	r3, r0
 2687 13de 002B     		cmp	r3, #0
 2688 13e0 09D0     		beq	.L100
 2689              	.L273:
 275:../Sources/main.c **** 					grausaida = ps;
 2690              		.loc 1 275 0
 2691 13e2 DA21     		mov	r1, #218
 2692 13e4 8900     		lsl	r1, r1, #2
 2693 13e6 C919     		add	r1, r1, r7
 2694 13e8 0B68     		ldr	r3, [r1]
 2695 13ea 4C68     		ldr	r4, [r1, #4]
 2696 13ec D422     		mov	r2, #212
 2697 13ee 9200     		lsl	r2, r2, #2
 2698 13f0 D219     		add	r2, r2, r7
 2699 13f2 1360     		str	r3, [r2]
 2700 13f4 5460     		str	r4, [r2, #4]
 2701              	.L100:
 276:../Sources/main.c **** 				if (area[i] <= grausaida)
 2702              		.loc 1 276 0
 2703 13f6 B04B     		ldr	r3, .L352+40
 2704 13f8 EC24     		mov	r4, #236
 2705 13fa A400     		lsl	r4, r4, #2
 2706 13fc E419     		add	r4, r4, r7
 2707 13fe E218     		add	r2, r4, r3
 2708 1400 EB21     		mov	r1, #235
 2709 1402 8900     		lsl	r1, r1, #2
 2710 1404 C919     		add	r1, r1, r7
 2711 1406 0B68     		ldr	r3, [r1]
 2712 1408 DB00     		lsl	r3, r3, #3
 2713 140a D318     		add	r3, r2, r3
 2714 140c 5C68     		ldr	r4, [r3, #4]
 2715 140e 1B68     		ldr	r3, [r3]
 2716 1410 181C     		mov	r0, r3
 2717 1412 211C     		mov	r1, r4
 2718 1414 D424     		mov	r4, #212
 2719 1416 A400     		lsl	r4, r4, #2
 2720 1418 E419     		add	r4, r4, r7
 2721 141a 2268     		ldr	r2, [r4]
 2722 141c 6368     		ldr	r3, [r4, #4]
 2723 141e FFF7FEFF 		bl	__aeabi_dcmple
 2724 1422 031C     		mov	r3, r0
 2725 1424 002B     		cmp	r3, #0
 2726 1426 00D1     		bne	.LCB2360
 2727 1428 8FE0     		b	.L98	@long jump
 2728              	.LCB2360:
 2729              	.L274:
 277:../Sources/main.c **** 					area[i] = grausaida;
 2730              		.loc 1 277 0
 2731 142a A34B     		ldr	r3, .L352+40
 2732 142c EC21     		mov	r1, #236
 2733 142e 8900     		lsl	r1, r1, #2
 2734 1430 C919     		add	r1, r1, r7
 2735 1432 CA18     		add	r2, r1, r3
 2736 1434 EB24     		mov	r4, #235
 2737 1436 A400     		lsl	r4, r4, #2
 2738 1438 E419     		add	r4, r4, r7
 2739 143a 2368     		ldr	r3, [r4]
 2740 143c DB00     		lsl	r3, r3, #3
 2741 143e D218     		add	r2, r2, r3
 2742 1440 D421     		mov	r1, #212
 2743 1442 8900     		lsl	r1, r1, #2
 2744 1444 C919     		add	r1, r1, r7
 2745 1446 0B68     		ldr	r3, [r1]
 2746 1448 4C68     		ldr	r4, [r1, #4]
 2747 144a 1360     		str	r3, [r2]
 2748 144c 5460     		str	r4, [r2, #4]
 276:../Sources/main.c **** 				if (area[i] <= grausaida)
 2749              		.loc 1 276 0
 2750 144e 7CE0     		b	.L98
 2751              	.L99:
 278:../Sources/main.c **** 			}
 279:../Sources/main.c **** 
 280:../Sources/main.c **** 			else if (servang >= 1625 && servang <= 1750) {
 2752              		.loc 1 280 0
 2753 1450 D723     		mov	r3, #215
 2754 1452 9B00     		lsl	r3, r3, #2
 2755 1454 DB19     		add	r3, r3, r7
 2756 1456 1A68     		ldr	r2, [r3]
 2757 1458 CB23     		mov	r3, #203
 2758 145a DB00     		lsl	r3, r3, #3
 2759 145c 9A42     		cmp	r2, r3
 2760 145e 00DC     		bgt	.LCB2389
 2761 1460 73E0     		b	.L98	@long jump
 2762              	.LCB2389:
 2763              		.loc 1 280 0 is_stmt 0
 2764 1462 D724     		mov	r4, #215
 2765 1464 A400     		lsl	r4, r4, #2
 2766 1466 E419     		add	r4, r4, r7
 2767 1468 2268     		ldr	r2, [r4]
 2768 146a 944B     		ldr	r3, .L352+44
 2769 146c 9A42     		cmp	r2, r3
 2770 146e 6CDC     		bgt	.L98
 281:../Sources/main.c **** 
 282:../Sources/main.c **** 				grausaida = ((float) (-servang / 125.0)) + (14.0); //reta g
 2771              		.loc 1 282 0 is_stmt 1
 2772 1470 D721     		mov	r1, #215
 2773 1472 8900     		lsl	r1, r1, #2
 2774 1474 C919     		add	r1, r1, r7
 2775 1476 0B68     		ldr	r3, [r1]
 2776 1478 5B42     		neg	r3, r3
 2777 147a 181C     		mov	r0, r3
 2778 147c FFF7FEFF 		bl	__aeabi_i2d
 2779 1480 031C     		mov	r3, r0
 2780 1482 0C1C     		mov	r4, r1
 2781 1484 181C     		mov	r0, r3
 2782 1486 211C     		mov	r1, r4
 2783 1488 824B     		ldr	r3, .L352+4
 2784 148a 814A     		ldr	r2, .L352
 2785 148c FFF7FEFF 		bl	__aeabi_ddiv
 2786 1490 031C     		mov	r3, r0
 2787 1492 0C1C     		mov	r4, r1
 2788 1494 181C     		mov	r0, r3
 2789 1496 211C     		mov	r1, r4
 2790 1498 FFF7FEFF 		bl	__aeabi_d2f
 2791 149c 031C     		add	r3, r0, #0
 2792 149e 181C     		add	r0, r3, #0
 2793 14a0 FFF7FEFF 		bl	__aeabi_f2d
 2794 14a4 031C     		mov	r3, r0
 2795 14a6 0C1C     		mov	r4, r1
 2796 14a8 181C     		mov	r0, r3
 2797 14aa 211C     		mov	r1, r4
 2798 14ac 7C4A     		ldr	r2, .L352+16
 2799 14ae 7D4B     		ldr	r3, .L352+20
 2800 14b0 FFF7FEFF 		bl	__aeabi_dadd
 2801 14b4 031C     		mov	r3, r0
 2802 14b6 0C1C     		mov	r4, r1
 2803 14b8 D422     		mov	r2, #212
 2804 14ba 9200     		lsl	r2, r2, #2
 2805 14bc D219     		add	r2, r2, r7
 2806 14be 1360     		str	r3, [r2]
 2807 14c0 5460     		str	r4, [r2, #4]
 283:../Sources/main.c **** 				if (grausaida > ps)
 2808              		.loc 1 283 0
 2809 14c2 D423     		mov	r3, #212
 2810 14c4 9B00     		lsl	r3, r3, #2
 2811 14c6 DB19     		add	r3, r3, r7
 2812 14c8 1868     		ldr	r0, [r3]
 2813 14ca 5968     		ldr	r1, [r3, #4]
 2814 14cc DA24     		mov	r4, #218
 2815 14ce A400     		lsl	r4, r4, #2
 2816 14d0 E419     		add	r4, r4, r7
 2817 14d2 2268     		ldr	r2, [r4]
 2818 14d4 6368     		ldr	r3, [r4, #4]
 2819 14d6 FFF7FEFF 		bl	__aeabi_dcmpgt
 2820 14da 031C     		mov	r3, r0
 2821 14dc 002B     		cmp	r3, #0
 2822 14de 09D0     		beq	.L104
 2823              	.L275:
 284:../Sources/main.c **** 					grausaida = ps;
 2824              		.loc 1 284 0
 2825 14e0 DA21     		mov	r1, #218
 2826 14e2 8900     		lsl	r1, r1, #2
 2827 14e4 C919     		add	r1, r1, r7
 2828 14e6 0B68     		ldr	r3, [r1]
 2829 14e8 4C68     		ldr	r4, [r1, #4]
 2830 14ea D422     		mov	r2, #212
 2831 14ec 9200     		lsl	r2, r2, #2
 2832 14ee D219     		add	r2, r2, r7
 2833 14f0 1360     		str	r3, [r2]
 2834 14f2 5460     		str	r4, [r2, #4]
 2835              	.L104:
 285:../Sources/main.c **** 				if (area[i] <= grausaida)
 2836              		.loc 1 285 0
 2837 14f4 704B     		ldr	r3, .L352+40
 2838 14f6 EC24     		mov	r4, #236
 2839 14f8 A400     		lsl	r4, r4, #2
 2840 14fa E419     		add	r4, r4, r7
 2841 14fc E218     		add	r2, r4, r3
 2842 14fe EB21     		mov	r1, #235
 2843 1500 8900     		lsl	r1, r1, #2
 2844 1502 C919     		add	r1, r1, r7
 2845 1504 0B68     		ldr	r3, [r1]
 2846 1506 DB00     		lsl	r3, r3, #3
 2847 1508 D318     		add	r3, r2, r3
 2848 150a 5C68     		ldr	r4, [r3, #4]
 2849 150c 1B68     		ldr	r3, [r3]
 2850 150e 181C     		mov	r0, r3
 2851 1510 211C     		mov	r1, r4
 2852 1512 D424     		mov	r4, #212
 2853 1514 A400     		lsl	r4, r4, #2
 2854 1516 E419     		add	r4, r4, r7
 2855 1518 2268     		ldr	r2, [r4]
 2856 151a 6368     		ldr	r3, [r4, #4]
 2857 151c FFF7FEFF 		bl	__aeabi_dcmple
 2858 1520 031C     		mov	r3, r0
 2859 1522 002B     		cmp	r3, #0
 2860 1524 11D0     		beq	.L98
 2861              	.L276:
 286:../Sources/main.c **** 					area[i] = grausaida;
 2862              		.loc 1 286 0
 2863 1526 644B     		ldr	r3, .L352+40
 2864 1528 EC21     		mov	r1, #236
 2865 152a 8900     		lsl	r1, r1, #2
 2866 152c C919     		add	r1, r1, r7
 2867 152e CA18     		add	r2, r1, r3
 2868 1530 EB24     		mov	r4, #235
 2869 1532 A400     		lsl	r4, r4, #2
 2870 1534 E419     		add	r4, r4, r7
 2871 1536 2368     		ldr	r3, [r4]
 2872 1538 DB00     		lsl	r3, r3, #3
 2873 153a D218     		add	r2, r2, r3
 2874 153c D421     		mov	r1, #212
 2875 153e 8900     		lsl	r1, r1, #2
 2876 1540 C919     		add	r1, r1, r7
 2877 1542 0B68     		ldr	r3, [r1]
 2878 1544 4C68     		ldr	r4, [r1, #4]
 2879 1546 1360     		str	r3, [r2]
 2880 1548 5460     		str	r4, [r2, #4]
 2881              	.L98:
 287:../Sources/main.c **** 			}
 288:../Sources/main.c **** 			servang = servang + 10;
 2882              		.loc 1 288 0
 2883 154a D722     		mov	r2, #215
 2884 154c 9200     		lsl	r2, r2, #2
 2885 154e D219     		add	r2, r2, r7
 2886 1550 1368     		ldr	r3, [r2]
 2887 1552 0A33     		add	r3, r3, #10
 2888 1554 D724     		mov	r4, #215
 2889 1556 A400     		lsl	r4, r4, #2
 2890 1558 E419     		add	r4, r4, r7
 2891 155a 2360     		str	r3, [r4]
 266:../Sources/main.c **** 		for (i = 0; i < 100; i++) {
 2892              		.loc 1 266 0
 2893 155c EB21     		mov	r1, #235
 2894 155e 8900     		lsl	r1, r1, #2
 2895 1560 C919     		add	r1, r1, r7
 2896 1562 0B68     		ldr	r3, [r1]
 2897 1564 0133     		add	r3, r3, #1
 2898 1566 EB22     		mov	r2, #235
 2899 1568 9200     		lsl	r2, r2, #2
 2900 156a D219     		add	r2, r2, r7
 2901 156c 1360     		str	r3, [r2]
 2902              	.L95:
 266:../Sources/main.c **** 		for (i = 0; i < 100; i++) {
 2903              		.loc 1 266 0 is_stmt 0
 2904 156e EB24     		mov	r4, #235
 2905 1570 A400     		lsl	r4, r4, #2
 2906 1572 E419     		add	r4, r4, r7
 2907 1574 2368     		ldr	r3, [r4]
 2908 1576 632B     		cmp	r3, #99
 2909 1578 00DC     		bgt	.LCB2519
 2910 157a BDE6     		b	.L107	@long jump
 2911              	.LCB2519:
 289:../Sources/main.c **** 		}
 290:../Sources/main.c **** 		servang = 1000;
 2912              		.loc 1 290 0 is_stmt 1
 2913 157c FA23     		mov	r3, #250
 2914 157e 9B00     		lsl	r3, r3, #2
 2915 1580 D721     		mov	r1, #215
 2916 1582 8900     		lsl	r1, r1, #2
 2917 1584 C919     		add	r1, r1, r7
 2918 1586 0B60     		str	r3, [r1]
 291:../Sources/main.c **** //------------- F e VL ----------
 292:../Sources/main.c **** 		if (grauvl < grauf) {
 2919              		.loc 1 292 0
 2920 1588 C822     		mov	r2, #200
 2921 158a 9200     		lsl	r2, r2, #2
 2922 158c D219     		add	r2, r2, r7
 2923 158e 1368     		ldr	r3, [r2]
 2924 1590 181C     		add	r0, r3, #0
 2925 1592 FFF7FEFF 		bl	__aeabi_f2d
 2926 1596 031C     		mov	r3, r0
 2927 1598 0C1C     		mov	r4, r1
 2928 159a 181C     		mov	r0, r3
 2929 159c 211C     		mov	r1, r4
 2930 159e E824     		mov	r4, #232
 2931 15a0 A400     		lsl	r4, r4, #2
 2932 15a2 E419     		add	r4, r4, r7
 2933 15a4 2268     		ldr	r2, [r4]
 2934 15a6 6368     		ldr	r3, [r4, #4]
 2935 15a8 FFF7FEFF 		bl	__aeabi_dcmpgt
 2936 15ac 031C     		mov	r3, r0
 2937 15ae 002B     		cmp	r3, #0
 2938 15b0 0AD0     		beq	.L328
 2939              	.L277:
 293:../Sources/main.c **** 			nb = grauvl;
 2940              		.loc 1 293 0
 2941 15b2 E821     		mov	r1, #232
 2942 15b4 8900     		lsl	r1, r1, #2
 2943 15b6 C919     		add	r1, r1, r7
 2944 15b8 0B68     		ldr	r3, [r1]
 2945 15ba 4C68     		ldr	r4, [r1, #4]
 2946 15bc DE22     		mov	r2, #222
 2947 15be 9200     		lsl	r2, r2, #2
 2948 15c0 D219     		add	r2, r2, r7
 2949 15c2 1360     		str	r3, [r2]
 2950 15c4 5460     		str	r4, [r2, #4]
 2951 15c6 0DE0     		b	.L110
 2952              	.L328:
 294:../Sources/main.c **** 		} else
 295:../Sources/main.c **** 			nb = grauf;
 2953              		.loc 1 295 0
 2954 15c8 C824     		mov	r4, #200
 2955 15ca A400     		lsl	r4, r4, #2
 2956 15cc E419     		add	r4, r4, r7
 2957 15ce 2368     		ldr	r3, [r4]
 2958 15d0 181C     		add	r0, r3, #0
 2959 15d2 FFF7FEFF 		bl	__aeabi_f2d
 2960 15d6 031C     		mov	r3, r0
 2961 15d8 0C1C     		mov	r4, r1
 2962 15da DE21     		mov	r1, #222
 2963 15dc 8900     		lsl	r1, r1, #2
 2964 15de C919     		add	r1, r1, r7
 2965 15e0 0B60     		str	r3, [r1]
 2966 15e2 4C60     		str	r4, [r1, #4]
 2967              	.L110:
 296:../Sources/main.c **** 
 297:../Sources/main.c **** 		for (i = 0; i < 100; i++) {
 2968              		.loc 1 297 0
 2969 15e4 0023     		mov	r3, #0
 2970 15e6 EB22     		mov	r2, #235
 2971 15e8 9200     		lsl	r2, r2, #2
 2972 15ea D219     		add	r2, r2, r7
 2973 15ec 1360     		str	r3, [r2]
 2974 15ee F9E0     		b	.L111
 2975              	.L119:
 298:../Sources/main.c **** 			if (servang < 1250) {
 2976              		.loc 1 298 0
 2977 15f0 D723     		mov	r3, #215
 2978 15f2 9B00     		lsl	r3, r3, #2
 2979 15f4 DB19     		add	r3, r3, r7
 2980 15f6 1A68     		ldr	r2, [r3]
 2981 15f8 314B     		ldr	r3, .L352+48
 2982 15fa 9A42     		cmp	r2, r3
 2983 15fc 36DC     		bgt	.L112
 299:../Sources/main.c **** 				grausaida = nb;
 2984              		.loc 1 299 0
 2985 15fe DE21     		mov	r1, #222
 2986 1600 8900     		lsl	r1, r1, #2
 2987 1602 C919     		add	r1, r1, r7
 2988 1604 0B68     		ldr	r3, [r1]
 2989 1606 4C68     		ldr	r4, [r1, #4]
 2990 1608 D422     		mov	r2, #212
 2991 160a 9200     		lsl	r2, r2, #2
 2992 160c D219     		add	r2, r2, r7
 2993 160e 1360     		str	r3, [r2]
 2994 1610 5460     		str	r4, [r2, #4]
 300:../Sources/main.c **** 				if (area[i] <= grausaida)
 2995              		.loc 1 300 0
 2996 1612 294B     		ldr	r3, .L352+40
 2997 1614 EC24     		mov	r4, #236
 2998 1616 A400     		lsl	r4, r4, #2
 2999 1618 E419     		add	r4, r4, r7
 3000 161a E218     		add	r2, r4, r3
 3001 161c EB21     		mov	r1, #235
 3002 161e 8900     		lsl	r1, r1, #2
 3003 1620 C919     		add	r1, r1, r7
 3004 1622 0B68     		ldr	r3, [r1]
 3005 1624 DB00     		lsl	r3, r3, #3
 3006 1626 D318     		add	r3, r2, r3
 3007 1628 5C68     		ldr	r4, [r3, #4]
 3008 162a 1B68     		ldr	r3, [r3]
 3009 162c 181C     		mov	r0, r3
 3010 162e 211C     		mov	r1, r4
 3011 1630 D424     		mov	r4, #212
 3012 1632 A400     		lsl	r4, r4, #2
 3013 1634 E419     		add	r4, r4, r7
 3014 1636 2268     		ldr	r2, [r4]
 3015 1638 6368     		ldr	r3, [r4, #4]
 3016 163a FFF7FEFF 		bl	__aeabi_dcmple
 3017 163e 031C     		mov	r3, r0
 3018 1640 002B     		cmp	r3, #0
 3019 1642 00D1     		bne	.LCB2616
 3020 1644 BCE0     		b	.L113	@long jump
 3021              	.LCB2616:
 3022              	.L278:
 301:../Sources/main.c **** 					area[i] = grausaida;
 3023              		.loc 1 301 0
 3024 1646 1C4B     		ldr	r3, .L352+40
 3025 1648 EC21     		mov	r1, #236
 3026 164a 8900     		lsl	r1, r1, #2
 3027 164c C919     		add	r1, r1, r7
 3028 164e CA18     		add	r2, r1, r3
 3029 1650 EB24     		mov	r4, #235
 3030 1652 A400     		lsl	r4, r4, #2
 3031 1654 E419     		add	r4, r4, r7
 3032 1656 2368     		ldr	r3, [r4]
 3033 1658 DB00     		lsl	r3, r3, #3
 3034 165a D218     		add	r2, r2, r3
 3035 165c D421     		mov	r1, #212
 3036 165e 8900     		lsl	r1, r1, #2
 3037 1660 C919     		add	r1, r1, r7
 3038 1662 0B68     		ldr	r3, [r1]
 3039 1664 4C68     		ldr	r4, [r1, #4]
 3040 1666 1360     		str	r3, [r2]
 3041 1668 5460     		str	r4, [r2, #4]
 3042 166a A9E0     		b	.L113
 3043              	.L112:
 302:../Sources/main.c **** 
 303:../Sources/main.c **** 			} else if (servang > 1375) {
 3044              		.loc 1 303 0
 3045 166c D723     		mov	r3, #215
 3046 166e 9B00     		lsl	r3, r3, #2
 3047 1670 DB19     		add	r3, r3, r7
 3048 1672 1A68     		ldr	r2, [r3]
 3049 1674 134B     		ldr	r3, .L352+52
 3050 1676 9A42     		cmp	r2, r3
 3051 1678 26DD     		ble	.L115
 304:../Sources/main.c **** 				grausaida = 0;
 3052              		.loc 1 304 0
 3053 167a 0B4B     		ldr	r3, .L352+24
 3054 167c 0B4C     		ldr	r4, .L352+28
 3055 167e D421     		mov	r1, #212
 3056 1680 8900     		lsl	r1, r1, #2
 3057 1682 C919     		add	r1, r1, r7
 3058 1684 0B60     		str	r3, [r1]
 3059 1686 4C60     		str	r4, [r1, #4]
 3060 1688 9AE0     		b	.L113
 3061              	.L353:
 3062 168a C046C046 		.align	3
 3062      C046
 3063              	.L352:
 3064 1690 00000000 		.word	0
 3065 1694 00405F40 		.word	1079984128
 3066 1698 00000000 		.word	0
 3067 169c 00002840 		.word	1076363264
 3068 16a0 00000000 		.word	0
 3069 16a4 00002C40 		.word	1076625408
 3070 16a8 00000000 		.word	0
 3071 16ac 00000000 		.word	0
 3072 16b0 DB050000 		.word	1499
 3073 16b4 59060000 		.word	1625
 3074 16b8 50FCFFFF 		.word	-944
 3075 16bc D6060000 		.word	1750
 3076 16c0 E1040000 		.word	1249
 3077 16c4 5F050000 		.word	1375
 3078              	.L115:
 305:../Sources/main.c **** 			} else if (servang >= 1250 && servang <= 1375) {
 3079              		.loc 1 305 0
 3080 16c8 D723     		mov	r3, #215
 3081 16ca 9B00     		lsl	r3, r3, #2
 3082 16cc DB19     		add	r3, r3, r7
 3083 16ce 1A68     		ldr	r2, [r3]
 3084 16d0 B54B     		ldr	r3, .L354+32
 3085 16d2 9A42     		cmp	r2, r3
 3086 16d4 00DC     		bgt	.LCB2675
 3087 16d6 73E0     		b	.L113	@long jump
 3088              	.LCB2675:
 3089              		.loc 1 305 0 is_stmt 0
 3090 16d8 D724     		mov	r4, #215
 3091 16da A400     		lsl	r4, r4, #2
 3092 16dc E419     		add	r4, r4, r7
 3093 16de 2268     		ldr	r2, [r4]
 3094 16e0 B24B     		ldr	r3, .L354+36
 3095 16e2 9A42     		cmp	r2, r3
 3096 16e4 6CDC     		bgt	.L113
 306:../Sources/main.c **** 
 307:../Sources/main.c **** 				grausaida = ((float) (-servang / (125.0))) + (11.0); // reta a
 3097              		.loc 1 307 0 is_stmt 1
 3098 16e6 D721     		mov	r1, #215
 3099 16e8 8900     		lsl	r1, r1, #2
 3100 16ea C919     		add	r1, r1, r7
 3101 16ec 0B68     		ldr	r3, [r1]
 3102 16ee 5B42     		neg	r3, r3
 3103 16f0 181C     		mov	r0, r3
 3104 16f2 FFF7FEFF 		bl	__aeabi_i2d
 3105 16f6 031C     		mov	r3, r0
 3106 16f8 0C1C     		mov	r4, r1
 3107 16fa 181C     		mov	r0, r3
 3108 16fc 211C     		mov	r1, r4
 3109 16fe A34B     		ldr	r3, .L354+4
 3110 1700 A14A     		ldr	r2, .L354
 3111 1702 FFF7FEFF 		bl	__aeabi_ddiv
 3112 1706 031C     		mov	r3, r0
 3113 1708 0C1C     		mov	r4, r1
 3114 170a 181C     		mov	r0, r3
 3115 170c 211C     		mov	r1, r4
 3116 170e FFF7FEFF 		bl	__aeabi_d2f
 3117 1712 031C     		add	r3, r0, #0
 3118 1714 181C     		add	r0, r3, #0
 3119 1716 FFF7FEFF 		bl	__aeabi_f2d
 3120 171a 031C     		mov	r3, r0
 3121 171c 0C1C     		mov	r4, r1
 3122 171e 181C     		mov	r0, r3
 3123 1720 211C     		mov	r1, r4
 3124 1722 9B4A     		ldr	r2, .L354+8
 3125 1724 9B4B     		ldr	r3, .L354+12
 3126 1726 FFF7FEFF 		bl	__aeabi_dadd
 3127 172a 031C     		mov	r3, r0
 3128 172c 0C1C     		mov	r4, r1
 3129 172e D422     		mov	r2, #212
 3130 1730 9200     		lsl	r2, r2, #2
 3131 1732 D219     		add	r2, r2, r7
 3132 1734 1360     		str	r3, [r2]
 3133 1736 5460     		str	r4, [r2, #4]
 308:../Sources/main.c **** 				if (grausaida > nb)
 3134              		.loc 1 308 0
 3135 1738 D423     		mov	r3, #212
 3136 173a 9B00     		lsl	r3, r3, #2
 3137 173c DB19     		add	r3, r3, r7
 3138 173e 1868     		ldr	r0, [r3]
 3139 1740 5968     		ldr	r1, [r3, #4]
 3140 1742 DE24     		mov	r4, #222
 3141 1744 A400     		lsl	r4, r4, #2
 3142 1746 E419     		add	r4, r4, r7
 3143 1748 2268     		ldr	r2, [r4]
 3144 174a 6368     		ldr	r3, [r4, #4]
 3145 174c FFF7FEFF 		bl	__aeabi_dcmpgt
 3146 1750 031C     		mov	r3, r0
 3147 1752 002B     		cmp	r3, #0
 3148 1754 09D0     		beq	.L116
 3149              	.L279:
 309:../Sources/main.c **** 					grausaida = nb;
 3150              		.loc 1 309 0
 3151 1756 DE21     		mov	r1, #222
 3152 1758 8900     		lsl	r1, r1, #2
 3153 175a C919     		add	r1, r1, r7
 3154 175c 0B68     		ldr	r3, [r1]
 3155 175e 4C68     		ldr	r4, [r1, #4]
 3156 1760 D422     		mov	r2, #212
 3157 1762 9200     		lsl	r2, r2, #2
 3158 1764 D219     		add	r2, r2, r7
 3159 1766 1360     		str	r3, [r2]
 3160 1768 5460     		str	r4, [r2, #4]
 3161              	.L116:
 310:../Sources/main.c **** 				if (area[i] <= grausaida)
 3162              		.loc 1 310 0
 3163 176a 914B     		ldr	r3, .L354+40
 3164 176c EC24     		mov	r4, #236
 3165 176e A400     		lsl	r4, r4, #2
 3166 1770 E419     		add	r4, r4, r7
 3167 1772 E218     		add	r2, r4, r3
 3168 1774 EB21     		mov	r1, #235
 3169 1776 8900     		lsl	r1, r1, #2
 3170 1778 C919     		add	r1, r1, r7
 3171 177a 0B68     		ldr	r3, [r1]
 3172 177c DB00     		lsl	r3, r3, #3
 3173 177e D318     		add	r3, r2, r3
 3174 1780 5C68     		ldr	r4, [r3, #4]
 3175 1782 1B68     		ldr	r3, [r3]
 3176 1784 181C     		mov	r0, r3
 3177 1786 211C     		mov	r1, r4
 3178 1788 D424     		mov	r4, #212
 3179 178a A400     		lsl	r4, r4, #2
 3180 178c E419     		add	r4, r4, r7
 3181 178e 2268     		ldr	r2, [r4]
 3182 1790 6368     		ldr	r3, [r4, #4]
 3183 1792 FFF7FEFF 		bl	__aeabi_dcmple
 3184 1796 031C     		mov	r3, r0
 3185 1798 002B     		cmp	r3, #0
 3186 179a 11D0     		beq	.L113
 3187              	.L280:
 311:../Sources/main.c **** 					area[i] = grausaida;
 3188              		.loc 1 311 0
 3189 179c 844B     		ldr	r3, .L354+40
 3190 179e EC21     		mov	r1, #236
 3191 17a0 8900     		lsl	r1, r1, #2
 3192 17a2 C919     		add	r1, r1, r7
 3193 17a4 CA18     		add	r2, r1, r3
 3194 17a6 EB24     		mov	r4, #235
 3195 17a8 A400     		lsl	r4, r4, #2
 3196 17aa E419     		add	r4, r4, r7
 3197 17ac 2368     		ldr	r3, [r4]
 3198 17ae DB00     		lsl	r3, r3, #3
 3199 17b0 D218     		add	r2, r2, r3
 3200 17b2 D421     		mov	r1, #212
 3201 17b4 8900     		lsl	r1, r1, #2
 3202 17b6 C919     		add	r1, r1, r7
 3203 17b8 0B68     		ldr	r3, [r1]
 3204 17ba 4C68     		ldr	r4, [r1, #4]
 3205 17bc 1360     		str	r3, [r2]
 3206 17be 5460     		str	r4, [r2, #4]
 3207              	.L113:
 312:../Sources/main.c **** 			}
 313:../Sources/main.c **** 
 314:../Sources/main.c **** 			servang = servang + 10;
 3208              		.loc 1 314 0
 3209 17c0 D722     		mov	r2, #215
 3210 17c2 9200     		lsl	r2, r2, #2
 3211 17c4 D219     		add	r2, r2, r7
 3212 17c6 1368     		ldr	r3, [r2]
 3213 17c8 0A33     		add	r3, r3, #10
 3214 17ca D724     		mov	r4, #215
 3215 17cc A400     		lsl	r4, r4, #2
 3216 17ce E419     		add	r4, r4, r7
 3217 17d0 2360     		str	r3, [r4]
 297:../Sources/main.c **** 		for (i = 0; i < 100; i++) {
 3218              		.loc 1 297 0
 3219 17d2 EB21     		mov	r1, #235
 3220 17d4 8900     		lsl	r1, r1, #2
 3221 17d6 C919     		add	r1, r1, r7
 3222 17d8 0B68     		ldr	r3, [r1]
 3223 17da 0133     		add	r3, r3, #1
 3224 17dc EB22     		mov	r2, #235
 3225 17de 9200     		lsl	r2, r2, #2
 3226 17e0 D219     		add	r2, r2, r7
 3227 17e2 1360     		str	r3, [r2]
 3228              	.L111:
 297:../Sources/main.c **** 		for (i = 0; i < 100; i++) {
 3229              		.loc 1 297 0 is_stmt 0
 3230 17e4 EB24     		mov	r4, #235
 3231 17e6 A400     		lsl	r4, r4, #2
 3232 17e8 E419     		add	r4, r4, r7
 3233 17ea 2368     		ldr	r3, [r4]
 3234 17ec 632B     		cmp	r3, #99
 3235 17ee 00DC     		bgt	.LCB2805
 3236 17f0 FEE6     		b	.L119	@long jump
 3237              	.LCB2805:
 315:../Sources/main.c **** 		}
 316:../Sources/main.c **** 		servang = 1000;
 3238              		.loc 1 316 0 is_stmt 1
 3239 17f2 FA23     		mov	r3, #250
 3240 17f4 9B00     		lsl	r3, r3, #2
 3241 17f6 D721     		mov	r1, #215
 3242 17f8 8900     		lsl	r1, r1, #2
 3243 17fa C919     		add	r1, r1, r7
 3244 17fc 0B60     		str	r3, [r1]
 317:../Sources/main.c **** //------------ F e L -----------
 318:../Sources/main.c **** 		if (graul < grauf) {
 3245              		.loc 1 318 0
 3246 17fe CB23     		mov	r3, #203
 3247 1800 9B00     		lsl	r3, r3, #2
 3248 1802 DB19     		add	r3, r3, r7
 3249 1804 1A68     		ldr	r2, [r3]
 3250 1806 C824     		mov	r4, #200
 3251 1808 A400     		lsl	r4, r4, #2
 3252 180a E419     		add	r4, r4, r7
 3253 180c 2368     		ldr	r3, [r4]
 3254 180e 101C     		add	r0, r2, #0
 3255 1810 191C     		add	r1, r3, #0
 3256 1812 FFF7FEFF 		bl	__aeabi_fcmplt
 3257 1816 031C     		mov	r3, r0
 3258 1818 002B     		cmp	r3, #0
 3259 181a 0ED0     		beq	.L329
 3260              	.L281:
 319:../Sources/main.c **** 			ns = graul;
 3261              		.loc 1 319 0
 3262 181c CB21     		mov	r1, #203
 3263 181e 8900     		lsl	r1, r1, #2
 3264 1820 C919     		add	r1, r1, r7
 3265 1822 0B68     		ldr	r3, [r1]
 3266 1824 181C     		add	r0, r3, #0
 3267 1826 FFF7FEFF 		bl	__aeabi_f2d
 3268 182a 031C     		mov	r3, r0
 3269 182c 0C1C     		mov	r4, r1
 3270 182e E022     		mov	r2, #224
 3271 1830 9200     		lsl	r2, r2, #2
 3272 1832 D219     		add	r2, r2, r7
 3273 1834 1360     		str	r3, [r2]
 3274 1836 5460     		str	r4, [r2, #4]
 3275 1838 0DE0     		b	.L122
 3276              	.L329:
 320:../Sources/main.c **** 		} else
 321:../Sources/main.c **** 			ns = grauf;
 3277              		.loc 1 321 0
 3278 183a C824     		mov	r4, #200
 3279 183c A400     		lsl	r4, r4, #2
 3280 183e E419     		add	r4, r4, r7
 3281 1840 2368     		ldr	r3, [r4]
 3282 1842 181C     		add	r0, r3, #0
 3283 1844 FFF7FEFF 		bl	__aeabi_f2d
 3284 1848 031C     		mov	r3, r0
 3285 184a 0C1C     		mov	r4, r1
 3286 184c E021     		mov	r1, #224
 3287 184e 8900     		lsl	r1, r1, #2
 3288 1850 C919     		add	r1, r1, r7
 3289 1852 0B60     		str	r3, [r1]
 3290 1854 4C60     		str	r4, [r1, #4]
 3291              	.L122:
 322:../Sources/main.c **** 
 323:../Sources/main.c **** 		for (i = 0; i < 100; i++) {
 3292              		.loc 1 323 0
 3293 1856 0023     		mov	r3, #0
 3294 1858 EB22     		mov	r2, #235
 3295 185a 9200     		lsl	r2, r2, #2
 3296 185c D219     		add	r2, r2, r7
 3297 185e 1360     		str	r3, [r2]
 3298 1860 38E1     		b	.L123
 3299              	.L135:
 324:../Sources/main.c **** 			if (servang < 1250 || servang > 1500) {
 3300              		.loc 1 324 0
 3301 1862 D723     		mov	r3, #215
 3302 1864 9B00     		lsl	r3, r3, #2
 3303 1866 DB19     		add	r3, r3, r7
 3304 1868 1A68     		ldr	r2, [r3]
 3305 186a 4F4B     		ldr	r3, .L354+32
 3306 186c 9A42     		cmp	r2, r3
 3307 186e 06DD     		ble	.L124
 3308              		.loc 1 324 0 is_stmt 0
 3309 1870 D724     		mov	r4, #215
 3310 1872 A400     		lsl	r4, r4, #2
 3311 1874 E419     		add	r4, r4, r7
 3312 1876 2268     		ldr	r2, [r4]
 3313 1878 4E4B     		ldr	r3, .L354+44
 3314 187a 9A42     		cmp	r2, r3
 3315 187c 07DD     		ble	.L125
 3316              	.L124:
 325:../Sources/main.c **** 				grausaida = 0;
 3317              		.loc 1 325 0 is_stmt 1
 3318 187e 464B     		ldr	r3, .L354+16
 3319 1880 464C     		ldr	r4, .L354+20
 3320 1882 D421     		mov	r1, #212
 3321 1884 8900     		lsl	r1, r1, #2
 3322 1886 C919     		add	r1, r1, r7
 3323 1888 0B60     		str	r3, [r1]
 3324 188a 4C60     		str	r4, [r1, #4]
 3325 188c 10E1     		b	.L126
 3326              	.L125:
 326:../Sources/main.c **** 				//if(area[i]<=grausaida) area[i]=grausaida;
 327:../Sources/main.c **** 
 328:../Sources/main.c **** 			} else if (servang >= 1250 && servang <= 1375) {
 3327              		.loc 1 328 0
 3328 188e D723     		mov	r3, #215
 3329 1890 9B00     		lsl	r3, r3, #2
 3330 1892 DB19     		add	r3, r3, r7
 3331 1894 1A68     		ldr	r2, [r3]
 3332 1896 444B     		ldr	r3, .L354+32
 3333 1898 9A42     		cmp	r2, r3
 3334 189a 00DC     		bgt	.LCB2896
 3335 189c 8CE0     		b	.L127	@long jump
 3336              	.LCB2896:
 3337              		.loc 1 328 0 is_stmt 0
 3338 189e D724     		mov	r4, #215
 3339 18a0 A400     		lsl	r4, r4, #2
 3340 18a2 E419     		add	r4, r4, r7
 3341 18a4 2268     		ldr	r2, [r4]
 3342 18a6 414B     		ldr	r3, .L354+36
 3343 18a8 9A42     		cmp	r2, r3
 3344 18aa 00DD     		ble	.LCB2903
 3345 18ac 84E0     		b	.L127	@long jump
 3346              	.LCB2903:
 329:../Sources/main.c **** 
 330:../Sources/main.c **** 				grausaida = ((float) (servang / 125.0)) - (10.0); // reta b
 3347              		.loc 1 330 0 is_stmt 1
 3348 18ae D721     		mov	r1, #215
 3349 18b0 8900     		lsl	r1, r1, #2
 3350 18b2 C919     		add	r1, r1, r7
 3351 18b4 0868     		ldr	r0, [r1]
 3352 18b6 FFF7FEFF 		bl	__aeabi_i2d
 3353 18ba 031C     		mov	r3, r0
 3354 18bc 0C1C     		mov	r4, r1
 3355 18be 181C     		mov	r0, r3
 3356 18c0 211C     		mov	r1, r4
 3357 18c2 324B     		ldr	r3, .L354+4
 3358 18c4 304A     		ldr	r2, .L354
 3359 18c6 FFF7FEFF 		bl	__aeabi_ddiv
 3360 18ca 031C     		mov	r3, r0
 3361 18cc 0C1C     		mov	r4, r1
 3362 18ce 181C     		mov	r0, r3
 3363 18d0 211C     		mov	r1, r4
 3364 18d2 FFF7FEFF 		bl	__aeabi_d2f
 3365 18d6 031C     		add	r3, r0, #0
 3366 18d8 181C     		add	r0, r3, #0
 3367 18da FFF7FEFF 		bl	__aeabi_f2d
 3368 18de 031C     		mov	r3, r0
 3369 18e0 0C1C     		mov	r4, r1
 3370 18e2 181C     		mov	r0, r3
 3371 18e4 211C     		mov	r1, r4
 3372 18e6 2E4A     		ldr	r2, .L354+24
 3373 18e8 2E4B     		ldr	r3, .L354+28
 3374 18ea FFF7FEFF 		bl	__aeabi_dsub
 3375 18ee 031C     		mov	r3, r0
 3376 18f0 0C1C     		mov	r4, r1
 3377 18f2 D422     		mov	r2, #212
 3378 18f4 9200     		lsl	r2, r2, #2
 3379 18f6 D219     		add	r2, r2, r7
 3380 18f8 1360     		str	r3, [r2]
 3381 18fa 5460     		str	r4, [r2, #4]
 331:../Sources/main.c **** 				if (grausaida > ns)
 3382              		.loc 1 331 0
 3383 18fc D423     		mov	r3, #212
 3384 18fe 9B00     		lsl	r3, r3, #2
 3385 1900 DB19     		add	r3, r3, r7
 3386 1902 1868     		ldr	r0, [r3]
 3387 1904 5968     		ldr	r1, [r3, #4]
 3388 1906 E024     		mov	r4, #224
 3389 1908 A400     		lsl	r4, r4, #2
 3390 190a E419     		add	r4, r4, r7
 3391 190c 2268     		ldr	r2, [r4]
 3392 190e 6368     		ldr	r3, [r4, #4]
 3393 1910 FFF7FEFF 		bl	__aeabi_dcmpgt
 3394 1914 031C     		mov	r3, r0
 3395 1916 002B     		cmp	r3, #0
 3396 1918 09D0     		beq	.L128
 3397              	.L282:
 332:../Sources/main.c **** 					grausaida = ns;
 3398              		.loc 1 332 0
 3399 191a E021     		mov	r1, #224
 3400 191c 8900     		lsl	r1, r1, #2
 3401 191e C919     		add	r1, r1, r7
 3402 1920 0B68     		ldr	r3, [r1]
 3403 1922 4C68     		ldr	r4, [r1, #4]
 3404 1924 D422     		mov	r2, #212
 3405 1926 9200     		lsl	r2, r2, #2
 3406 1928 D219     		add	r2, r2, r7
 3407 192a 1360     		str	r3, [r2]
 3408 192c 5460     		str	r4, [r2, #4]
 3409              	.L128:
 333:../Sources/main.c **** 				if (area[i] <= grausaida)
 3410              		.loc 1 333 0
 3411 192e 204B     		ldr	r3, .L354+40
 3412 1930 EC24     		mov	r4, #236
 3413 1932 A400     		lsl	r4, r4, #2
 3414 1934 E419     		add	r4, r4, r7
 3415 1936 E218     		add	r2, r4, r3
 3416 1938 EB21     		mov	r1, #235
 3417 193a 8900     		lsl	r1, r1, #2
 3418 193c C919     		add	r1, r1, r7
 3419 193e 0B68     		ldr	r3, [r1]
 3420 1940 DB00     		lsl	r3, r3, #3
 3421 1942 D318     		add	r3, r2, r3
 3422 1944 5C68     		ldr	r4, [r3, #4]
 3423 1946 1B68     		ldr	r3, [r3]
 3424 1948 181C     		mov	r0, r3
 3425 194a 211C     		mov	r1, r4
 3426 194c D424     		mov	r4, #212
 3427 194e A400     		lsl	r4, r4, #2
 3428 1950 E419     		add	r4, r4, r7
 3429 1952 2268     		ldr	r2, [r4]
 3430 1954 6368     		ldr	r3, [r4, #4]
 3431 1956 FFF7FEFF 		bl	__aeabi_dcmple
 3432 195a 031C     		mov	r3, r0
 3433 195c 002B     		cmp	r3, #0
 3434 195e 00D1     		bne	.LCB2979
 3435 1960 A6E0     		b	.L126	@long jump
 3436              	.LCB2979:
 3437              	.L283:
 334:../Sources/main.c **** 					area[i] = grausaida;
 3438              		.loc 1 334 0
 3439 1962 134B     		ldr	r3, .L354+40
 3440 1964 EC21     		mov	r1, #236
 3441 1966 8900     		lsl	r1, r1, #2
 3442 1968 C919     		add	r1, r1, r7
 3443 196a CA18     		add	r2, r1, r3
 3444 196c EB24     		mov	r4, #235
 3445 196e A400     		lsl	r4, r4, #2
 3446 1970 E419     		add	r4, r4, r7
 3447 1972 2368     		ldr	r3, [r4]
 3448 1974 DB00     		lsl	r3, r3, #3
 3449 1976 D218     		add	r2, r2, r3
 3450 1978 D421     		mov	r1, #212
 3451 197a 8900     		lsl	r1, r1, #2
 3452 197c C919     		add	r1, r1, r7
 3453 197e 0B68     		ldr	r3, [r1]
 3454 1980 4C68     		ldr	r4, [r1, #4]
 3455 1982 1360     		str	r3, [r2]
 3456 1984 5460     		str	r4, [r2, #4]
 333:../Sources/main.c **** 				if (area[i] <= grausaida)
 3457              		.loc 1 333 0
 3458 1986 93E0     		b	.L126
 3459              	.L355:
 3460              		.align	3
 3461              	.L354:
 3462 1988 00000000 		.word	0
 3463 198c 00405F40 		.word	1079984128
 3464 1990 00000000 		.word	0
 3465 1994 00002640 		.word	1076232192
 3466 1998 00000000 		.word	0
 3467 199c 00000000 		.word	0
 3468 19a0 00000000 		.word	0
 3469 19a4 00002440 		.word	1076101120
 3470 19a8 E1040000 		.word	1249
 3471 19ac 5F050000 		.word	1375
 3472 19b0 50FCFFFF 		.word	-944
 3473 19b4 DC050000 		.word	1500
 3474              	.L127:
 335:../Sources/main.c **** 			}
 336:../Sources/main.c **** 
 337:../Sources/main.c **** 			else if (servang >= 1375 && servang <= 1500) {
 3475              		.loc 1 337 0
 3476 19b8 D723     		mov	r3, #215
 3477 19ba 9B00     		lsl	r3, r3, #2
 3478 19bc DB19     		add	r3, r3, r7
 3479 19be 1A68     		ldr	r2, [r3]
 3480 19c0 B54B     		ldr	r3, .L356+32
 3481 19c2 9A42     		cmp	r2, r3
 3482 19c4 00DC     		bgt	.LCB3020
 3483 19c6 73E0     		b	.L126	@long jump
 3484              	.LCB3020:
 3485              		.loc 1 337 0 is_stmt 0
 3486 19c8 D724     		mov	r4, #215
 3487 19ca A400     		lsl	r4, r4, #2
 3488 19cc E419     		add	r4, r4, r7
 3489 19ce 2268     		ldr	r2, [r4]
 3490 19d0 B24B     		ldr	r3, .L356+36
 3491 19d2 9A42     		cmp	r2, r3
 3492 19d4 6CDC     		bgt	.L126
 338:../Sources/main.c **** 
 339:../Sources/main.c **** 				grausaida = ((float) (-servang / 125.0)) + (12.0); //reta c
 3493              		.loc 1 339 0 is_stmt 1
 3494 19d6 D721     		mov	r1, #215
 3495 19d8 8900     		lsl	r1, r1, #2
 3496 19da C919     		add	r1, r1, r7
 3497 19dc 0B68     		ldr	r3, [r1]
 3498 19de 5B42     		neg	r3, r3
 3499 19e0 181C     		mov	r0, r3
 3500 19e2 FFF7FEFF 		bl	__aeabi_i2d
 3501 19e6 031C     		mov	r3, r0
 3502 19e8 0C1C     		mov	r4, r1
 3503 19ea 181C     		mov	r0, r3
 3504 19ec 211C     		mov	r1, r4
 3505 19ee A34B     		ldr	r3, .L356+4
 3506 19f0 A14A     		ldr	r2, .L356
 3507 19f2 FFF7FEFF 		bl	__aeabi_ddiv
 3508 19f6 031C     		mov	r3, r0
 3509 19f8 0C1C     		mov	r4, r1
 3510 19fa 181C     		mov	r0, r3
 3511 19fc 211C     		mov	r1, r4
 3512 19fe FFF7FEFF 		bl	__aeabi_d2f
 3513 1a02 031C     		add	r3, r0, #0
 3514 1a04 181C     		add	r0, r3, #0
 3515 1a06 FFF7FEFF 		bl	__aeabi_f2d
 3516 1a0a 031C     		mov	r3, r0
 3517 1a0c 0C1C     		mov	r4, r1
 3518 1a0e 181C     		mov	r0, r3
 3519 1a10 211C     		mov	r1, r4
 3520 1a12 9B4A     		ldr	r2, .L356+8
 3521 1a14 9B4B     		ldr	r3, .L356+12
 3522 1a16 FFF7FEFF 		bl	__aeabi_dadd
 3523 1a1a 031C     		mov	r3, r0
 3524 1a1c 0C1C     		mov	r4, r1
 3525 1a1e D422     		mov	r2, #212
 3526 1a20 9200     		lsl	r2, r2, #2
 3527 1a22 D219     		add	r2, r2, r7
 3528 1a24 1360     		str	r3, [r2]
 3529 1a26 5460     		str	r4, [r2, #4]
 340:../Sources/main.c **** 				if (grausaida > ns)
 3530              		.loc 1 340 0
 3531 1a28 D423     		mov	r3, #212
 3532 1a2a 9B00     		lsl	r3, r3, #2
 3533 1a2c DB19     		add	r3, r3, r7
 3534 1a2e 1868     		ldr	r0, [r3]
 3535 1a30 5968     		ldr	r1, [r3, #4]
 3536 1a32 E024     		mov	r4, #224
 3537 1a34 A400     		lsl	r4, r4, #2
 3538 1a36 E419     		add	r4, r4, r7
 3539 1a38 2268     		ldr	r2, [r4]
 3540 1a3a 6368     		ldr	r3, [r4, #4]
 3541 1a3c FFF7FEFF 		bl	__aeabi_dcmpgt
 3542 1a40 031C     		mov	r3, r0
 3543 1a42 002B     		cmp	r3, #0
 3544 1a44 09D0     		beq	.L132
 3545              	.L284:
 341:../Sources/main.c **** 					grausaida = ns;
 3546              		.loc 1 341 0
 3547 1a46 E021     		mov	r1, #224
 3548 1a48 8900     		lsl	r1, r1, #2
 3549 1a4a C919     		add	r1, r1, r7
 3550 1a4c 0B68     		ldr	r3, [r1]
 3551 1a4e 4C68     		ldr	r4, [r1, #4]
 3552 1a50 D422     		mov	r2, #212
 3553 1a52 9200     		lsl	r2, r2, #2
 3554 1a54 D219     		add	r2, r2, r7
 3555 1a56 1360     		str	r3, [r2]
 3556 1a58 5460     		str	r4, [r2, #4]
 3557              	.L132:
 342:../Sources/main.c **** 				if (area[i] <= grausaida)
 3558              		.loc 1 342 0
 3559 1a5a 914B     		ldr	r3, .L356+40
 3560 1a5c EC24     		mov	r4, #236
 3561 1a5e A400     		lsl	r4, r4, #2
 3562 1a60 E419     		add	r4, r4, r7
 3563 1a62 E218     		add	r2, r4, r3
 3564 1a64 EB21     		mov	r1, #235
 3565 1a66 8900     		lsl	r1, r1, #2
 3566 1a68 C919     		add	r1, r1, r7
 3567 1a6a 0B68     		ldr	r3, [r1]
 3568 1a6c DB00     		lsl	r3, r3, #3
 3569 1a6e D318     		add	r3, r2, r3
 3570 1a70 5C68     		ldr	r4, [r3, #4]
 3571 1a72 1B68     		ldr	r3, [r3]
 3572 1a74 181C     		mov	r0, r3
 3573 1a76 211C     		mov	r1, r4
 3574 1a78 D424     		mov	r4, #212
 3575 1a7a A400     		lsl	r4, r4, #2
 3576 1a7c E419     		add	r4, r4, r7
 3577 1a7e 2268     		ldr	r2, [r4]
 3578 1a80 6368     		ldr	r3, [r4, #4]
 3579 1a82 FFF7FEFF 		bl	__aeabi_dcmple
 3580 1a86 031C     		mov	r3, r0
 3581 1a88 002B     		cmp	r3, #0
 3582 1a8a 11D0     		beq	.L126
 3583              	.L285:
 343:../Sources/main.c **** 					area[i] = grausaida;
 3584              		.loc 1 343 0
 3585 1a8c 844B     		ldr	r3, .L356+40
 3586 1a8e EC21     		mov	r1, #236
 3587 1a90 8900     		lsl	r1, r1, #2
 3588 1a92 C919     		add	r1, r1, r7
 3589 1a94 CA18     		add	r2, r1, r3
 3590 1a96 EB24     		mov	r4, #235
 3591 1a98 A400     		lsl	r4, r4, #2
 3592 1a9a E419     		add	r4, r4, r7
 3593 1a9c 2368     		ldr	r3, [r4]
 3594 1a9e DB00     		lsl	r3, r3, #3
 3595 1aa0 D218     		add	r2, r2, r3
 3596 1aa2 D421     		mov	r1, #212
 3597 1aa4 8900     		lsl	r1, r1, #2
 3598 1aa6 C919     		add	r1, r1, r7
 3599 1aa8 0B68     		ldr	r3, [r1]
 3600 1aaa 4C68     		ldr	r4, [r1, #4]
 3601 1aac 1360     		str	r3, [r2]
 3602 1aae 5460     		str	r4, [r2, #4]
 3603              	.L126:
 344:../Sources/main.c **** 			}
 345:../Sources/main.c **** 			servang = servang + 10;
 3604              		.loc 1 345 0
 3605 1ab0 D722     		mov	r2, #215
 3606 1ab2 9200     		lsl	r2, r2, #2
 3607 1ab4 D219     		add	r2, r2, r7
 3608 1ab6 1368     		ldr	r3, [r2]
 3609 1ab8 0A33     		add	r3, r3, #10
 3610 1aba D724     		mov	r4, #215
 3611 1abc A400     		lsl	r4, r4, #2
 3612 1abe E419     		add	r4, r4, r7
 3613 1ac0 2360     		str	r3, [r4]
 323:../Sources/main.c **** 		for (i = 0; i < 100; i++) {
 3614              		.loc 1 323 0
 3615 1ac2 EB21     		mov	r1, #235
 3616 1ac4 8900     		lsl	r1, r1, #2
 3617 1ac6 C919     		add	r1, r1, r7
 3618 1ac8 0B68     		ldr	r3, [r1]
 3619 1aca 0133     		add	r3, r3, #1
 3620 1acc EB22     		mov	r2, #235
 3621 1ace 9200     		lsl	r2, r2, #2
 3622 1ad0 D219     		add	r2, r2, r7
 3623 1ad2 1360     		str	r3, [r2]
 3624              	.L123:
 323:../Sources/main.c **** 		for (i = 0; i < 100; i++) {
 3625              		.loc 1 323 0 is_stmt 0
 3626 1ad4 EB24     		mov	r4, #235
 3627 1ad6 A400     		lsl	r4, r4, #2
 3628 1ad8 E419     		add	r4, r4, r7
 3629 1ada 2368     		ldr	r3, [r4]
 3630 1adc 632B     		cmp	r3, #99
 3631 1ade 00DC     		bgt	.LCB3150
 3632 1ae0 BFE6     		b	.L135	@long jump
 3633              	.LCB3150:
 346:../Sources/main.c **** 		}
 347:../Sources/main.c **** 		servang = 1000;
 3634              		.loc 1 347 0 is_stmt 1
 3635 1ae2 FA23     		mov	r3, #250
 3636 1ae4 9B00     		lsl	r3, r3, #2
 3637 1ae6 D721     		mov	r1, #215
 3638 1ae8 8900     		lsl	r1, r1, #2
 3639 1aea C919     		add	r1, r1, r7
 3640 1aec 0B60     		str	r3, [r1]
 348:../Sources/main.c **** //----------- F e M -----------
 349:../Sources/main.c **** 		if (graum < grauf) {
 3641              		.loc 1 349 0
 3642 1aee CA23     		mov	r3, #202
 3643 1af0 9B00     		lsl	r3, r3, #2
 3644 1af2 DB19     		add	r3, r3, r7
 3645 1af4 1A68     		ldr	r2, [r3]
 3646 1af6 C824     		mov	r4, #200
 3647 1af8 A400     		lsl	r4, r4, #2
 3648 1afa E419     		add	r4, r4, r7
 3649 1afc 2368     		ldr	r3, [r4]
 3650 1afe 101C     		add	r0, r2, #0
 3651 1b00 191C     		add	r1, r3, #0
 3652 1b02 FFF7FEFF 		bl	__aeabi_fcmplt
 3653 1b06 031C     		mov	r3, r0
 3654 1b08 002B     		cmp	r3, #0
 3655 1b0a 0ED0     		beq	.L330
 3656              	.L286:
 350:../Sources/main.c **** 			z = graum;
 3657              		.loc 1 350 0
 3658 1b0c CA21     		mov	r1, #202
 3659 1b0e 8900     		lsl	r1, r1, #2
 3660 1b10 C919     		add	r1, r1, r7
 3661 1b12 0B68     		ldr	r3, [r1]
 3662 1b14 181C     		add	r0, r3, #0
 3663 1b16 FFF7FEFF 		bl	__aeabi_f2d
 3664 1b1a 031C     		mov	r3, r0
 3665 1b1c 0C1C     		mov	r4, r1
 3666 1b1e DC22     		mov	r2, #220
 3667 1b20 9200     		lsl	r2, r2, #2
 3668 1b22 D219     		add	r2, r2, r7
 3669 1b24 1360     		str	r3, [r2]
 3670 1b26 5460     		str	r4, [r2, #4]
 3671 1b28 0DE0     		b	.L138
 3672              	.L330:
 351:../Sources/main.c **** 		} else
 352:../Sources/main.c **** 			z = grauf;
 3673              		.loc 1 352 0
 3674 1b2a C824     		mov	r4, #200
 3675 1b2c A400     		lsl	r4, r4, #2
 3676 1b2e E419     		add	r4, r4, r7
 3677 1b30 2368     		ldr	r3, [r4]
 3678 1b32 181C     		add	r0, r3, #0
 3679 1b34 FFF7FEFF 		bl	__aeabi_f2d
 3680 1b38 031C     		mov	r3, r0
 3681 1b3a 0C1C     		mov	r4, r1
 3682 1b3c DC21     		mov	r1, #220
 3683 1b3e 8900     		lsl	r1, r1, #2
 3684 1b40 C919     		add	r1, r1, r7
 3685 1b42 0B60     		str	r3, [r1]
 3686 1b44 4C60     		str	r4, [r1, #4]
 3687              	.L138:
 353:../Sources/main.c **** 
 354:../Sources/main.c **** 		for (i = 0; i < 100; i++) {
 3688              		.loc 1 354 0
 3689 1b46 0023     		mov	r3, #0
 3690 1b48 EB22     		mov	r2, #235
 3691 1b4a 9200     		lsl	r2, r2, #2
 3692 1b4c D219     		add	r2, r2, r7
 3693 1b4e 1360     		str	r3, [r2]
 3694 1b50 38E1     		b	.L139
 3695              	.L151:
 355:../Sources/main.c **** 			if (servang < 1375 || servang > 1625) {
 3696              		.loc 1 355 0
 3697 1b52 D723     		mov	r3, #215
 3698 1b54 9B00     		lsl	r3, r3, #2
 3699 1b56 DB19     		add	r3, r3, r7
 3700 1b58 1A68     		ldr	r2, [r3]
 3701 1b5a 4F4B     		ldr	r3, .L356+32
 3702 1b5c 9A42     		cmp	r2, r3
 3703 1b5e 06DD     		ble	.L140
 3704              		.loc 1 355 0 is_stmt 0
 3705 1b60 D724     		mov	r4, #215
 3706 1b62 A400     		lsl	r4, r4, #2
 3707 1b64 E419     		add	r4, r4, r7
 3708 1b66 2268     		ldr	r2, [r4]
 3709 1b68 4E4B     		ldr	r3, .L356+44
 3710 1b6a 9A42     		cmp	r2, r3
 3711 1b6c 07DD     		ble	.L141
 3712              	.L140:
 356:../Sources/main.c **** 				grausaida = 0;
 3713              		.loc 1 356 0 is_stmt 1
 3714 1b6e 464B     		ldr	r3, .L356+16
 3715 1b70 464C     		ldr	r4, .L356+20
 3716 1b72 D421     		mov	r1, #212
 3717 1b74 8900     		lsl	r1, r1, #2
 3718 1b76 C919     		add	r1, r1, r7
 3719 1b78 0B60     		str	r3, [r1]
 3720 1b7a 4C60     		str	r4, [r1, #4]
 3721 1b7c 10E1     		b	.L142
 3722              	.L141:
 357:../Sources/main.c **** 				//if(area[i]<=grausaida) area[i]=grausaida;
 358:../Sources/main.c **** 
 359:../Sources/main.c **** 			} else if (servang >= 1375 && servang <= 1500) {
 3723              		.loc 1 359 0
 3724 1b7e D723     		mov	r3, #215
 3725 1b80 9B00     		lsl	r3, r3, #2
 3726 1b82 DB19     		add	r3, r3, r7
 3727 1b84 1A68     		ldr	r2, [r3]
 3728 1b86 444B     		ldr	r3, .L356+32
 3729 1b88 9A42     		cmp	r2, r3
 3730 1b8a 00DC     		bgt	.LCB3241
 3731 1b8c 8CE0     		b	.L143	@long jump
 3732              	.LCB3241:
 3733              		.loc 1 359 0 is_stmt 0
 3734 1b8e D724     		mov	r4, #215
 3735 1b90 A400     		lsl	r4, r4, #2
 3736 1b92 E419     		add	r4, r4, r7
 3737 1b94 2268     		ldr	r2, [r4]
 3738 1b96 414B     		ldr	r3, .L356+36
 3739 1b98 9A42     		cmp	r2, r3
 3740 1b9a 00DD     		ble	.LCB3248
 3741 1b9c 84E0     		b	.L143	@long jump
 3742              	.LCB3248:
 360:../Sources/main.c **** 
 361:../Sources/main.c **** 				grausaida = ((float) (servang / 125.0)) - (11.0); // reta d
 3743              		.loc 1 361 0 is_stmt 1
 3744 1b9e D721     		mov	r1, #215
 3745 1ba0 8900     		lsl	r1, r1, #2
 3746 1ba2 C919     		add	r1, r1, r7
 3747 1ba4 0868     		ldr	r0, [r1]
 3748 1ba6 FFF7FEFF 		bl	__aeabi_i2d
 3749 1baa 031C     		mov	r3, r0
 3750 1bac 0C1C     		mov	r4, r1
 3751 1bae 181C     		mov	r0, r3
 3752 1bb0 211C     		mov	r1, r4
 3753 1bb2 324B     		ldr	r3, .L356+4
 3754 1bb4 304A     		ldr	r2, .L356
 3755 1bb6 FFF7FEFF 		bl	__aeabi_ddiv
 3756 1bba 031C     		mov	r3, r0
 3757 1bbc 0C1C     		mov	r4, r1
 3758 1bbe 181C     		mov	r0, r3
 3759 1bc0 211C     		mov	r1, r4
 3760 1bc2 FFF7FEFF 		bl	__aeabi_d2f
 3761 1bc6 031C     		add	r3, r0, #0
 3762 1bc8 181C     		add	r0, r3, #0
 3763 1bca FFF7FEFF 		bl	__aeabi_f2d
 3764 1bce 031C     		mov	r3, r0
 3765 1bd0 0C1C     		mov	r4, r1
 3766 1bd2 181C     		mov	r0, r3
 3767 1bd4 211C     		mov	r1, r4
 3768 1bd6 2E4A     		ldr	r2, .L356+24
 3769 1bd8 2E4B     		ldr	r3, .L356+28
 3770 1bda FFF7FEFF 		bl	__aeabi_dsub
 3771 1bde 031C     		mov	r3, r0
 3772 1be0 0C1C     		mov	r4, r1
 3773 1be2 D422     		mov	r2, #212
 3774 1be4 9200     		lsl	r2, r2, #2
 3775 1be6 D219     		add	r2, r2, r7
 3776 1be8 1360     		str	r3, [r2]
 3777 1bea 5460     		str	r4, [r2, #4]
 362:../Sources/main.c **** 				if (grausaida > z)
 3778              		.loc 1 362 0
 3779 1bec D423     		mov	r3, #212
 3780 1bee 9B00     		lsl	r3, r3, #2
 3781 1bf0 DB19     		add	r3, r3, r7
 3782 1bf2 1868     		ldr	r0, [r3]
 3783 1bf4 5968     		ldr	r1, [r3, #4]
 3784 1bf6 DC24     		mov	r4, #220
 3785 1bf8 A400     		lsl	r4, r4, #2
 3786 1bfa E419     		add	r4, r4, r7
 3787 1bfc 2268     		ldr	r2, [r4]
 3788 1bfe 6368     		ldr	r3, [r4, #4]
 3789 1c00 FFF7FEFF 		bl	__aeabi_dcmpgt
 3790 1c04 031C     		mov	r3, r0
 3791 1c06 002B     		cmp	r3, #0
 3792 1c08 09D0     		beq	.L144
 3793              	.L287:
 363:../Sources/main.c **** 					grausaida = z;
 3794              		.loc 1 363 0
 3795 1c0a DC21     		mov	r1, #220
 3796 1c0c 8900     		lsl	r1, r1, #2
 3797 1c0e C919     		add	r1, r1, r7
 3798 1c10 0B68     		ldr	r3, [r1]
 3799 1c12 4C68     		ldr	r4, [r1, #4]
 3800 1c14 D422     		mov	r2, #212
 3801 1c16 9200     		lsl	r2, r2, #2
 3802 1c18 D219     		add	r2, r2, r7
 3803 1c1a 1360     		str	r3, [r2]
 3804 1c1c 5460     		str	r4, [r2, #4]
 3805              	.L144:
 364:../Sources/main.c **** 				if (area[i] <= grausaida)
 3806              		.loc 1 364 0
 3807 1c1e 204B     		ldr	r3, .L356+40
 3808 1c20 EC24     		mov	r4, #236
 3809 1c22 A400     		lsl	r4, r4, #2
 3810 1c24 E419     		add	r4, r4, r7
 3811 1c26 E218     		add	r2, r4, r3
 3812 1c28 EB21     		mov	r1, #235
 3813 1c2a 8900     		lsl	r1, r1, #2
 3814 1c2c C919     		add	r1, r1, r7
 3815 1c2e 0B68     		ldr	r3, [r1]
 3816 1c30 DB00     		lsl	r3, r3, #3
 3817 1c32 D318     		add	r3, r2, r3
 3818 1c34 5C68     		ldr	r4, [r3, #4]
 3819 1c36 1B68     		ldr	r3, [r3]
 3820 1c38 181C     		mov	r0, r3
 3821 1c3a 211C     		mov	r1, r4
 3822 1c3c D424     		mov	r4, #212
 3823 1c3e A400     		lsl	r4, r4, #2
 3824 1c40 E419     		add	r4, r4, r7
 3825 1c42 2268     		ldr	r2, [r4]
 3826 1c44 6368     		ldr	r3, [r4, #4]
 3827 1c46 FFF7FEFF 		bl	__aeabi_dcmple
 3828 1c4a 031C     		mov	r3, r0
 3829 1c4c 002B     		cmp	r3, #0
 3830 1c4e 00D1     		bne	.LCB3324
 3831 1c50 A6E0     		b	.L142	@long jump
 3832              	.LCB3324:
 3833              	.L288:
 365:../Sources/main.c **** 					area[i] = grausaida;
 3834              		.loc 1 365 0
 3835 1c52 134B     		ldr	r3, .L356+40
 3836 1c54 EC21     		mov	r1, #236
 3837 1c56 8900     		lsl	r1, r1, #2
 3838 1c58 C919     		add	r1, r1, r7
 3839 1c5a CA18     		add	r2, r1, r3
 3840 1c5c EB24     		mov	r4, #235
 3841 1c5e A400     		lsl	r4, r4, #2
 3842 1c60 E419     		add	r4, r4, r7
 3843 1c62 2368     		ldr	r3, [r4]
 3844 1c64 DB00     		lsl	r3, r3, #3
 3845 1c66 D218     		add	r2, r2, r3
 3846 1c68 D421     		mov	r1, #212
 3847 1c6a 8900     		lsl	r1, r1, #2
 3848 1c6c C919     		add	r1, r1, r7
 3849 1c6e 0B68     		ldr	r3, [r1]
 3850 1c70 4C68     		ldr	r4, [r1, #4]
 3851 1c72 1360     		str	r3, [r2]
 3852 1c74 5460     		str	r4, [r2, #4]
 364:../Sources/main.c **** 				if (area[i] <= grausaida)
 3853              		.loc 1 364 0
 3854 1c76 93E0     		b	.L142
 3855              	.L357:
 3856              		.align	3
 3857              	.L356:
 3858 1c78 00000000 		.word	0
 3859 1c7c 00405F40 		.word	1079984128
 3860 1c80 00000000 		.word	0
 3861 1c84 00002840 		.word	1076363264
 3862 1c88 00000000 		.word	0
 3863 1c8c 00000000 		.word	0
 3864 1c90 00000000 		.word	0
 3865 1c94 00002640 		.word	1076232192
 3866 1c98 5E050000 		.word	1374
 3867 1c9c DC050000 		.word	1500
 3868 1ca0 50FCFFFF 		.word	-944
 3869 1ca4 59060000 		.word	1625
 3870              	.L143:
 366:../Sources/main.c **** 			}
 367:../Sources/main.c **** 
 368:../Sources/main.c **** 			else if (servang >= 1500 && servang <= 1625) {
 3871              		.loc 1 368 0
 3872 1ca8 D723     		mov	r3, #215
 3873 1caa 9B00     		lsl	r3, r3, #2
 3874 1cac DB19     		add	r3, r3, r7
 3875 1cae 1A68     		ldr	r2, [r3]
 3876 1cb0 B74B     		ldr	r3, .L358+32
 3877 1cb2 9A42     		cmp	r2, r3
 3878 1cb4 00DC     		bgt	.LCB3365
 3879 1cb6 73E0     		b	.L142	@long jump
 3880              	.LCB3365:
 3881              		.loc 1 368 0 is_stmt 0
 3882 1cb8 D724     		mov	r4, #215
 3883 1cba A400     		lsl	r4, r4, #2
 3884 1cbc E419     		add	r4, r4, r7
 3885 1cbe 2268     		ldr	r2, [r4]
 3886 1cc0 B44B     		ldr	r3, .L358+36
 3887 1cc2 9A42     		cmp	r2, r3
 3888 1cc4 6CDC     		bgt	.L142
 369:../Sources/main.c **** 
 370:../Sources/main.c **** 				grausaida = ((float) (-servang / 125.0)) + (13.0); //reta e
 3889              		.loc 1 370 0 is_stmt 1
 3890 1cc6 D721     		mov	r1, #215
 3891 1cc8 8900     		lsl	r1, r1, #2
 3892 1cca C919     		add	r1, r1, r7
 3893 1ccc 0B68     		ldr	r3, [r1]
 3894 1cce 5B42     		neg	r3, r3
 3895 1cd0 181C     		mov	r0, r3
 3896 1cd2 FFF7FEFF 		bl	__aeabi_i2d
 3897 1cd6 031C     		mov	r3, r0
 3898 1cd8 0C1C     		mov	r4, r1
 3899 1cda 181C     		mov	r0, r3
 3900 1cdc 211C     		mov	r1, r4
 3901 1cde A54B     		ldr	r3, .L358+4
 3902 1ce0 A34A     		ldr	r2, .L358
 3903 1ce2 FFF7FEFF 		bl	__aeabi_ddiv
 3904 1ce6 031C     		mov	r3, r0
 3905 1ce8 0C1C     		mov	r4, r1
 3906 1cea 181C     		mov	r0, r3
 3907 1cec 211C     		mov	r1, r4
 3908 1cee FFF7FEFF 		bl	__aeabi_d2f
 3909 1cf2 031C     		add	r3, r0, #0
 3910 1cf4 181C     		add	r0, r3, #0
 3911 1cf6 FFF7FEFF 		bl	__aeabi_f2d
 3912 1cfa 031C     		mov	r3, r0
 3913 1cfc 0C1C     		mov	r4, r1
 3914 1cfe 181C     		mov	r0, r3
 3915 1d00 211C     		mov	r1, r4
 3916 1d02 9D4A     		ldr	r2, .L358+8
 3917 1d04 9D4B     		ldr	r3, .L358+12
 3918 1d06 FFF7FEFF 		bl	__aeabi_dadd
 3919 1d0a 031C     		mov	r3, r0
 3920 1d0c 0C1C     		mov	r4, r1
 3921 1d0e D422     		mov	r2, #212
 3922 1d10 9200     		lsl	r2, r2, #2
 3923 1d12 D219     		add	r2, r2, r7
 3924 1d14 1360     		str	r3, [r2]
 3925 1d16 5460     		str	r4, [r2, #4]
 371:../Sources/main.c **** 				if (grausaida > z)
 3926              		.loc 1 371 0
 3927 1d18 D423     		mov	r3, #212
 3928 1d1a 9B00     		lsl	r3, r3, #2
 3929 1d1c DB19     		add	r3, r3, r7
 3930 1d1e 1868     		ldr	r0, [r3]
 3931 1d20 5968     		ldr	r1, [r3, #4]
 3932 1d22 DC24     		mov	r4, #220
 3933 1d24 A400     		lsl	r4, r4, #2
 3934 1d26 E419     		add	r4, r4, r7
 3935 1d28 2268     		ldr	r2, [r4]
 3936 1d2a 6368     		ldr	r3, [r4, #4]
 3937 1d2c FFF7FEFF 		bl	__aeabi_dcmpgt
 3938 1d30 031C     		mov	r3, r0
 3939 1d32 002B     		cmp	r3, #0
 3940 1d34 09D0     		beq	.L148
 3941              	.L289:
 372:../Sources/main.c **** 					grausaida = z;
 3942              		.loc 1 372 0
 3943 1d36 DC21     		mov	r1, #220
 3944 1d38 8900     		lsl	r1, r1, #2
 3945 1d3a C919     		add	r1, r1, r7
 3946 1d3c 0B68     		ldr	r3, [r1]
 3947 1d3e 4C68     		ldr	r4, [r1, #4]
 3948 1d40 D422     		mov	r2, #212
 3949 1d42 9200     		lsl	r2, r2, #2
 3950 1d44 D219     		add	r2, r2, r7
 3951 1d46 1360     		str	r3, [r2]
 3952 1d48 5460     		str	r4, [r2, #4]
 3953              	.L148:
 373:../Sources/main.c **** 				if (area[i] <= grausaida)
 3954              		.loc 1 373 0
 3955 1d4a 934B     		ldr	r3, .L358+40
 3956 1d4c EC24     		mov	r4, #236
 3957 1d4e A400     		lsl	r4, r4, #2
 3958 1d50 E419     		add	r4, r4, r7
 3959 1d52 E218     		add	r2, r4, r3
 3960 1d54 EB21     		mov	r1, #235
 3961 1d56 8900     		lsl	r1, r1, #2
 3962 1d58 C919     		add	r1, r1, r7
 3963 1d5a 0B68     		ldr	r3, [r1]
 3964 1d5c DB00     		lsl	r3, r3, #3
 3965 1d5e D318     		add	r3, r2, r3
 3966 1d60 5C68     		ldr	r4, [r3, #4]
 3967 1d62 1B68     		ldr	r3, [r3]
 3968 1d64 181C     		mov	r0, r3
 3969 1d66 211C     		mov	r1, r4
 3970 1d68 D424     		mov	r4, #212
 3971 1d6a A400     		lsl	r4, r4, #2
 3972 1d6c E419     		add	r4, r4, r7
 3973 1d6e 2268     		ldr	r2, [r4]
 3974 1d70 6368     		ldr	r3, [r4, #4]
 3975 1d72 FFF7FEFF 		bl	__aeabi_dcmple
 3976 1d76 031C     		mov	r3, r0
 3977 1d78 002B     		cmp	r3, #0
 3978 1d7a 11D0     		beq	.L142
 3979              	.L290:
 374:../Sources/main.c **** 					area[i] = grausaida;
 3980              		.loc 1 374 0
 3981 1d7c 864B     		ldr	r3, .L358+40
 3982 1d7e EC21     		mov	r1, #236
 3983 1d80 8900     		lsl	r1, r1, #2
 3984 1d82 C919     		add	r1, r1, r7
 3985 1d84 CA18     		add	r2, r1, r3
 3986 1d86 EB24     		mov	r4, #235
 3987 1d88 A400     		lsl	r4, r4, #2
 3988 1d8a E419     		add	r4, r4, r7
 3989 1d8c 2368     		ldr	r3, [r4]
 3990 1d8e DB00     		lsl	r3, r3, #3
 3991 1d90 D218     		add	r2, r2, r3
 3992 1d92 D421     		mov	r1, #212
 3993 1d94 8900     		lsl	r1, r1, #2
 3994 1d96 C919     		add	r1, r1, r7
 3995 1d98 0B68     		ldr	r3, [r1]
 3996 1d9a 4C68     		ldr	r4, [r1, #4]
 3997 1d9c 1360     		str	r3, [r2]
 3998 1d9e 5460     		str	r4, [r2, #4]
 3999              	.L142:
 375:../Sources/main.c **** 			}
 376:../Sources/main.c **** 			servang = servang + 10;
 4000              		.loc 1 376 0
 4001 1da0 D722     		mov	r2, #215
 4002 1da2 9200     		lsl	r2, r2, #2
 4003 1da4 D219     		add	r2, r2, r7
 4004 1da6 1368     		ldr	r3, [r2]
 4005 1da8 0A33     		add	r3, r3, #10
 4006 1daa D724     		mov	r4, #215
 4007 1dac A400     		lsl	r4, r4, #2
 4008 1dae E419     		add	r4, r4, r7
 4009 1db0 2360     		str	r3, [r4]
 354:../Sources/main.c **** 		for (i = 0; i < 100; i++) {
 4010              		.loc 1 354 0
 4011 1db2 EB21     		mov	r1, #235
 4012 1db4 8900     		lsl	r1, r1, #2
 4013 1db6 C919     		add	r1, r1, r7
 4014 1db8 0B68     		ldr	r3, [r1]
 4015 1dba 0133     		add	r3, r3, #1
 4016 1dbc EB22     		mov	r2, #235
 4017 1dbe 9200     		lsl	r2, r2, #2
 4018 1dc0 D219     		add	r2, r2, r7
 4019 1dc2 1360     		str	r3, [r2]
 4020              	.L139:
 354:../Sources/main.c **** 		for (i = 0; i < 100; i++) {
 4021              		.loc 1 354 0 is_stmt 0
 4022 1dc4 EB24     		mov	r4, #235
 4023 1dc6 A400     		lsl	r4, r4, #2
 4024 1dc8 E419     		add	r4, r4, r7
 4025 1dca 2368     		ldr	r3, [r4]
 4026 1dcc 632B     		cmp	r3, #99
 4027 1dce 00DC     		bgt	.LCB3495
 4028 1dd0 BFE6     		b	.L151	@long jump
 4029              	.LCB3495:
 377:../Sources/main.c **** 		}
 378:../Sources/main.c **** 		servang = 1000;
 4030              		.loc 1 378 0 is_stmt 1
 4031 1dd2 FA23     		mov	r3, #250
 4032 1dd4 9B00     		lsl	r3, r3, #2
 4033 1dd6 D721     		mov	r1, #215
 4034 1dd8 8900     		lsl	r1, r1, #2
 4035 1dda C919     		add	r1, r1, r7
 4036 1ddc 0B60     		str	r3, [r1]
 379:../Sources/main.c **** //---------- F e R ---------
 380:../Sources/main.c **** 		if (graur < grauf) {
 4037              		.loc 1 380 0
 4038 1dde C822     		mov	r2, #200
 4039 1de0 9200     		lsl	r2, r2, #2
 4040 1de2 D219     		add	r2, r2, r7
 4041 1de4 1368     		ldr	r3, [r2]
 4042 1de6 181C     		add	r0, r3, #0
 4043 1de8 FFF7FEFF 		bl	__aeabi_f2d
 4044 1dec 031C     		mov	r3, r0
 4045 1dee 0C1C     		mov	r4, r1
 4046 1df0 181C     		mov	r0, r3
 4047 1df2 211C     		mov	r1, r4
 4048 1df4 E624     		mov	r4, #230
 4049 1df6 A400     		lsl	r4, r4, #2
 4050 1df8 E419     		add	r4, r4, r7
 4051 1dfa 2268     		ldr	r2, [r4]
 4052 1dfc 6368     		ldr	r3, [r4, #4]
 4053 1dfe FFF7FEFF 		bl	__aeabi_dcmpgt
 4054 1e02 031C     		mov	r3, r0
 4055 1e04 002B     		cmp	r3, #0
 4056 1e06 0AD0     		beq	.L331
 4057              	.L291:
 381:../Sources/main.c **** 			ps = graur;
 4058              		.loc 1 381 0
 4059 1e08 E621     		mov	r1, #230
 4060 1e0a 8900     		lsl	r1, r1, #2
 4061 1e0c C919     		add	r1, r1, r7
 4062 1e0e 0B68     		ldr	r3, [r1]
 4063 1e10 4C68     		ldr	r4, [r1, #4]
 4064 1e12 DA22     		mov	r2, #218
 4065 1e14 9200     		lsl	r2, r2, #2
 4066 1e16 D219     		add	r2, r2, r7
 4067 1e18 1360     		str	r3, [r2]
 4068 1e1a 5460     		str	r4, [r2, #4]
 4069 1e1c 0DE0     		b	.L154
 4070              	.L331:
 382:../Sources/main.c **** 		} else
 383:../Sources/main.c **** 			ps = grauf;
 4071              		.loc 1 383 0
 4072 1e1e C824     		mov	r4, #200
 4073 1e20 A400     		lsl	r4, r4, #2
 4074 1e22 E419     		add	r4, r4, r7
 4075 1e24 2368     		ldr	r3, [r4]
 4076 1e26 181C     		add	r0, r3, #0
 4077 1e28 FFF7FEFF 		bl	__aeabi_f2d
 4078 1e2c 031C     		mov	r3, r0
 4079 1e2e 0C1C     		mov	r4, r1
 4080 1e30 DA21     		mov	r1, #218
 4081 1e32 8900     		lsl	r1, r1, #2
 4082 1e34 C919     		add	r1, r1, r7
 4083 1e36 0B60     		str	r3, [r1]
 4084 1e38 4C60     		str	r4, [r1, #4]
 4085              	.L154:
 384:../Sources/main.c **** 		for (i = 0; i < 100; i++) {
 4086              		.loc 1 384 0
 4087 1e3a 0023     		mov	r3, #0
 4088 1e3c EB22     		mov	r2, #235
 4089 1e3e 9200     		lsl	r2, r2, #2
 4090 1e40 D219     		add	r2, r2, r7
 4091 1e42 1360     		str	r3, [r2]
 4092 1e44 3BE1     		b	.L155
 4093              	.L167:
 385:../Sources/main.c **** 			if (servang < 1500 || servang > 1750) {
 4094              		.loc 1 385 0
 4095 1e46 D723     		mov	r3, #215
 4096 1e48 9B00     		lsl	r3, r3, #2
 4097 1e4a DB19     		add	r3, r3, r7
 4098 1e4c 1A68     		ldr	r2, [r3]
 4099 1e4e 504B     		ldr	r3, .L358+32
 4100 1e50 9A42     		cmp	r2, r3
 4101 1e52 06DD     		ble	.L156
 4102              		.loc 1 385 0 is_stmt 0
 4103 1e54 D724     		mov	r4, #215
 4104 1e56 A400     		lsl	r4, r4, #2
 4105 1e58 E419     		add	r4, r4, r7
 4106 1e5a 2268     		ldr	r2, [r4]
 4107 1e5c 4F4B     		ldr	r3, .L358+44
 4108 1e5e 9A42     		cmp	r2, r3
 4109 1e60 07DD     		ble	.L157
 4110              	.L156:
 386:../Sources/main.c **** 				grausaida = 0;
 4111              		.loc 1 386 0 is_stmt 1
 4112 1e62 474B     		ldr	r3, .L358+16
 4113 1e64 474C     		ldr	r4, .L358+20
 4114 1e66 D421     		mov	r1, #212
 4115 1e68 8900     		lsl	r1, r1, #2
 4116 1e6a C919     		add	r1, r1, r7
 4117 1e6c 0B60     		str	r3, [r1]
 4118 1e6e 4C60     		str	r4, [r1, #4]
 4119 1e70 13E1     		b	.L158
 4120              	.L157:
 387:../Sources/main.c **** 				//if(area[i]<=grausaida) area[i]=grausaida;
 388:../Sources/main.c **** 
 389:../Sources/main.c **** 			} else if (servang >= 1500 && servang <= 1625) {
 4121              		.loc 1 389 0
 4122 1e72 D723     		mov	r3, #215
 4123 1e74 9B00     		lsl	r3, r3, #2
 4124 1e76 DB19     		add	r3, r3, r7
 4125 1e78 1A68     		ldr	r2, [r3]
 4126 1e7a 454B     		ldr	r3, .L358+32
 4127 1e7c 9A42     		cmp	r2, r3
 4128 1e7e 00DC     		bgt	.LCB3586
 4129 1e80 8EE0     		b	.L159	@long jump
 4130              	.LCB3586:
 4131              		.loc 1 389 0 is_stmt 0
 4132 1e82 D724     		mov	r4, #215
 4133 1e84 A400     		lsl	r4, r4, #2
 4134 1e86 E419     		add	r4, r4, r7
 4135 1e88 2268     		ldr	r2, [r4]
 4136 1e8a 424B     		ldr	r3, .L358+36
 4137 1e8c 9A42     		cmp	r2, r3
 4138 1e8e 00DD     		ble	.LCB3593
 4139 1e90 86E0     		b	.L159	@long jump
 4140              	.LCB3593:
 390:../Sources/main.c **** 
 391:../Sources/main.c **** 				grausaida = ((float) (servang / 125.0)) - (12.0); // reta f
 4141              		.loc 1 391 0 is_stmt 1
 4142 1e92 D721     		mov	r1, #215
 4143 1e94 8900     		lsl	r1, r1, #2
 4144 1e96 C919     		add	r1, r1, r7
 4145 1e98 0868     		ldr	r0, [r1]
 4146 1e9a FFF7FEFF 		bl	__aeabi_i2d
 4147 1e9e 031C     		mov	r3, r0
 4148 1ea0 0C1C     		mov	r4, r1
 4149 1ea2 181C     		mov	r0, r3
 4150 1ea4 211C     		mov	r1, r4
 4151 1ea6 334B     		ldr	r3, .L358+4
 4152 1ea8 314A     		ldr	r2, .L358
 4153 1eaa FFF7FEFF 		bl	__aeabi_ddiv
 4154 1eae 031C     		mov	r3, r0
 4155 1eb0 0C1C     		mov	r4, r1
 4156 1eb2 181C     		mov	r0, r3
 4157 1eb4 211C     		mov	r1, r4
 4158 1eb6 FFF7FEFF 		bl	__aeabi_d2f
 4159 1eba 031C     		add	r3, r0, #0
 4160 1ebc 181C     		add	r0, r3, #0
 4161 1ebe FFF7FEFF 		bl	__aeabi_f2d
 4162 1ec2 031C     		mov	r3, r0
 4163 1ec4 0C1C     		mov	r4, r1
 4164 1ec6 181C     		mov	r0, r3
 4165 1ec8 211C     		mov	r1, r4
 4166 1eca 2F4A     		ldr	r2, .L358+24
 4167 1ecc 2F4B     		ldr	r3, .L358+28
 4168 1ece FFF7FEFF 		bl	__aeabi_dsub
 4169 1ed2 031C     		mov	r3, r0
 4170 1ed4 0C1C     		mov	r4, r1
 4171 1ed6 D422     		mov	r2, #212
 4172 1ed8 9200     		lsl	r2, r2, #2
 4173 1eda D219     		add	r2, r2, r7
 4174 1edc 1360     		str	r3, [r2]
 4175 1ede 5460     		str	r4, [r2, #4]
 392:../Sources/main.c **** 				if (grausaida > ps)
 4176              		.loc 1 392 0
 4177 1ee0 D423     		mov	r3, #212
 4178 1ee2 9B00     		lsl	r3, r3, #2
 4179 1ee4 DB19     		add	r3, r3, r7
 4180 1ee6 1868     		ldr	r0, [r3]
 4181 1ee8 5968     		ldr	r1, [r3, #4]
 4182 1eea DA24     		mov	r4, #218
 4183 1eec A400     		lsl	r4, r4, #2
 4184 1eee E419     		add	r4, r4, r7
 4185 1ef0 2268     		ldr	r2, [r4]
 4186 1ef2 6368     		ldr	r3, [r4, #4]
 4187 1ef4 FFF7FEFF 		bl	__aeabi_dcmpgt
 4188 1ef8 031C     		mov	r3, r0
 4189 1efa 002B     		cmp	r3, #0
 4190 1efc 09D0     		beq	.L160
 4191              	.L292:
 393:../Sources/main.c **** 					grausaida = ps;
 4192              		.loc 1 393 0
 4193 1efe DA21     		mov	r1, #218
 4194 1f00 8900     		lsl	r1, r1, #2
 4195 1f02 C919     		add	r1, r1, r7
 4196 1f04 0B68     		ldr	r3, [r1]
 4197 1f06 4C68     		ldr	r4, [r1, #4]
 4198 1f08 D422     		mov	r2, #212
 4199 1f0a 9200     		lsl	r2, r2, #2
 4200 1f0c D219     		add	r2, r2, r7
 4201 1f0e 1360     		str	r3, [r2]
 4202 1f10 5460     		str	r4, [r2, #4]
 4203              	.L160:
 394:../Sources/main.c **** 				if (area[i] <= grausaida)
 4204              		.loc 1 394 0
 4205 1f12 214B     		ldr	r3, .L358+40
 4206 1f14 EC24     		mov	r4, #236
 4207 1f16 A400     		lsl	r4, r4, #2
 4208 1f18 E419     		add	r4, r4, r7
 4209 1f1a E218     		add	r2, r4, r3
 4210 1f1c EB21     		mov	r1, #235
 4211 1f1e 8900     		lsl	r1, r1, #2
 4212 1f20 C919     		add	r1, r1, r7
 4213 1f22 0B68     		ldr	r3, [r1]
 4214 1f24 DB00     		lsl	r3, r3, #3
 4215 1f26 D318     		add	r3, r2, r3
 4216 1f28 5C68     		ldr	r4, [r3, #4]
 4217 1f2a 1B68     		ldr	r3, [r3]
 4218 1f2c 181C     		mov	r0, r3
 4219 1f2e 211C     		mov	r1, r4
 4220 1f30 D424     		mov	r4, #212
 4221 1f32 A400     		lsl	r4, r4, #2
 4222 1f34 E419     		add	r4, r4, r7
 4223 1f36 2268     		ldr	r2, [r4]
 4224 1f38 6368     		ldr	r3, [r4, #4]
 4225 1f3a FFF7FEFF 		bl	__aeabi_dcmple
 4226 1f3e 031C     		mov	r3, r0
 4227 1f40 002B     		cmp	r3, #0
 4228 1f42 00D1     		bne	.LCB3669
 4229 1f44 A9E0     		b	.L158	@long jump
 4230              	.LCB3669:
 4231              	.L293:
 395:../Sources/main.c **** 					area[i] = grausaida;
 4232              		.loc 1 395 0
 4233 1f46 144B     		ldr	r3, .L358+40
 4234 1f48 EC21     		mov	r1, #236
 4235 1f4a 8900     		lsl	r1, r1, #2
 4236 1f4c C919     		add	r1, r1, r7
 4237 1f4e CA18     		add	r2, r1, r3
 4238 1f50 EB24     		mov	r4, #235
 4239 1f52 A400     		lsl	r4, r4, #2
 4240 1f54 E419     		add	r4, r4, r7
 4241 1f56 2368     		ldr	r3, [r4]
 4242 1f58 DB00     		lsl	r3, r3, #3
 4243 1f5a D218     		add	r2, r2, r3
 4244 1f5c D421     		mov	r1, #212
 4245 1f5e 8900     		lsl	r1, r1, #2
 4246 1f60 C919     		add	r1, r1, r7
 4247 1f62 0B68     		ldr	r3, [r1]
 4248 1f64 4C68     		ldr	r4, [r1, #4]
 4249 1f66 1360     		str	r3, [r2]
 4250 1f68 5460     		str	r4, [r2, #4]
 394:../Sources/main.c **** 				if (area[i] <= grausaida)
 4251              		.loc 1 394 0
 4252 1f6a 96E0     		b	.L158
 4253              	.L359:
 4254 1f6c C046C046 		.align	3
 4255              	.L358:
 4256 1f70 00000000 		.word	0
 4257 1f74 00405F40 		.word	1079984128
 4258 1f78 00000000 		.word	0
 4259 1f7c 00002A40 		.word	1076494336
 4260 1f80 00000000 		.word	0
 4261 1f84 00000000 		.word	0
 4262 1f88 00000000 		.word	0
 4263 1f8c 00002840 		.word	1076363264
 4264 1f90 DB050000 		.word	1499
 4265 1f94 59060000 		.word	1625
 4266 1f98 50FCFFFF 		.word	-944
 4267 1f9c D6060000 		.word	1750
 4268              	.L159:
 396:../Sources/main.c **** 			}
 397:../Sources/main.c **** 
 398:../Sources/main.c **** 			else if (servang >= 1625 && servang <= 1750) {
 4269              		.loc 1 398 0
 4270 1fa0 D723     		mov	r3, #215
 4271 1fa2 9B00     		lsl	r3, r3, #2
 4272 1fa4 DB19     		add	r3, r3, r7
 4273 1fa6 1A68     		ldr	r2, [r3]
 4274 1fa8 CB23     		mov	r3, #203
 4275 1faa DB00     		lsl	r3, r3, #3
 4276 1fac 9A42     		cmp	r2, r3
 4277 1fae 00DC     		bgt	.LCB3711
 4278 1fb0 73E0     		b	.L158	@long jump
 4279              	.LCB3711:
 4280              		.loc 1 398 0 is_stmt 0
 4281 1fb2 D724     		mov	r4, #215
 4282 1fb4 A400     		lsl	r4, r4, #2
 4283 1fb6 E419     		add	r4, r4, r7
 4284 1fb8 2268     		ldr	r2, [r4]
 4285 1fba 8F4B     		ldr	r3, .L360+24
 4286 1fbc 9A42     		cmp	r2, r3
 4287 1fbe 6CDC     		bgt	.L158
 399:../Sources/main.c **** 
 400:../Sources/main.c **** 				grausaida = ((float) (-servang / 125.0)) + (14.0); //reta g
 4288              		.loc 1 400 0 is_stmt 1
 4289 1fc0 D721     		mov	r1, #215
 4290 1fc2 8900     		lsl	r1, r1, #2
 4291 1fc4 C919     		add	r1, r1, r7
 4292 1fc6 0B68     		ldr	r3, [r1]
 4293 1fc8 5B42     		neg	r3, r3
 4294 1fca 181C     		mov	r0, r3
 4295 1fcc FFF7FEFF 		bl	__aeabi_i2d
 4296 1fd0 031C     		mov	r3, r0
 4297 1fd2 0C1C     		mov	r4, r1
 4298 1fd4 181C     		mov	r0, r3
 4299 1fd6 211C     		mov	r1, r4
 4300 1fd8 824B     		ldr	r3, .L360+4
 4301 1fda 814A     		ldr	r2, .L360
 4302 1fdc FFF7FEFF 		bl	__aeabi_ddiv
 4303 1fe0 031C     		mov	r3, r0
 4304 1fe2 0C1C     		mov	r4, r1
 4305 1fe4 181C     		mov	r0, r3
 4306 1fe6 211C     		mov	r1, r4
 4307 1fe8 FFF7FEFF 		bl	__aeabi_d2f
 4308 1fec 031C     		add	r3, r0, #0
 4309 1fee 181C     		add	r0, r3, #0
 4310 1ff0 FFF7FEFF 		bl	__aeabi_f2d
 4311 1ff4 031C     		mov	r3, r0
 4312 1ff6 0C1C     		mov	r4, r1
 4313 1ff8 181C     		mov	r0, r3
 4314 1ffa 211C     		mov	r1, r4
 4315 1ffc 7A4A     		ldr	r2, .L360+8
 4316 1ffe 7B4B     		ldr	r3, .L360+12
 4317 2000 FFF7FEFF 		bl	__aeabi_dadd
 4318 2004 031C     		mov	r3, r0
 4319 2006 0C1C     		mov	r4, r1
 4320 2008 D422     		mov	r2, #212
 4321 200a 9200     		lsl	r2, r2, #2
 4322 200c D219     		add	r2, r2, r7
 4323 200e 1360     		str	r3, [r2]
 4324 2010 5460     		str	r4, [r2, #4]
 401:../Sources/main.c **** 				if (grausaida > ps)
 4325              		.loc 1 401 0
 4326 2012 D423     		mov	r3, #212
 4327 2014 9B00     		lsl	r3, r3, #2
 4328 2016 DB19     		add	r3, r3, r7
 4329 2018 1868     		ldr	r0, [r3]
 4330 201a 5968     		ldr	r1, [r3, #4]
 4331 201c DA24     		mov	r4, #218
 4332 201e A400     		lsl	r4, r4, #2
 4333 2020 E419     		add	r4, r4, r7
 4334 2022 2268     		ldr	r2, [r4]
 4335 2024 6368     		ldr	r3, [r4, #4]
 4336 2026 FFF7FEFF 		bl	__aeabi_dcmpgt
 4337 202a 031C     		mov	r3, r0
 4338 202c 002B     		cmp	r3, #0
 4339 202e 09D0     		beq	.L164
 4340              	.L294:
 402:../Sources/main.c **** 					grausaida = ps;
 4341              		.loc 1 402 0
 4342 2030 DA21     		mov	r1, #218
 4343 2032 8900     		lsl	r1, r1, #2
 4344 2034 C919     		add	r1, r1, r7
 4345 2036 0B68     		ldr	r3, [r1]
 4346 2038 4C68     		ldr	r4, [r1, #4]
 4347 203a D422     		mov	r2, #212
 4348 203c 9200     		lsl	r2, r2, #2
 4349 203e D219     		add	r2, r2, r7
 4350 2040 1360     		str	r3, [r2]
 4351 2042 5460     		str	r4, [r2, #4]
 4352              	.L164:
 403:../Sources/main.c **** 				if (area[i] <= grausaida)
 4353              		.loc 1 403 0
 4354 2044 6D4B     		ldr	r3, .L360+28
 4355 2046 EC24     		mov	r4, #236
 4356 2048 A400     		lsl	r4, r4, #2
 4357 204a E419     		add	r4, r4, r7
 4358 204c E218     		add	r2, r4, r3
 4359 204e EB21     		mov	r1, #235
 4360 2050 8900     		lsl	r1, r1, #2
 4361 2052 C919     		add	r1, r1, r7
 4362 2054 0B68     		ldr	r3, [r1]
 4363 2056 DB00     		lsl	r3, r3, #3
 4364 2058 D318     		add	r3, r2, r3
 4365 205a 5C68     		ldr	r4, [r3, #4]
 4366 205c 1B68     		ldr	r3, [r3]
 4367 205e 181C     		mov	r0, r3
 4368 2060 211C     		mov	r1, r4
 4369 2062 D424     		mov	r4, #212
 4370 2064 A400     		lsl	r4, r4, #2
 4371 2066 E419     		add	r4, r4, r7
 4372 2068 2268     		ldr	r2, [r4]
 4373 206a 6368     		ldr	r3, [r4, #4]
 4374 206c FFF7FEFF 		bl	__aeabi_dcmple
 4375 2070 031C     		mov	r3, r0
 4376 2072 002B     		cmp	r3, #0
 4377 2074 11D0     		beq	.L158
 4378              	.L295:
 404:../Sources/main.c **** 					area[i] = grausaida;
 4379              		.loc 1 404 0
 4380 2076 614B     		ldr	r3, .L360+28
 4381 2078 EC21     		mov	r1, #236
 4382 207a 8900     		lsl	r1, r1, #2
 4383 207c C919     		add	r1, r1, r7
 4384 207e CA18     		add	r2, r1, r3
 4385 2080 EB24     		mov	r4, #235
 4386 2082 A400     		lsl	r4, r4, #2
 4387 2084 E419     		add	r4, r4, r7
 4388 2086 2368     		ldr	r3, [r4]
 4389 2088 DB00     		lsl	r3, r3, #3
 4390 208a D218     		add	r2, r2, r3
 4391 208c D421     		mov	r1, #212
 4392 208e 8900     		lsl	r1, r1, #2
 4393 2090 C919     		add	r1, r1, r7
 4394 2092 0B68     		ldr	r3, [r1]
 4395 2094 4C68     		ldr	r4, [r1, #4]
 4396 2096 1360     		str	r3, [r2]
 4397 2098 5460     		str	r4, [r2, #4]
 4398              	.L158:
 405:../Sources/main.c **** 			}
 406:../Sources/main.c **** 			servang = servang + 10;
 4399              		.loc 1 406 0
 4400 209a D722     		mov	r2, #215
 4401 209c 9200     		lsl	r2, r2, #2
 4402 209e D219     		add	r2, r2, r7
 4403 20a0 1368     		ldr	r3, [r2]
 4404 20a2 0A33     		add	r3, r3, #10
 4405 20a4 D724     		mov	r4, #215
 4406 20a6 A400     		lsl	r4, r4, #2
 4407 20a8 E419     		add	r4, r4, r7
 4408 20aa 2360     		str	r3, [r4]
 384:../Sources/main.c **** 		for (i = 0; i < 100; i++) {
 4409              		.loc 1 384 0
 4410 20ac EB21     		mov	r1, #235
 4411 20ae 8900     		lsl	r1, r1, #2
 4412 20b0 C919     		add	r1, r1, r7
 4413 20b2 0B68     		ldr	r3, [r1]
 4414 20b4 0133     		add	r3, r3, #1
 4415 20b6 EB22     		mov	r2, #235
 4416 20b8 9200     		lsl	r2, r2, #2
 4417 20ba D219     		add	r2, r2, r7
 4418 20bc 1360     		str	r3, [r2]
 4419              	.L155:
 384:../Sources/main.c **** 		for (i = 0; i < 100; i++) {
 4420              		.loc 1 384 0 is_stmt 0
 4421 20be EB24     		mov	r4, #235
 4422 20c0 A400     		lsl	r4, r4, #2
 4423 20c2 E419     		add	r4, r4, r7
 4424 20c4 2368     		ldr	r3, [r4]
 4425 20c6 632B     		cmp	r3, #99
 4426 20c8 00DC     		bgt	.LCB3841
 4427 20ca BCE6     		b	.L167	@long jump
 4428              	.LCB3841:
 407:../Sources/main.c **** 		}
 408:../Sources/main.c **** 		servang = 1000;
 4429              		.loc 1 408 0 is_stmt 1
 4430 20cc FA23     		mov	r3, #250
 4431 20ce 9B00     		lsl	r3, r3, #2
 4432 20d0 D721     		mov	r1, #215
 4433 20d2 8900     		lsl	r1, r1, #2
 4434 20d4 C919     		add	r1, r1, r7
 4435 20d6 0B60     		str	r3, [r1]
 409:../Sources/main.c **** //---------- F e VR ---------
 410:../Sources/main.c **** 		if (grauvr < grauf) {
 4436              		.loc 1 410 0
 4437 20d8 C822     		mov	r2, #200
 4438 20da 9200     		lsl	r2, r2, #2
 4439 20dc D219     		add	r2, r2, r7
 4440 20de 1368     		ldr	r3, [r2]
 4441 20e0 181C     		add	r0, r3, #0
 4442 20e2 FFF7FEFF 		bl	__aeabi_f2d
 4443 20e6 031C     		mov	r3, r0
 4444 20e8 0C1C     		mov	r4, r1
 4445 20ea 181C     		mov	r0, r3
 4446 20ec 211C     		mov	r1, r4
 4447 20ee E424     		mov	r4, #228
 4448 20f0 A400     		lsl	r4, r4, #2
 4449 20f2 E419     		add	r4, r4, r7
 4450 20f4 2268     		ldr	r2, [r4]
 4451 20f6 6368     		ldr	r3, [r4, #4]
 4452 20f8 FFF7FEFF 		bl	__aeabi_dcmpgt
 4453 20fc 031C     		mov	r3, r0
 4454 20fe 002B     		cmp	r3, #0
 4455 2100 0AD0     		beq	.L332
 4456              	.L296:
 411:../Sources/main.c **** 			pb = grauvr;
 4457              		.loc 1 411 0
 4458 2102 E421     		mov	r1, #228
 4459 2104 8900     		lsl	r1, r1, #2
 4460 2106 C919     		add	r1, r1, r7
 4461 2108 0B68     		ldr	r3, [r1]
 4462 210a 4C68     		ldr	r4, [r1, #4]
 4463 210c D822     		mov	r2, #216
 4464 210e 9200     		lsl	r2, r2, #2
 4465 2110 D219     		add	r2, r2, r7
 4466 2112 1360     		str	r3, [r2]
 4467 2114 5460     		str	r4, [r2, #4]
 4468 2116 0DE0     		b	.L170
 4469              	.L332:
 412:../Sources/main.c **** 		} else
 413:../Sources/main.c **** 			pb = grauf;
 4470              		.loc 1 413 0
 4471 2118 C824     		mov	r4, #200
 4472 211a A400     		lsl	r4, r4, #2
 4473 211c E419     		add	r4, r4, r7
 4474 211e 2368     		ldr	r3, [r4]
 4475 2120 181C     		add	r0, r3, #0
 4476 2122 FFF7FEFF 		bl	__aeabi_f2d
 4477 2126 031C     		mov	r3, r0
 4478 2128 0C1C     		mov	r4, r1
 4479 212a D821     		mov	r1, #216
 4480 212c 8900     		lsl	r1, r1, #2
 4481 212e C919     		add	r1, r1, r7
 4482 2130 0B60     		str	r3, [r1]
 4483 2132 4C60     		str	r4, [r1, #4]
 4484              	.L170:
 414:../Sources/main.c **** 
 415:../Sources/main.c **** 		for (i = 0; i < 100; i++) {
 4485              		.loc 1 415 0
 4486 2134 0023     		mov	r3, #0
 4487 2136 EB22     		mov	r2, #235
 4488 2138 9200     		lsl	r2, r2, #2
 4489 213a D219     		add	r2, r2, r7
 4490 213c 1360     		str	r3, [r2]
 4491 213e E8E0     		b	.L171
 4492              	.L179:
 416:../Sources/main.c **** 			if (servang > 1750) {
 4493              		.loc 1 416 0
 4494 2140 D723     		mov	r3, #215
 4495 2142 9B00     		lsl	r3, r3, #2
 4496 2144 DB19     		add	r3, r3, r7
 4497 2146 1A68     		ldr	r2, [r3]
 4498 2148 2B4B     		ldr	r3, .L360+24
 4499 214a 9A42     		cmp	r2, r3
 4500 214c 36DD     		ble	.L172
 417:../Sources/main.c **** 				grausaida = pb;
 4501              		.loc 1 417 0
 4502 214e D821     		mov	r1, #216
 4503 2150 8900     		lsl	r1, r1, #2
 4504 2152 C919     		add	r1, r1, r7
 4505 2154 0B68     		ldr	r3, [r1]
 4506 2156 4C68     		ldr	r4, [r1, #4]
 4507 2158 D422     		mov	r2, #212
 4508 215a 9200     		lsl	r2, r2, #2
 4509 215c D219     		add	r2, r2, r7
 4510 215e 1360     		str	r3, [r2]
 4511 2160 5460     		str	r4, [r2, #4]
 418:../Sources/main.c **** 
 419:../Sources/main.c **** 				if (area[i] <= grausaida)
 4512              		.loc 1 419 0
 4513 2162 264B     		ldr	r3, .L360+28
 4514 2164 EC24     		mov	r4, #236
 4515 2166 A400     		lsl	r4, r4, #2
 4516 2168 E419     		add	r4, r4, r7
 4517 216a E218     		add	r2, r4, r3
 4518 216c EB21     		mov	r1, #235
 4519 216e 8900     		lsl	r1, r1, #2
 4520 2170 C919     		add	r1, r1, r7
 4521 2172 0B68     		ldr	r3, [r1]
 4522 2174 DB00     		lsl	r3, r3, #3
 4523 2176 D318     		add	r3, r2, r3
 4524 2178 5C68     		ldr	r4, [r3, #4]
 4525 217a 1B68     		ldr	r3, [r3]
 4526 217c 181C     		mov	r0, r3
 4527 217e 211C     		mov	r1, r4
 4528 2180 D424     		mov	r4, #212
 4529 2182 A400     		lsl	r4, r4, #2
 4530 2184 E419     		add	r4, r4, r7
 4531 2186 2268     		ldr	r2, [r4]
 4532 2188 6368     		ldr	r3, [r4, #4]
 4533 218a FFF7FEFF 		bl	__aeabi_dcmple
 4534 218e 031C     		mov	r3, r0
 4535 2190 002B     		cmp	r3, #0
 4536 2192 00D1     		bne	.LCB3938
 4537 2194 ABE0     		b	.L173	@long jump
 4538              	.LCB3938:
 4539              	.L297:
 420:../Sources/main.c **** 					area[i] = grausaida;
 4540              		.loc 1 420 0
 4541 2196 194B     		ldr	r3, .L360+28
 4542 2198 EC21     		mov	r1, #236
 4543 219a 8900     		lsl	r1, r1, #2
 4544 219c C919     		add	r1, r1, r7
 4545 219e CA18     		add	r2, r1, r3
 4546 21a0 EB24     		mov	r4, #235
 4547 21a2 A400     		lsl	r4, r4, #2
 4548 21a4 E419     		add	r4, r4, r7
 4549 21a6 2368     		ldr	r3, [r4]
 4550 21a8 DB00     		lsl	r3, r3, #3
 4551 21aa D218     		add	r2, r2, r3
 4552 21ac D421     		mov	r1, #212
 4553 21ae 8900     		lsl	r1, r1, #2
 4554 21b0 C919     		add	r1, r1, r7
 4555 21b2 0B68     		ldr	r3, [r1]
 4556 21b4 4C68     		ldr	r4, [r1, #4]
 4557 21b6 1360     		str	r3, [r2]
 4558 21b8 5460     		str	r4, [r2, #4]
 4559 21ba 98E0     		b	.L173
 4560              	.L172:
 421:../Sources/main.c **** 
 422:../Sources/main.c **** 			} else if (servang < 1625) {
 4561              		.loc 1 422 0
 4562 21bc D723     		mov	r3, #215
 4563 21be 9B00     		lsl	r3, r3, #2
 4564 21c0 DB19     		add	r3, r3, r7
 4565 21c2 1A68     		ldr	r2, [r3]
 4566 21c4 CB23     		mov	r3, #203
 4567 21c6 DB00     		lsl	r3, r3, #3
 4568 21c8 9A42     		cmp	r2, r3
 4569 21ca 19DC     		bgt	.L175
 423:../Sources/main.c **** 				grausaida = 0;
 4570              		.loc 1 423 0
 4571 21cc 084B     		ldr	r3, .L360+16
 4572 21ce 094C     		ldr	r4, .L360+20
 4573 21d0 D421     		mov	r1, #212
 4574 21d2 8900     		lsl	r1, r1, #2
 4575 21d4 C919     		add	r1, r1, r7
 4576 21d6 0B60     		str	r3, [r1]
 4577 21d8 4C60     		str	r4, [r1, #4]
 4578 21da 88E0     		b	.L173
 4579              	.L361:
 4580 21dc C046C046 		.align	3
 4581              	.L360:
 4582 21e0 00000000 		.word	0
 4583 21e4 00405F40 		.word	1079984128
 4584 21e8 00000000 		.word	0
 4585 21ec 00002C40 		.word	1076625408
 4586 21f0 00000000 		.word	0
 4587 21f4 00000000 		.word	0
 4588 21f8 D6060000 		.word	1750
 4589 21fc 50FCFFFF 		.word	-944
 4590              	.L175:
 424:../Sources/main.c **** 			} else if (servang >= 1625 && servang <= 1750) {
 4591              		.loc 1 424 0
 4592 2200 D723     		mov	r3, #215
 4593 2202 9B00     		lsl	r3, r3, #2
 4594 2204 DB19     		add	r3, r3, r7
 4595 2206 1A68     		ldr	r2, [r3]
 4596 2208 CB23     		mov	r3, #203
 4597 220a DB00     		lsl	r3, r3, #3
 4598 220c 9A42     		cmp	r2, r3
 4599 220e 6EDD     		ble	.L173
 4600              		.loc 1 424 0 is_stmt 0
 4601 2210 D724     		mov	r4, #215
 4602 2212 A400     		lsl	r4, r4, #2
 4603 2214 E419     		add	r4, r4, r7
 4604 2216 2268     		ldr	r2, [r4]
 4605 2218 854B     		ldr	r3, .L362+16
 4606 221a 9A42     		cmp	r2, r3
 4607 221c 67DC     		bgt	.L173
 425:../Sources/main.c **** 				grausaida = ((float) (servang / 125.0)) - ((float) 13.0); // reta h
 4608              		.loc 1 425 0 is_stmt 1
 4609 221e D721     		mov	r1, #215
 4610 2220 8900     		lsl	r1, r1, #2
 4611 2222 C919     		add	r1, r1, r7
 4612 2224 0868     		ldr	r0, [r1]
 4613 2226 FFF7FEFF 		bl	__aeabi_i2d
 4614 222a 031C     		mov	r3, r0
 4615 222c 0C1C     		mov	r4, r1
 4616 222e 181C     		mov	r0, r3
 4617 2230 211C     		mov	r1, r4
 4618 2232 7C4B     		ldr	r3, .L362+4
 4619 2234 7A4A     		ldr	r2, .L362
 4620 2236 FFF7FEFF 		bl	__aeabi_ddiv
 4621 223a 031C     		mov	r3, r0
 4622 223c 0C1C     		mov	r4, r1
 4623 223e 181C     		mov	r0, r3
 4624 2240 211C     		mov	r1, r4
 4625 2242 FFF7FEFF 		bl	__aeabi_d2f
 4626 2246 031C     		add	r3, r0, #0
 4627 2248 181C     		add	r0, r3, #0
 4628 224a 7A49     		ldr	r1, .L362+20
 4629 224c FFF7FEFF 		bl	__aeabi_fsub
 4630 2250 031C     		add	r3, r0, #0
 4631 2252 181C     		add	r0, r3, #0
 4632 2254 FFF7FEFF 		bl	__aeabi_f2d
 4633 2258 031C     		mov	r3, r0
 4634 225a 0C1C     		mov	r4, r1
 4635 225c D422     		mov	r2, #212
 4636 225e 9200     		lsl	r2, r2, #2
 4637 2260 D219     		add	r2, r2, r7
 4638 2262 1360     		str	r3, [r2]
 4639 2264 5460     		str	r4, [r2, #4]
 426:../Sources/main.c **** 				if (grausaida > pb)
 4640              		.loc 1 426 0
 4641 2266 D423     		mov	r3, #212
 4642 2268 9B00     		lsl	r3, r3, #2
 4643 226a DB19     		add	r3, r3, r7
 4644 226c 1868     		ldr	r0, [r3]
 4645 226e 5968     		ldr	r1, [r3, #4]
 4646 2270 D824     		mov	r4, #216
 4647 2272 A400     		lsl	r4, r4, #2
 4648 2274 E419     		add	r4, r4, r7
 4649 2276 2268     		ldr	r2, [r4]
 4650 2278 6368     		ldr	r3, [r4, #4]
 4651 227a FFF7FEFF 		bl	__aeabi_dcmpgt
 4652 227e 031C     		mov	r3, r0
 4653 2280 002B     		cmp	r3, #0
 4654 2282 09D0     		beq	.L176
 4655              	.L298:
 427:../Sources/main.c **** 					grausaida = pb;
 4656              		.loc 1 427 0
 4657 2284 D821     		mov	r1, #216
 4658 2286 8900     		lsl	r1, r1, #2
 4659 2288 C919     		add	r1, r1, r7
 4660 228a 0B68     		ldr	r3, [r1]
 4661 228c 4C68     		ldr	r4, [r1, #4]
 4662 228e D422     		mov	r2, #212
 4663 2290 9200     		lsl	r2, r2, #2
 4664 2292 D219     		add	r2, r2, r7
 4665 2294 1360     		str	r3, [r2]
 4666 2296 5460     		str	r4, [r2, #4]
 4667              	.L176:
 428:../Sources/main.c **** 				if (area[i] <= grausaida)
 4668              		.loc 1 428 0
 4669 2298 674B     		ldr	r3, .L362+24
 4670 229a EC24     		mov	r4, #236
 4671 229c A400     		lsl	r4, r4, #2
 4672 229e E419     		add	r4, r4, r7
 4673 22a0 E218     		add	r2, r4, r3
 4674 22a2 EB21     		mov	r1, #235
 4675 22a4 8900     		lsl	r1, r1, #2
 4676 22a6 C919     		add	r1, r1, r7
 4677 22a8 0B68     		ldr	r3, [r1]
 4678 22aa DB00     		lsl	r3, r3, #3
 4679 22ac D318     		add	r3, r2, r3
 4680 22ae 5C68     		ldr	r4, [r3, #4]
 4681 22b0 1B68     		ldr	r3, [r3]
 4682 22b2 181C     		mov	r0, r3
 4683 22b4 211C     		mov	r1, r4
 4684 22b6 D424     		mov	r4, #212
 4685 22b8 A400     		lsl	r4, r4, #2
 4686 22ba E419     		add	r4, r4, r7
 4687 22bc 2268     		ldr	r2, [r4]
 4688 22be 6368     		ldr	r3, [r4, #4]
 4689 22c0 FFF7FEFF 		bl	__aeabi_dcmple
 4690 22c4 031C     		mov	r3, r0
 4691 22c6 002B     		cmp	r3, #0
 4692 22c8 11D0     		beq	.L173
 4693              	.L299:
 429:../Sources/main.c **** 					area[i] = grausaida;
 4694              		.loc 1 429 0
 4695 22ca 5B4B     		ldr	r3, .L362+24
 4696 22cc EC21     		mov	r1, #236
 4697 22ce 8900     		lsl	r1, r1, #2
 4698 22d0 C919     		add	r1, r1, r7
 4699 22d2 CA18     		add	r2, r1, r3
 4700 22d4 EB24     		mov	r4, #235
 4701 22d6 A400     		lsl	r4, r4, #2
 4702 22d8 E419     		add	r4, r4, r7
 4703 22da 2368     		ldr	r3, [r4]
 4704 22dc DB00     		lsl	r3, r3, #3
 4705 22de D218     		add	r2, r2, r3
 4706 22e0 D421     		mov	r1, #212
 4707 22e2 8900     		lsl	r1, r1, #2
 4708 22e4 C919     		add	r1, r1, r7
 4709 22e6 0B68     		ldr	r3, [r1]
 4710 22e8 4C68     		ldr	r4, [r1, #4]
 4711 22ea 1360     		str	r3, [r2]
 4712 22ec 5460     		str	r4, [r2, #4]
 4713              	.L173:
 430:../Sources/main.c **** 			}
 431:../Sources/main.c **** 
 432:../Sources/main.c **** 			servang = servang + 10;
 4714              		.loc 1 432 0
 4715 22ee D722     		mov	r2, #215
 4716 22f0 9200     		lsl	r2, r2, #2
 4717 22f2 D219     		add	r2, r2, r7
 4718 22f4 1368     		ldr	r3, [r2]
 4719 22f6 0A33     		add	r3, r3, #10
 4720 22f8 D724     		mov	r4, #215
 4721 22fa A400     		lsl	r4, r4, #2
 4722 22fc E419     		add	r4, r4, r7
 4723 22fe 2360     		str	r3, [r4]
 415:../Sources/main.c **** 		for (i = 0; i < 100; i++) {
 4724              		.loc 1 415 0
 4725 2300 EB21     		mov	r1, #235
 4726 2302 8900     		lsl	r1, r1, #2
 4727 2304 C919     		add	r1, r1, r7
 4728 2306 0B68     		ldr	r3, [r1]
 4729 2308 0133     		add	r3, r3, #1
 4730 230a EB22     		mov	r2, #235
 4731 230c 9200     		lsl	r2, r2, #2
 4732 230e D219     		add	r2, r2, r7
 4733 2310 1360     		str	r3, [r2]
 4734              	.L171:
 415:../Sources/main.c **** 		for (i = 0; i < 100; i++) {
 4735              		.loc 1 415 0 is_stmt 0
 4736 2312 EB24     		mov	r4, #235
 4737 2314 A400     		lsl	r4, r4, #2
 4738 2316 E419     		add	r4, r4, r7
 4739 2318 2368     		ldr	r3, [r4]
 4740 231a 632B     		cmp	r3, #99
 4741 231c 00DC     		bgt	.LCB4120
 4742 231e 0FE7     		b	.L179	@long jump
 4743              	.LCB4120:
 433:../Sources/main.c **** 		}
 434:../Sources/main.c **** 		servang = 1000;
 4744              		.loc 1 434 0 is_stmt 1
 4745 2320 FA23     		mov	r3, #250
 4746 2322 9B00     		lsl	r3, r3, #2
 4747 2324 D721     		mov	r1, #215
 4748 2326 8900     		lsl	r1, r1, #2
 4749 2328 C919     		add	r1, r1, r7
 4750 232a 0B60     		str	r3, [r1]
 435:../Sources/main.c **** //--------- R e VL -----------
 436:../Sources/main.c **** 		if (grauvl < graura) {
 4751              		.loc 1 436 0
 4752 232c E822     		mov	r2, #232
 4753 232e 9200     		lsl	r2, r2, #2
 4754 2330 D219     		add	r2, r2, r7
 4755 2332 1068     		ldr	r0, [r2]
 4756 2334 5168     		ldr	r1, [r2, #4]
 4757 2336 E224     		mov	r4, #226
 4758 2338 A400     		lsl	r4, r4, #2
 4759 233a E419     		add	r4, r4, r7
 4760 233c 2268     		ldr	r2, [r4]
 4761 233e 6368     		ldr	r3, [r4, #4]
 4762 2340 FFF7FEFF 		bl	__aeabi_dcmplt
 4763 2344 031C     		mov	r3, r0
 4764 2346 002B     		cmp	r3, #0
 4765 2348 0AD0     		beq	.L333
 4766              	.L300:
 437:../Sources/main.c **** 			nb = grauvl;
 4767              		.loc 1 437 0
 4768 234a E821     		mov	r1, #232
 4769 234c 8900     		lsl	r1, r1, #2
 4770 234e C919     		add	r1, r1, r7
 4771 2350 0B68     		ldr	r3, [r1]
 4772 2352 4C68     		ldr	r4, [r1, #4]
 4773 2354 DE22     		mov	r2, #222
 4774 2356 9200     		lsl	r2, r2, #2
 4775 2358 D219     		add	r2, r2, r7
 4776 235a 1360     		str	r3, [r2]
 4777 235c 5460     		str	r4, [r2, #4]
 4778 235e 09E0     		b	.L182
 4779              	.L333:
 438:../Sources/main.c **** 		} else
 439:../Sources/main.c **** 			nb = graura;
 4780              		.loc 1 439 0
 4781 2360 E221     		mov	r1, #226
 4782 2362 8900     		lsl	r1, r1, #2
 4783 2364 C919     		add	r1, r1, r7
 4784 2366 0B68     		ldr	r3, [r1]
 4785 2368 4C68     		ldr	r4, [r1, #4]
 4786 236a DE22     		mov	r2, #222
 4787 236c 9200     		lsl	r2, r2, #2
 4788 236e D219     		add	r2, r2, r7
 4789 2370 1360     		str	r3, [r2]
 4790 2372 5460     		str	r4, [r2, #4]
 4791              	.L182:
 440:../Sources/main.c **** 
 441:../Sources/main.c **** 		for (i = 0; i < 100; i++) {
 4792              		.loc 1 441 0
 4793 2374 0023     		mov	r3, #0
 4794 2376 EB24     		mov	r4, #235
 4795 2378 A400     		lsl	r4, r4, #2
 4796 237a E419     		add	r4, r4, r7
 4797 237c 2360     		str	r3, [r4]
 4798 237e ECE0     		b	.L183
 4799              	.L191:
 442:../Sources/main.c **** 			if (servang < 1250) {
 4800              		.loc 1 442 0
 4801 2380 D721     		mov	r1, #215
 4802 2382 8900     		lsl	r1, r1, #2
 4803 2384 C919     		add	r1, r1, r7
 4804 2386 0A68     		ldr	r2, [r1]
 4805 2388 2C4B     		ldr	r3, .L362+28
 4806 238a 9A42     		cmp	r2, r3
 4807 238c 36DC     		bgt	.L184
 443:../Sources/main.c **** 				grausaida = nb;
 4808              		.loc 1 443 0
 4809 238e DE22     		mov	r2, #222
 4810 2390 9200     		lsl	r2, r2, #2
 4811 2392 D219     		add	r2, r2, r7
 4812 2394 1368     		ldr	r3, [r2]
 4813 2396 5468     		ldr	r4, [r2, #4]
 4814 2398 D421     		mov	r1, #212
 4815 239a 8900     		lsl	r1, r1, #2
 4816 239c C919     		add	r1, r1, r7
 4817 239e 0B60     		str	r3, [r1]
 4818 23a0 4C60     		str	r4, [r1, #4]
 444:../Sources/main.c **** 				if (area[i] <= grausaida)
 4819              		.loc 1 444 0
 4820 23a2 254B     		ldr	r3, .L362+24
 4821 23a4 EC24     		mov	r4, #236
 4822 23a6 A400     		lsl	r4, r4, #2
 4823 23a8 E419     		add	r4, r4, r7
 4824 23aa E218     		add	r2, r4, r3
 4825 23ac EB21     		mov	r1, #235
 4826 23ae 8900     		lsl	r1, r1, #2
 4827 23b0 C919     		add	r1, r1, r7
 4828 23b2 0B68     		ldr	r3, [r1]
 4829 23b4 DB00     		lsl	r3, r3, #3
 4830 23b6 D318     		add	r3, r2, r3
 4831 23b8 5C68     		ldr	r4, [r3, #4]
 4832 23ba 1B68     		ldr	r3, [r3]
 4833 23bc 181C     		mov	r0, r3
 4834 23be 211C     		mov	r1, r4
 4835 23c0 D424     		mov	r4, #212
 4836 23c2 A400     		lsl	r4, r4, #2
 4837 23c4 E419     		add	r4, r4, r7
 4838 23c6 2268     		ldr	r2, [r4]
 4839 23c8 6368     		ldr	r3, [r4, #4]
 4840 23ca FFF7FEFF 		bl	__aeabi_dcmple
 4841 23ce 031C     		mov	r3, r0
 4842 23d0 002B     		cmp	r3, #0
 4843 23d2 00D1     		bne	.LCB4207
 4844 23d4 AFE0     		b	.L185	@long jump
 4845              	.LCB4207:
 4846              	.L301:
 445:../Sources/main.c **** 					area[i] = grausaida;
 4847              		.loc 1 445 0
 4848 23d6 184B     		ldr	r3, .L362+24
 4849 23d8 EC21     		mov	r1, #236
 4850 23da 8900     		lsl	r1, r1, #2
 4851 23dc C919     		add	r1, r1, r7
 4852 23de CA18     		add	r2, r1, r3
 4853 23e0 EB24     		mov	r4, #235
 4854 23e2 A400     		lsl	r4, r4, #2
 4855 23e4 E419     		add	r4, r4, r7
 4856 23e6 2368     		ldr	r3, [r4]
 4857 23e8 DB00     		lsl	r3, r3, #3
 4858 23ea D218     		add	r2, r2, r3
 4859 23ec D421     		mov	r1, #212
 4860 23ee 8900     		lsl	r1, r1, #2
 4861 23f0 C919     		add	r1, r1, r7
 4862 23f2 0B68     		ldr	r3, [r1]
 4863 23f4 4C68     		ldr	r4, [r1, #4]
 4864 23f6 1360     		str	r3, [r2]
 4865 23f8 5460     		str	r4, [r2, #4]
 4866 23fa 9CE0     		b	.L185
 4867              	.L184:
 446:../Sources/main.c **** 
 447:../Sources/main.c **** 			} else if (servang > 1375) {
 4868              		.loc 1 447 0
 4869 23fc D723     		mov	r3, #215
 4870 23fe 9B00     		lsl	r3, r3, #2
 4871 2400 DB19     		add	r3, r3, r7
 4872 2402 1A68     		ldr	r2, [r3]
 4873 2404 0E4B     		ldr	r3, .L362+32
 4874 2406 9A42     		cmp	r2, r3
 4875 2408 1CDD     		ble	.L187
 448:../Sources/main.c **** 				grausaida = 0;
 4876              		.loc 1 448 0
 4877 240a 074B     		ldr	r3, .L362+8
 4878 240c 074C     		ldr	r4, .L362+12
 4879 240e D421     		mov	r1, #212
 4880 2410 8900     		lsl	r1, r1, #2
 4881 2412 C919     		add	r1, r1, r7
 4882 2414 0B60     		str	r3, [r1]
 4883 2416 4C60     		str	r4, [r1, #4]
 4884 2418 8DE0     		b	.L185
 4885              	.L363:
 4886 241a C046C046 		.align	3
 4886      C046
 4887              	.L362:
 4888 2420 00000000 		.word	0
 4889 2424 00405F40 		.word	1079984128
 4890 2428 00000000 		.word	0
 4891 242c 00000000 		.word	0
 4892 2430 D6060000 		.word	1750
 4893 2434 00005041 		.word	1095761920
 4894 2438 50FCFFFF 		.word	-944
 4895 243c E1040000 		.word	1249
 4896 2440 5F050000 		.word	1375
 4897              	.L187:
 449:../Sources/main.c **** 			} else if (servang >= 1250 && servang <= 1375) {
 4898              		.loc 1 449 0
 4899 2444 D723     		mov	r3, #215
 4900 2446 9B00     		lsl	r3, r3, #2
 4901 2448 DB19     		add	r3, r3, r7
 4902 244a 1A68     		ldr	r2, [r3]
 4903 244c 904B     		ldr	r3, .L364+24
 4904 244e 9A42     		cmp	r2, r3
 4905 2450 71DD     		ble	.L185
 4906              		.loc 1 449 0 is_stmt 0
 4907 2452 D724     		mov	r4, #215
 4908 2454 A400     		lsl	r4, r4, #2
 4909 2456 E419     		add	r4, r4, r7
 4910 2458 2268     		ldr	r2, [r4]
 4911 245a 8E4B     		ldr	r3, .L364+28
 4912 245c 9A42     		cmp	r2, r3
 4913 245e 6ADC     		bgt	.L185
 450:../Sources/main.c **** 
 451:../Sources/main.c **** 				grausaida = ((float) (servang / (-125.0))) + (11.0); // reta a
 4914              		.loc 1 451 0 is_stmt 1
 4915 2460 D721     		mov	r1, #215
 4916 2462 8900     		lsl	r1, r1, #2
 4917 2464 C919     		add	r1, r1, r7
 4918 2466 0868     		ldr	r0, [r1]
 4919 2468 FFF7FEFF 		bl	__aeabi_i2d
 4920 246c 031C     		mov	r3, r0
 4921 246e 0C1C     		mov	r4, r1
 4922 2470 181C     		mov	r0, r3
 4923 2472 211C     		mov	r1, r4
 4924 2474 814B     		ldr	r3, .L364+4
 4925 2476 804A     		ldr	r2, .L364
 4926 2478 FFF7FEFF 		bl	__aeabi_ddiv
 4927 247c 031C     		mov	r3, r0
 4928 247e 0C1C     		mov	r4, r1
 4929 2480 181C     		mov	r0, r3
 4930 2482 211C     		mov	r1, r4
 4931 2484 FFF7FEFF 		bl	__aeabi_d2f
 4932 2488 031C     		add	r3, r0, #0
 4933 248a 181C     		add	r0, r3, #0
 4934 248c FFF7FEFF 		bl	__aeabi_f2d
 4935 2490 031C     		mov	r3, r0
 4936 2492 0C1C     		mov	r4, r1
 4937 2494 181C     		mov	r0, r3
 4938 2496 211C     		mov	r1, r4
 4939 2498 794A     		ldr	r2, .L364+8
 4940 249a 7A4B     		ldr	r3, .L364+12
 4941 249c FFF7FEFF 		bl	__aeabi_dadd
 4942 24a0 031C     		mov	r3, r0
 4943 24a2 0C1C     		mov	r4, r1
 4944 24a4 D422     		mov	r2, #212
 4945 24a6 9200     		lsl	r2, r2, #2
 4946 24a8 D219     		add	r2, r2, r7
 4947 24aa 1360     		str	r3, [r2]
 4948 24ac 5460     		str	r4, [r2, #4]
 452:../Sources/main.c **** 				if (grausaida > nb)
 4949              		.loc 1 452 0
 4950 24ae D423     		mov	r3, #212
 4951 24b0 9B00     		lsl	r3, r3, #2
 4952 24b2 DB19     		add	r3, r3, r7
 4953 24b4 1868     		ldr	r0, [r3]
 4954 24b6 5968     		ldr	r1, [r3, #4]
 4955 24b8 DE24     		mov	r4, #222
 4956 24ba A400     		lsl	r4, r4, #2
 4957 24bc E419     		add	r4, r4, r7
 4958 24be 2268     		ldr	r2, [r4]
 4959 24c0 6368     		ldr	r3, [r4, #4]
 4960 24c2 FFF7FEFF 		bl	__aeabi_dcmpgt
 4961 24c6 031C     		mov	r3, r0
 4962 24c8 002B     		cmp	r3, #0
 4963 24ca 09D0     		beq	.L188
 4964              	.L302:
 453:../Sources/main.c **** 					grausaida = nb;
 4965              		.loc 1 453 0
 4966 24cc DE21     		mov	r1, #222
 4967 24ce 8900     		lsl	r1, r1, #2
 4968 24d0 C919     		add	r1, r1, r7
 4969 24d2 0B68     		ldr	r3, [r1]
 4970 24d4 4C68     		ldr	r4, [r1, #4]
 4971 24d6 D422     		mov	r2, #212
 4972 24d8 9200     		lsl	r2, r2, #2
 4973 24da D219     		add	r2, r2, r7
 4974 24dc 1360     		str	r3, [r2]
 4975 24de 5460     		str	r4, [r2, #4]
 4976              	.L188:
 454:../Sources/main.c **** 				if (area[i] <= grausaida)
 4977              		.loc 1 454 0
 4978 24e0 6D4B     		ldr	r3, .L364+32
 4979 24e2 EC24     		mov	r4, #236
 4980 24e4 A400     		lsl	r4, r4, #2
 4981 24e6 E419     		add	r4, r4, r7
 4982 24e8 E218     		add	r2, r4, r3
 4983 24ea EB21     		mov	r1, #235
 4984 24ec 8900     		lsl	r1, r1, #2
 4985 24ee C919     		add	r1, r1, r7
 4986 24f0 0B68     		ldr	r3, [r1]
 4987 24f2 DB00     		lsl	r3, r3, #3
 4988 24f4 D318     		add	r3, r2, r3
 4989 24f6 5C68     		ldr	r4, [r3, #4]
 4990 24f8 1B68     		ldr	r3, [r3]
 4991 24fa 181C     		mov	r0, r3
 4992 24fc 211C     		mov	r1, r4
 4993 24fe D424     		mov	r4, #212
 4994 2500 A400     		lsl	r4, r4, #2
 4995 2502 E419     		add	r4, r4, r7
 4996 2504 2268     		ldr	r2, [r4]
 4997 2506 6368     		ldr	r3, [r4, #4]
 4998 2508 FFF7FEFF 		bl	__aeabi_dcmple
 4999 250c 031C     		mov	r3, r0
 5000 250e 002B     		cmp	r3, #0
 5001 2510 11D0     		beq	.L185
 5002              	.L303:
 455:../Sources/main.c **** 					area[i] = grausaida;
 5003              		.loc 1 455 0
 5004 2512 614B     		ldr	r3, .L364+32
 5005 2514 EC21     		mov	r1, #236
 5006 2516 8900     		lsl	r1, r1, #2
 5007 2518 C919     		add	r1, r1, r7
 5008 251a CA18     		add	r2, r1, r3
 5009 251c EB24     		mov	r4, #235
 5010 251e A400     		lsl	r4, r4, #2
 5011 2520 E419     		add	r4, r4, r7
 5012 2522 2368     		ldr	r3, [r4]
 5013 2524 DB00     		lsl	r3, r3, #3
 5014 2526 D218     		add	r2, r2, r3
 5015 2528 D421     		mov	r1, #212
 5016 252a 8900     		lsl	r1, r1, #2
 5017 252c C919     		add	r1, r1, r7
 5018 252e 0B68     		ldr	r3, [r1]
 5019 2530 4C68     		ldr	r4, [r1, #4]
 5020 2532 1360     		str	r3, [r2]
 5021 2534 5460     		str	r4, [r2, #4]
 5022              	.L185:
 456:../Sources/main.c **** 			}
 457:../Sources/main.c **** 
 458:../Sources/main.c **** 			servang = servang + 10;
 5023              		.loc 1 458 0
 5024 2536 D722     		mov	r2, #215
 5025 2538 9200     		lsl	r2, r2, #2
 5026 253a D219     		add	r2, r2, r7
 5027 253c 1368     		ldr	r3, [r2]
 5028 253e 0A33     		add	r3, r3, #10
 5029 2540 D724     		mov	r4, #215
 5030 2542 A400     		lsl	r4, r4, #2
 5031 2544 E419     		add	r4, r4, r7
 5032 2546 2360     		str	r3, [r4]
 441:../Sources/main.c **** 		for (i = 0; i < 100; i++) {
 5033              		.loc 1 441 0
 5034 2548 EB21     		mov	r1, #235
 5035 254a 8900     		lsl	r1, r1, #2
 5036 254c C919     		add	r1, r1, r7
 5037 254e 0B68     		ldr	r3, [r1]
 5038 2550 0133     		add	r3, r3, #1
 5039 2552 EB22     		mov	r2, #235
 5040 2554 9200     		lsl	r2, r2, #2
 5041 2556 D219     		add	r2, r2, r7
 5042 2558 1360     		str	r3, [r2]
 5043              	.L183:
 441:../Sources/main.c **** 		for (i = 0; i < 100; i++) {
 5044              		.loc 1 441 0 is_stmt 0
 5045 255a EB24     		mov	r4, #235
 5046 255c A400     		lsl	r4, r4, #2
 5047 255e E419     		add	r4, r4, r7
 5048 2560 2368     		ldr	r3, [r4]
 5049 2562 632B     		cmp	r3, #99
 5050 2564 00DC     		bgt	.LCB4391
 5051 2566 0BE7     		b	.L191	@long jump
 5052              	.LCB4391:
 459:../Sources/main.c **** 		}
 460:../Sources/main.c **** 		servang = 1000;
 5053              		.loc 1 460 0 is_stmt 1
 5054 2568 FA23     		mov	r3, #250
 5055 256a 9B00     		lsl	r3, r3, #2
 5056 256c D721     		mov	r1, #215
 5057 256e 8900     		lsl	r1, r1, #2
 5058 2570 C919     		add	r1, r1, r7
 5059 2572 0B60     		str	r3, [r1]
 461:../Sources/main.c **** //--------- R e L -----------
 462:../Sources/main.c **** 		if (graul < graura) {
 5060              		.loc 1 462 0
 5061 2574 CB22     		mov	r2, #203
 5062 2576 9200     		lsl	r2, r2, #2
 5063 2578 D219     		add	r2, r2, r7
 5064 257a 1368     		ldr	r3, [r2]
 5065 257c 181C     		add	r0, r3, #0
 5066 257e FFF7FEFF 		bl	__aeabi_f2d
 5067 2582 031C     		mov	r3, r0
 5068 2584 0C1C     		mov	r4, r1
 5069 2586 181C     		mov	r0, r3
 5070 2588 211C     		mov	r1, r4
 5071 258a E224     		mov	r4, #226
 5072 258c A400     		lsl	r4, r4, #2
 5073 258e E419     		add	r4, r4, r7
 5074 2590 2268     		ldr	r2, [r4]
 5075 2592 6368     		ldr	r3, [r4, #4]
 5076 2594 FFF7FEFF 		bl	__aeabi_dcmplt
 5077 2598 031C     		mov	r3, r0
 5078 259a 002B     		cmp	r3, #0
 5079 259c 0ED0     		beq	.L334
 5080              	.L304:
 463:../Sources/main.c **** 			nb = graul;
 5081              		.loc 1 463 0
 5082 259e CB21     		mov	r1, #203
 5083 25a0 8900     		lsl	r1, r1, #2
 5084 25a2 C919     		add	r1, r1, r7
 5085 25a4 0B68     		ldr	r3, [r1]
 5086 25a6 181C     		add	r0, r3, #0
 5087 25a8 FFF7FEFF 		bl	__aeabi_f2d
 5088 25ac 031C     		mov	r3, r0
 5089 25ae 0C1C     		mov	r4, r1
 5090 25b0 DE22     		mov	r2, #222
 5091 25b2 9200     		lsl	r2, r2, #2
 5092 25b4 D219     		add	r2, r2, r7
 5093 25b6 1360     		str	r3, [r2]
 5094 25b8 5460     		str	r4, [r2, #4]
 5095 25ba 09E0     		b	.L194
 5096              	.L334:
 464:../Sources/main.c **** 		} else
 465:../Sources/main.c **** 			nb = graura;
 5097              		.loc 1 465 0
 5098 25bc E221     		mov	r1, #226
 5099 25be 8900     		lsl	r1, r1, #2
 5100 25c0 C919     		add	r1, r1, r7
 5101 25c2 0B68     		ldr	r3, [r1]
 5102 25c4 4C68     		ldr	r4, [r1, #4]
 5103 25c6 DE22     		mov	r2, #222
 5104 25c8 9200     		lsl	r2, r2, #2
 5105 25ca D219     		add	r2, r2, r7
 5106 25cc 1360     		str	r3, [r2]
 5107 25ce 5460     		str	r4, [r2, #4]
 5108              	.L194:
 466:../Sources/main.c **** 
 467:../Sources/main.c **** 		for (i = 0; i < 100; i++) {
 5109              		.loc 1 467 0
 5110 25d0 0023     		mov	r3, #0
 5111 25d2 EB24     		mov	r4, #235
 5112 25d4 A400     		lsl	r4, r4, #2
 5113 25d6 E419     		add	r4, r4, r7
 5114 25d8 2360     		str	r3, [r4]
 5115 25da EAE0     		b	.L195
 5116              	.L203:
 468:../Sources/main.c **** 			if (servang < 1250) {
 5117              		.loc 1 468 0
 5118 25dc D721     		mov	r1, #215
 5119 25de 8900     		lsl	r1, r1, #2
 5120 25e0 C919     		add	r1, r1, r7
 5121 25e2 0A68     		ldr	r2, [r1]
 5122 25e4 2A4B     		ldr	r3, .L364+24
 5123 25e6 9A42     		cmp	r2, r3
 5124 25e8 36DC     		bgt	.L196
 469:../Sources/main.c **** 				grausaida = nb;
 5125              		.loc 1 469 0
 5126 25ea DE22     		mov	r2, #222
 5127 25ec 9200     		lsl	r2, r2, #2
 5128 25ee D219     		add	r2, r2, r7
 5129 25f0 1368     		ldr	r3, [r2]
 5130 25f2 5468     		ldr	r4, [r2, #4]
 5131 25f4 D421     		mov	r1, #212
 5132 25f6 8900     		lsl	r1, r1, #2
 5133 25f8 C919     		add	r1, r1, r7
 5134 25fa 0B60     		str	r3, [r1]
 5135 25fc 4C60     		str	r4, [r1, #4]
 470:../Sources/main.c **** 				if (area[i] <= grausaida)
 5136              		.loc 1 470 0
 5137 25fe 264B     		ldr	r3, .L364+32
 5138 2600 EC24     		mov	r4, #236
 5139 2602 A400     		lsl	r4, r4, #2
 5140 2604 E419     		add	r4, r4, r7
 5141 2606 E218     		add	r2, r4, r3
 5142 2608 EB21     		mov	r1, #235
 5143 260a 8900     		lsl	r1, r1, #2
 5144 260c C919     		add	r1, r1, r7
 5145 260e 0B68     		ldr	r3, [r1]
 5146 2610 DB00     		lsl	r3, r3, #3
 5147 2612 D318     		add	r3, r2, r3
 5148 2614 5C68     		ldr	r4, [r3, #4]
 5149 2616 1B68     		ldr	r3, [r3]
 5150 2618 181C     		mov	r0, r3
 5151 261a 211C     		mov	r1, r4
 5152 261c D424     		mov	r4, #212
 5153 261e A400     		lsl	r4, r4, #2
 5154 2620 E419     		add	r4, r4, r7
 5155 2622 2268     		ldr	r2, [r4]
 5156 2624 6368     		ldr	r3, [r4, #4]
 5157 2626 FFF7FEFF 		bl	__aeabi_dcmple
 5158 262a 031C     		mov	r3, r0
 5159 262c 002B     		cmp	r3, #0
 5160 262e 00D1     		bne	.LCB4488
 5161 2630 ADE0     		b	.L197	@long jump
 5162              	.LCB4488:
 5163              	.L305:
 471:../Sources/main.c **** 					area[i] = grausaida;
 5164              		.loc 1 471 0
 5165 2632 194B     		ldr	r3, .L364+32
 5166 2634 EC21     		mov	r1, #236
 5167 2636 8900     		lsl	r1, r1, #2
 5168 2638 C919     		add	r1, r1, r7
 5169 263a CA18     		add	r2, r1, r3
 5170 263c EB24     		mov	r4, #235
 5171 263e A400     		lsl	r4, r4, #2
 5172 2640 E419     		add	r4, r4, r7
 5173 2642 2368     		ldr	r3, [r4]
 5174 2644 DB00     		lsl	r3, r3, #3
 5175 2646 D218     		add	r2, r2, r3
 5176 2648 D421     		mov	r1, #212
 5177 264a 8900     		lsl	r1, r1, #2
 5178 264c C919     		add	r1, r1, r7
 5179 264e 0B68     		ldr	r3, [r1]
 5180 2650 4C68     		ldr	r4, [r1, #4]
 5181 2652 1360     		str	r3, [r2]
 5182 2654 5460     		str	r4, [r2, #4]
 5183 2656 9AE0     		b	.L197
 5184              	.L196:
 472:../Sources/main.c **** 
 473:../Sources/main.c **** 			} else if (servang > 1375) {
 5185              		.loc 1 473 0
 5186 2658 D723     		mov	r3, #215
 5187 265a 9B00     		lsl	r3, r3, #2
 5188 265c DB19     		add	r3, r3, r7
 5189 265e 1A68     		ldr	r2, [r3]
 5190 2660 0C4B     		ldr	r3, .L364+28
 5191 2662 9A42     		cmp	r2, r3
 5192 2664 1ADD     		ble	.L199
 474:../Sources/main.c **** 				grausaida = 0;
 5193              		.loc 1 474 0
 5194 2666 084B     		ldr	r3, .L364+16
 5195 2668 084C     		ldr	r4, .L364+20
 5196 266a D421     		mov	r1, #212
 5197 266c 8900     		lsl	r1, r1, #2
 5198 266e C919     		add	r1, r1, r7
 5199 2670 0B60     		str	r3, [r1]
 5200 2672 4C60     		str	r4, [r1, #4]
 5201 2674 8BE0     		b	.L197
 5202              	.L365:
 5203 2676 C046     		.align	3
 5204              	.L364:
 5205 2678 00000000 		.word	0
 5206 267c 00405FC0 		.word	-1067499520
 5207 2680 00000000 		.word	0
 5208 2684 00002640 		.word	1076232192
 5209 2688 00000000 		.word	0
 5210 268c 00000000 		.word	0
 5211 2690 E1040000 		.word	1249
 5212 2694 5F050000 		.word	1375
 5213 2698 50FCFFFF 		.word	-944
 5214              	.L199:
 475:../Sources/main.c **** 			} else if (servang >= 1250 && servang <= 1375) {
 5215              		.loc 1 475 0
 5216 269c D723     		mov	r3, #215
 5217 269e 9B00     		lsl	r3, r3, #2
 5218 26a0 DB19     		add	r3, r3, r7
 5219 26a2 1A68     		ldr	r2, [r3]
 5220 26a4 B64B     		ldr	r3, .L366+32
 5221 26a6 9A42     		cmp	r2, r3
 5222 26a8 71DD     		ble	.L197
 5223              		.loc 1 475 0 is_stmt 0
 5224 26aa D724     		mov	r4, #215
 5225 26ac A400     		lsl	r4, r4, #2
 5226 26ae E419     		add	r4, r4, r7
 5227 26b0 2268     		ldr	r2, [r4]
 5228 26b2 B44B     		ldr	r3, .L366+36
 5229 26b4 9A42     		cmp	r2, r3
 5230 26b6 6ADC     		bgt	.L197
 476:../Sources/main.c **** 
 477:../Sources/main.c **** 				grausaida = ((float) (servang / (-125.0))) + (11.0); // reta a
 5231              		.loc 1 477 0 is_stmt 1
 5232 26b8 D721     		mov	r1, #215
 5233 26ba 8900     		lsl	r1, r1, #2
 5234 26bc C919     		add	r1, r1, r7
 5235 26be 0868     		ldr	r0, [r1]
 5236 26c0 FFF7FEFF 		bl	__aeabi_i2d
 5237 26c4 031C     		mov	r3, r0
 5238 26c6 0C1C     		mov	r4, r1
 5239 26c8 181C     		mov	r0, r3
 5240 26ca 211C     		mov	r1, r4
 5241 26cc A54B     		ldr	r3, .L366+4
 5242 26ce A44A     		ldr	r2, .L366
 5243 26d0 FFF7FEFF 		bl	__aeabi_ddiv
 5244 26d4 031C     		mov	r3, r0
 5245 26d6 0C1C     		mov	r4, r1
 5246 26d8 181C     		mov	r0, r3
 5247 26da 211C     		mov	r1, r4
 5248 26dc FFF7FEFF 		bl	__aeabi_d2f
 5249 26e0 031C     		add	r3, r0, #0
 5250 26e2 181C     		add	r0, r3, #0
 5251 26e4 FFF7FEFF 		bl	__aeabi_f2d
 5252 26e8 031C     		mov	r3, r0
 5253 26ea 0C1C     		mov	r4, r1
 5254 26ec 181C     		mov	r0, r3
 5255 26ee 211C     		mov	r1, r4
 5256 26f0 9D4A     		ldr	r2, .L366+8
 5257 26f2 9E4B     		ldr	r3, .L366+12
 5258 26f4 FFF7FEFF 		bl	__aeabi_dadd
 5259 26f8 031C     		mov	r3, r0
 5260 26fa 0C1C     		mov	r4, r1
 5261 26fc D422     		mov	r2, #212
 5262 26fe 9200     		lsl	r2, r2, #2
 5263 2700 D219     		add	r2, r2, r7
 5264 2702 1360     		str	r3, [r2]
 5265 2704 5460     		str	r4, [r2, #4]
 478:../Sources/main.c **** 				if (grausaida > nb)
 5266              		.loc 1 478 0
 5267 2706 D423     		mov	r3, #212
 5268 2708 9B00     		lsl	r3, r3, #2
 5269 270a DB19     		add	r3, r3, r7
 5270 270c 1868     		ldr	r0, [r3]
 5271 270e 5968     		ldr	r1, [r3, #4]
 5272 2710 DE24     		mov	r4, #222
 5273 2712 A400     		lsl	r4, r4, #2
 5274 2714 E419     		add	r4, r4, r7
 5275 2716 2268     		ldr	r2, [r4]
 5276 2718 6368     		ldr	r3, [r4, #4]
 5277 271a FFF7FEFF 		bl	__aeabi_dcmpgt
 5278 271e 031C     		mov	r3, r0
 5279 2720 002B     		cmp	r3, #0
 5280 2722 09D0     		beq	.L200
 5281              	.L306:
 479:../Sources/main.c **** 					grausaida = nb;
 5282              		.loc 1 479 0
 5283 2724 DE21     		mov	r1, #222
 5284 2726 8900     		lsl	r1, r1, #2
 5285 2728 C919     		add	r1, r1, r7
 5286 272a 0B68     		ldr	r3, [r1]
 5287 272c 4C68     		ldr	r4, [r1, #4]
 5288 272e D422     		mov	r2, #212
 5289 2730 9200     		lsl	r2, r2, #2
 5290 2732 D219     		add	r2, r2, r7
 5291 2734 1360     		str	r3, [r2]
 5292 2736 5460     		str	r4, [r2, #4]
 5293              	.L200:
 480:../Sources/main.c **** 				if (area[i] <= grausaida)
 5294              		.loc 1 480 0
 5295 2738 934B     		ldr	r3, .L366+40
 5296 273a EC24     		mov	r4, #236
 5297 273c A400     		lsl	r4, r4, #2
 5298 273e E419     		add	r4, r4, r7
 5299 2740 E218     		add	r2, r4, r3
 5300 2742 EB21     		mov	r1, #235
 5301 2744 8900     		lsl	r1, r1, #2
 5302 2746 C919     		add	r1, r1, r7
 5303 2748 0B68     		ldr	r3, [r1]
 5304 274a DB00     		lsl	r3, r3, #3
 5305 274c D318     		add	r3, r2, r3
 5306 274e 5C68     		ldr	r4, [r3, #4]
 5307 2750 1B68     		ldr	r3, [r3]
 5308 2752 181C     		mov	r0, r3
 5309 2754 211C     		mov	r1, r4
 5310 2756 D424     		mov	r4, #212
 5311 2758 A400     		lsl	r4, r4, #2
 5312 275a E419     		add	r4, r4, r7
 5313 275c 2268     		ldr	r2, [r4]
 5314 275e 6368     		ldr	r3, [r4, #4]
 5315 2760 FFF7FEFF 		bl	__aeabi_dcmple
 5316 2764 031C     		mov	r3, r0
 5317 2766 002B     		cmp	r3, #0
 5318 2768 11D0     		beq	.L197
 5319              	.L307:
 481:../Sources/main.c **** 					area[i] = grausaida;
 5320              		.loc 1 481 0
 5321 276a 874B     		ldr	r3, .L366+40
 5322 276c EC21     		mov	r1, #236
 5323 276e 8900     		lsl	r1, r1, #2
 5324 2770 C919     		add	r1, r1, r7
 5325 2772 CA18     		add	r2, r1, r3
 5326 2774 EB24     		mov	r4, #235
 5327 2776 A400     		lsl	r4, r4, #2
 5328 2778 E419     		add	r4, r4, r7
 5329 277a 2368     		ldr	r3, [r4]
 5330 277c DB00     		lsl	r3, r3, #3
 5331 277e D218     		add	r2, r2, r3
 5332 2780 D421     		mov	r1, #212
 5333 2782 8900     		lsl	r1, r1, #2
 5334 2784 C919     		add	r1, r1, r7
 5335 2786 0B68     		ldr	r3, [r1]
 5336 2788 4C68     		ldr	r4, [r1, #4]
 5337 278a 1360     		str	r3, [r2]
 5338 278c 5460     		str	r4, [r2, #4]
 5339              	.L197:
 482:../Sources/main.c **** 			}
 483:../Sources/main.c **** 
 484:../Sources/main.c **** 			servang = servang + 10;
 5340              		.loc 1 484 0
 5341 278e D722     		mov	r2, #215
 5342 2790 9200     		lsl	r2, r2, #2
 5343 2792 D219     		add	r2, r2, r7
 5344 2794 1368     		ldr	r3, [r2]
 5345 2796 0A33     		add	r3, r3, #10
 5346 2798 D724     		mov	r4, #215
 5347 279a A400     		lsl	r4, r4, #2
 5348 279c E419     		add	r4, r4, r7
 5349 279e 2360     		str	r3, [r4]
 467:../Sources/main.c **** 		for (i = 0; i < 100; i++) {
 5350              		.loc 1 467 0
 5351 27a0 EB21     		mov	r1, #235
 5352 27a2 8900     		lsl	r1, r1, #2
 5353 27a4 C919     		add	r1, r1, r7
 5354 27a6 0B68     		ldr	r3, [r1]
 5355 27a8 0133     		add	r3, r3, #1
 5356 27aa EB22     		mov	r2, #235
 5357 27ac 9200     		lsl	r2, r2, #2
 5358 27ae D219     		add	r2, r2, r7
 5359 27b0 1360     		str	r3, [r2]
 5360              	.L195:
 467:../Sources/main.c **** 		for (i = 0; i < 100; i++) {
 5361              		.loc 1 467 0 is_stmt 0
 5362 27b2 EB24     		mov	r4, #235
 5363 27b4 A400     		lsl	r4, r4, #2
 5364 27b6 E419     		add	r4, r4, r7
 5365 27b8 2368     		ldr	r3, [r4]
 5366 27ba 632B     		cmp	r3, #99
 5367 27bc 00DC     		bgt	.LCB4671
 5368 27be 0DE7     		b	.L203	@long jump
 5369              	.LCB4671:
 485:../Sources/main.c **** 		}
 486:../Sources/main.c **** 
 487:../Sources/main.c **** 		servang = 1000;
 5370              		.loc 1 487 0 is_stmt 1
 5371 27c0 FA23     		mov	r3, #250
 5372 27c2 9B00     		lsl	r3, r3, #2
 5373 27c4 D721     		mov	r1, #215
 5374 27c6 8900     		lsl	r1, r1, #2
 5375 27c8 C919     		add	r1, r1, r7
 5376 27ca 0B60     		str	r3, [r1]
 488:../Sources/main.c **** //--------- R e M-----------
 489:../Sources/main.c **** 		if (graum < graura) {
 5377              		.loc 1 489 0
 5378 27cc CA22     		mov	r2, #202
 5379 27ce 9200     		lsl	r2, r2, #2
 5380 27d0 D219     		add	r2, r2, r7
 5381 27d2 1368     		ldr	r3, [r2]
 5382 27d4 181C     		add	r0, r3, #0
 5383 27d6 FFF7FEFF 		bl	__aeabi_f2d
 5384 27da 031C     		mov	r3, r0
 5385 27dc 0C1C     		mov	r4, r1
 5386 27de 181C     		mov	r0, r3
 5387 27e0 211C     		mov	r1, r4
 5388 27e2 E224     		mov	r4, #226
 5389 27e4 A400     		lsl	r4, r4, #2
 5390 27e6 E419     		add	r4, r4, r7
 5391 27e8 2268     		ldr	r2, [r4]
 5392 27ea 6368     		ldr	r3, [r4, #4]
 5393 27ec FFF7FEFF 		bl	__aeabi_dcmplt
 5394 27f0 031C     		mov	r3, r0
 5395 27f2 002B     		cmp	r3, #0
 5396 27f4 0ED0     		beq	.L335
 5397              	.L308:
 490:../Sources/main.c **** 			z = graum;
 5398              		.loc 1 490 0
 5399 27f6 CA21     		mov	r1, #202
 5400 27f8 8900     		lsl	r1, r1, #2
 5401 27fa C919     		add	r1, r1, r7
 5402 27fc 0B68     		ldr	r3, [r1]
 5403 27fe 181C     		add	r0, r3, #0
 5404 2800 FFF7FEFF 		bl	__aeabi_f2d
 5405 2804 031C     		mov	r3, r0
 5406 2806 0C1C     		mov	r4, r1
 5407 2808 DC22     		mov	r2, #220
 5408 280a 9200     		lsl	r2, r2, #2
 5409 280c D219     		add	r2, r2, r7
 5410 280e 1360     		str	r3, [r2]
 5411 2810 5460     		str	r4, [r2, #4]
 5412 2812 09E0     		b	.L206
 5413              	.L335:
 491:../Sources/main.c **** 		} else
 492:../Sources/main.c **** 			z = graura;
 5414              		.loc 1 492 0
 5415 2814 E221     		mov	r1, #226
 5416 2816 8900     		lsl	r1, r1, #2
 5417 2818 C919     		add	r1, r1, r7
 5418 281a 0B68     		ldr	r3, [r1]
 5419 281c 4C68     		ldr	r4, [r1, #4]
 5420 281e DC22     		mov	r2, #220
 5421 2820 9200     		lsl	r2, r2, #2
 5422 2822 D219     		add	r2, r2, r7
 5423 2824 1360     		str	r3, [r2]
 5424 2826 5460     		str	r4, [r2, #4]
 5425              	.L206:
 493:../Sources/main.c **** 
 494:../Sources/main.c **** 		for (i = 0; i < 100; i++) {
 5426              		.loc 1 494 0
 5427 2828 0023     		mov	r3, #0
 5428 282a EB24     		mov	r4, #235
 5429 282c A400     		lsl	r4, r4, #2
 5430 282e E419     		add	r4, r4, r7
 5431 2830 2360     		str	r3, [r4]
 5432 2832 3FE1     		b	.L207
 5433              	.L219:
 495:../Sources/main.c **** 			if (servang < 1375 || servang > 1625) {
 5434              		.loc 1 495 0
 5435 2834 D721     		mov	r1, #215
 5436 2836 8900     		lsl	r1, r1, #2
 5437 2838 C919     		add	r1, r1, r7
 5438 283a 0A68     		ldr	r2, [r1]
 5439 283c 534B     		ldr	r3, .L366+44
 5440 283e 9A42     		cmp	r2, r3
 5441 2840 06DD     		ble	.L208
 5442              		.loc 1 495 0 is_stmt 0
 5443 2842 D723     		mov	r3, #215
 5444 2844 9B00     		lsl	r3, r3, #2
 5445 2846 DB19     		add	r3, r3, r7
 5446 2848 1A68     		ldr	r2, [r3]
 5447 284a 514B     		ldr	r3, .L366+48
 5448 284c 9A42     		cmp	r2, r3
 5449 284e 07DD     		ble	.L209
 5450              	.L208:
 496:../Sources/main.c **** 				grausaida = 0;
 5451              		.loc 1 496 0 is_stmt 1
 5452 2850 474B     		ldr	r3, .L366+16
 5453 2852 484C     		ldr	r4, .L366+20
 5454 2854 D421     		mov	r1, #212
 5455 2856 8900     		lsl	r1, r1, #2
 5456 2858 C919     		add	r1, r1, r7
 5457 285a 0B60     		str	r3, [r1]
 5458 285c 4C60     		str	r4, [r1, #4]
 5459 285e 17E1     		b	.L210
 5460              	.L209:
 497:../Sources/main.c **** 				//if(area[i]<=grausaida) area[i]=grausaida;
 498:../Sources/main.c **** 
 499:../Sources/main.c **** 			} else if (servang >= 1375 && servang <= 1500) {
 5461              		.loc 1 499 0
 5462 2860 D723     		mov	r3, #215
 5463 2862 9B00     		lsl	r3, r3, #2
 5464 2864 DB19     		add	r3, r3, r7
 5465 2866 1A68     		ldr	r2, [r3]
 5466 2868 484B     		ldr	r3, .L366+44
 5467 286a 9A42     		cmp	r2, r3
 5468 286c 00DC     		bgt	.LCB4762
 5469 286e 93E0     		b	.L211	@long jump
 5470              	.LCB4762:
 5471              		.loc 1 499 0 is_stmt 0
 5472 2870 D724     		mov	r4, #215
 5473 2872 A400     		lsl	r4, r4, #2
 5474 2874 E419     		add	r4, r4, r7
 5475 2876 2268     		ldr	r2, [r4]
 5476 2878 464B     		ldr	r3, .L366+52
 5477 287a 9A42     		cmp	r2, r3
 5478 287c 00DD     		ble	.LCB4769
 5479 287e 8BE0     		b	.L211	@long jump
 5480              	.LCB4769:
 500:../Sources/main.c **** 
 501:../Sources/main.c **** 				grausaida = ((float) (servang / 125.0)) - (11.0); // reta d
 5481              		.loc 1 501 0 is_stmt 1
 5482 2880 D721     		mov	r1, #215
 5483 2882 8900     		lsl	r1, r1, #2
 5484 2884 C919     		add	r1, r1, r7
 5485 2886 0868     		ldr	r0, [r1]
 5486 2888 FFF7FEFF 		bl	__aeabi_i2d
 5487 288c 031C     		mov	r3, r0
 5488 288e 0C1C     		mov	r4, r1
 5489 2890 181C     		mov	r0, r3
 5490 2892 211C     		mov	r1, r4
 5491 2894 384A     		ldr	r2, .L366+24
 5492 2896 394B     		ldr	r3, .L366+28
 5493 2898 FFF7FEFF 		bl	__aeabi_ddiv
 5494 289c 031C     		mov	r3, r0
 5495 289e 0C1C     		mov	r4, r1
 5496 28a0 181C     		mov	r0, r3
 5497 28a2 211C     		mov	r1, r4
 5498 28a4 FFF7FEFF 		bl	__aeabi_d2f
 5499 28a8 031C     		add	r3, r0, #0
 5500 28aa 181C     		add	r0, r3, #0
 5501 28ac FFF7FEFF 		bl	__aeabi_f2d
 5502 28b0 031C     		mov	r3, r0
 5503 28b2 0C1C     		mov	r4, r1
 5504 28b4 181C     		mov	r0, r3
 5505 28b6 211C     		mov	r1, r4
 5506 28b8 2B4A     		ldr	r2, .L366+8
 5507 28ba 2C4B     		ldr	r3, .L366+12
 5508 28bc FFF7FEFF 		bl	__aeabi_dsub
 5509 28c0 031C     		mov	r3, r0
 5510 28c2 0C1C     		mov	r4, r1
 5511 28c4 D422     		mov	r2, #212
 5512 28c6 9200     		lsl	r2, r2, #2
 5513 28c8 D219     		add	r2, r2, r7
 5514 28ca 1360     		str	r3, [r2]
 5515 28cc 5460     		str	r4, [r2, #4]
 502:../Sources/main.c **** 				if (grausaida > z)
 5516              		.loc 1 502 0
 5517 28ce D423     		mov	r3, #212
 5518 28d0 9B00     		lsl	r3, r3, #2
 5519 28d2 DB19     		add	r3, r3, r7
 5520 28d4 1868     		ldr	r0, [r3]
 5521 28d6 5968     		ldr	r1, [r3, #4]
 5522 28d8 DC24     		mov	r4, #220
 5523 28da A400     		lsl	r4, r4, #2
 5524 28dc E419     		add	r4, r4, r7
 5525 28de 2268     		ldr	r2, [r4]
 5526 28e0 6368     		ldr	r3, [r4, #4]
 5527 28e2 FFF7FEFF 		bl	__aeabi_dcmpgt
 5528 28e6 031C     		mov	r3, r0
 5529 28e8 002B     		cmp	r3, #0
 5530 28ea 09D0     		beq	.L212
 5531              	.L309:
 503:../Sources/main.c **** 					grausaida = z;
 5532              		.loc 1 503 0
 5533 28ec DC21     		mov	r1, #220
 5534 28ee 8900     		lsl	r1, r1, #2
 5535 28f0 C919     		add	r1, r1, r7
 5536 28f2 0B68     		ldr	r3, [r1]
 5537 28f4 4C68     		ldr	r4, [r1, #4]
 5538 28f6 D422     		mov	r2, #212
 5539 28f8 9200     		lsl	r2, r2, #2
 5540 28fa D219     		add	r2, r2, r7
 5541 28fc 1360     		str	r3, [r2]
 5542 28fe 5460     		str	r4, [r2, #4]
 5543              	.L212:
 504:../Sources/main.c **** 				if (area[i] <= grausaida)
 5544              		.loc 1 504 0
 5545 2900 214B     		ldr	r3, .L366+40
 5546 2902 EC24     		mov	r4, #236
 5547 2904 A400     		lsl	r4, r4, #2
 5548 2906 E419     		add	r4, r4, r7
 5549 2908 E218     		add	r2, r4, r3
 5550 290a EB21     		mov	r1, #235
 5551 290c 8900     		lsl	r1, r1, #2
 5552 290e C919     		add	r1, r1, r7
 5553 2910 0B68     		ldr	r3, [r1]
 5554 2912 DB00     		lsl	r3, r3, #3
 5555 2914 D318     		add	r3, r2, r3
 5556 2916 5C68     		ldr	r4, [r3, #4]
 5557 2918 1B68     		ldr	r3, [r3]
 5558 291a 181C     		mov	r0, r3
 5559 291c 211C     		mov	r1, r4
 5560 291e D424     		mov	r4, #212
 5561 2920 A400     		lsl	r4, r4, #2
 5562 2922 E419     		add	r4, r4, r7
 5563 2924 2268     		ldr	r2, [r4]
 5564 2926 6368     		ldr	r3, [r4, #4]
 5565 2928 FFF7FEFF 		bl	__aeabi_dcmple
 5566 292c 031C     		mov	r3, r0
 5567 292e 002B     		cmp	r3, #0
 5568 2930 00D1     		bne	.LCB4845
 5569 2932 ADE0     		b	.L210	@long jump
 5570              	.LCB4845:
 5571              	.L310:
 505:../Sources/main.c **** 					area[i] = grausaida;
 5572              		.loc 1 505 0
 5573 2934 144B     		ldr	r3, .L366+40
 5574 2936 EC21     		mov	r1, #236
 5575 2938 8900     		lsl	r1, r1, #2
 5576 293a C919     		add	r1, r1, r7
 5577 293c CA18     		add	r2, r1, r3
 5578 293e EB24     		mov	r4, #235
 5579 2940 A400     		lsl	r4, r4, #2
 5580 2942 E419     		add	r4, r4, r7
 5581 2944 2368     		ldr	r3, [r4]
 5582 2946 DB00     		lsl	r3, r3, #3
 5583 2948 D218     		add	r2, r2, r3
 5584 294a D421     		mov	r1, #212
 5585 294c 8900     		lsl	r1, r1, #2
 5586 294e C919     		add	r1, r1, r7
 5587 2950 0B68     		ldr	r3, [r1]
 5588 2952 4C68     		ldr	r4, [r1, #4]
 5589 2954 1360     		str	r3, [r2]
 5590 2956 5460     		str	r4, [r2, #4]
 504:../Sources/main.c **** 				if (area[i] <= grausaida)
 5591              		.loc 1 504 0
 5592 2958 9AE0     		b	.L210
 5593              	.L367:
 5594 295a C046C046 		.align	3
 5594      C046
 5595              	.L366:
 5596 2960 00000000 		.word	0
 5597 2964 00405FC0 		.word	-1067499520
 5598 2968 00000000 		.word	0
 5599 296c 00002640 		.word	1076232192
 5600 2970 00000000 		.word	0
 5601 2974 00000000 		.word	0
 5602 2978 00000000 		.word	0
 5603 297c 00405F40 		.word	1079984128
 5604 2980 E1040000 		.word	1249
 5605 2984 5F050000 		.word	1375
 5606 2988 50FCFFFF 		.word	-944
 5607 298c 5E050000 		.word	1374
 5608 2990 59060000 		.word	1625
 5609 2994 DC050000 		.word	1500
 5610              	.L211:
 506:../Sources/main.c **** 			}
 507:../Sources/main.c **** 
 508:../Sources/main.c **** 			else if (servang >= 1500 && servang <= 1625) {
 5611              		.loc 1 508 0
 5612 2998 D723     		mov	r3, #215
 5613 299a 9B00     		lsl	r3, r3, #2
 5614 299c DB19     		add	r3, r3, r7
 5615 299e 1A68     		ldr	r2, [r3]
 5616 29a0 8D4B     		ldr	r3, .L368+24
 5617 29a2 9A42     		cmp	r2, r3
 5618 29a4 00DC     		bgt	.LCB4888
 5619 29a6 73E0     		b	.L210	@long jump
 5620              	.LCB4888:
 5621              		.loc 1 508 0 is_stmt 0
 5622 29a8 D724     		mov	r4, #215
 5623 29aa A400     		lsl	r4, r4, #2
 5624 29ac E419     		add	r4, r4, r7
 5625 29ae 2268     		ldr	r2, [r4]
 5626 29b0 8A4B     		ldr	r3, .L368+28
 5627 29b2 9A42     		cmp	r2, r3
 5628 29b4 6CDC     		bgt	.L210
 509:../Sources/main.c **** 
 510:../Sources/main.c **** 				grausaida = ((float) (-servang / 125.0)) + (13.0); //reta e
 5629              		.loc 1 510 0 is_stmt 1
 5630 29b6 D721     		mov	r1, #215
 5631 29b8 8900     		lsl	r1, r1, #2
 5632 29ba C919     		add	r1, r1, r7
 5633 29bc 0B68     		ldr	r3, [r1]
 5634 29be 5B42     		neg	r3, r3
 5635 29c0 181C     		mov	r0, r3
 5636 29c2 FFF7FEFF 		bl	__aeabi_i2d
 5637 29c6 031C     		mov	r3, r0
 5638 29c8 0C1C     		mov	r4, r1
 5639 29ca 181C     		mov	r0, r3
 5640 29cc 211C     		mov	r1, r4
 5641 29ce 7D4B     		ldr	r3, .L368+4
 5642 29d0 7B4A     		ldr	r2, .L368
 5643 29d2 FFF7FEFF 		bl	__aeabi_ddiv
 5644 29d6 031C     		mov	r3, r0
 5645 29d8 0C1C     		mov	r4, r1
 5646 29da 181C     		mov	r0, r3
 5647 29dc 211C     		mov	r1, r4
 5648 29de FFF7FEFF 		bl	__aeabi_d2f
 5649 29e2 031C     		add	r3, r0, #0
 5650 29e4 181C     		add	r0, r3, #0
 5651 29e6 FFF7FEFF 		bl	__aeabi_f2d
 5652 29ea 031C     		mov	r3, r0
 5653 29ec 0C1C     		mov	r4, r1
 5654 29ee 181C     		mov	r0, r3
 5655 29f0 211C     		mov	r1, r4
 5656 29f2 754A     		ldr	r2, .L368+8
 5657 29f4 754B     		ldr	r3, .L368+12
 5658 29f6 FFF7FEFF 		bl	__aeabi_dadd
 5659 29fa 031C     		mov	r3, r0
 5660 29fc 0C1C     		mov	r4, r1
 5661 29fe D422     		mov	r2, #212
 5662 2a00 9200     		lsl	r2, r2, #2
 5663 2a02 D219     		add	r2, r2, r7
 5664 2a04 1360     		str	r3, [r2]
 5665 2a06 5460     		str	r4, [r2, #4]
 511:../Sources/main.c **** 				if (grausaida > z)
 5666              		.loc 1 511 0
 5667 2a08 D423     		mov	r3, #212
 5668 2a0a 9B00     		lsl	r3, r3, #2
 5669 2a0c DB19     		add	r3, r3, r7
 5670 2a0e 1868     		ldr	r0, [r3]
 5671 2a10 5968     		ldr	r1, [r3, #4]
 5672 2a12 DC24     		mov	r4, #220
 5673 2a14 A400     		lsl	r4, r4, #2
 5674 2a16 E419     		add	r4, r4, r7
 5675 2a18 2268     		ldr	r2, [r4]
 5676 2a1a 6368     		ldr	r3, [r4, #4]
 5677 2a1c FFF7FEFF 		bl	__aeabi_dcmpgt
 5678 2a20 031C     		mov	r3, r0
 5679 2a22 002B     		cmp	r3, #0
 5680 2a24 09D0     		beq	.L216
 5681              	.L311:
 512:../Sources/main.c **** 					grausaida = z;
 5682              		.loc 1 512 0
 5683 2a26 DC21     		mov	r1, #220
 5684 2a28 8900     		lsl	r1, r1, #2
 5685 2a2a C919     		add	r1, r1, r7
 5686 2a2c 0B68     		ldr	r3, [r1]
 5687 2a2e 4C68     		ldr	r4, [r1, #4]
 5688 2a30 D422     		mov	r2, #212
 5689 2a32 9200     		lsl	r2, r2, #2
 5690 2a34 D219     		add	r2, r2, r7
 5691 2a36 1360     		str	r3, [r2]
 5692 2a38 5460     		str	r4, [r2, #4]
 5693              	.L216:
 513:../Sources/main.c **** 				if (area[i] <= grausaida)
 5694              		.loc 1 513 0
 5695 2a3a 694B     		ldr	r3, .L368+32
 5696 2a3c EC24     		mov	r4, #236
 5697 2a3e A400     		lsl	r4, r4, #2
 5698 2a40 E419     		add	r4, r4, r7
 5699 2a42 E218     		add	r2, r4, r3
 5700 2a44 EB21     		mov	r1, #235
 5701 2a46 8900     		lsl	r1, r1, #2
 5702 2a48 C919     		add	r1, r1, r7
 5703 2a4a 0B68     		ldr	r3, [r1]
 5704 2a4c DB00     		lsl	r3, r3, #3
 5705 2a4e D318     		add	r3, r2, r3
 5706 2a50 5C68     		ldr	r4, [r3, #4]
 5707 2a52 1B68     		ldr	r3, [r3]
 5708 2a54 181C     		mov	r0, r3
 5709 2a56 211C     		mov	r1, r4
 5710 2a58 D424     		mov	r4, #212
 5711 2a5a A400     		lsl	r4, r4, #2
 5712 2a5c E419     		add	r4, r4, r7
 5713 2a5e 2268     		ldr	r2, [r4]
 5714 2a60 6368     		ldr	r3, [r4, #4]
 5715 2a62 FFF7FEFF 		bl	__aeabi_dcmple
 5716 2a66 031C     		mov	r3, r0
 5717 2a68 002B     		cmp	r3, #0
 5718 2a6a 11D0     		beq	.L210
 5719              	.L312:
 514:../Sources/main.c **** 					area[i] = grausaida;
 5720              		.loc 1 514 0
 5721 2a6c 5C4B     		ldr	r3, .L368+32
 5722 2a6e EC21     		mov	r1, #236
 5723 2a70 8900     		lsl	r1, r1, #2
 5724 2a72 C919     		add	r1, r1, r7
 5725 2a74 CA18     		add	r2, r1, r3
 5726 2a76 EB24     		mov	r4, #235
 5727 2a78 A400     		lsl	r4, r4, #2
 5728 2a7a E419     		add	r4, r4, r7
 5729 2a7c 2368     		ldr	r3, [r4]
 5730 2a7e DB00     		lsl	r3, r3, #3
 5731 2a80 D218     		add	r2, r2, r3
 5732 2a82 D421     		mov	r1, #212
 5733 2a84 8900     		lsl	r1, r1, #2
 5734 2a86 C919     		add	r1, r1, r7
 5735 2a88 0B68     		ldr	r3, [r1]
 5736 2a8a 4C68     		ldr	r4, [r1, #4]
 5737 2a8c 1360     		str	r3, [r2]
 5738 2a8e 5460     		str	r4, [r2, #4]
 5739              	.L210:
 515:../Sources/main.c **** 			}
 516:../Sources/main.c **** 			servang = servang + 10;
 5740              		.loc 1 516 0
 5741 2a90 D722     		mov	r2, #215
 5742 2a92 9200     		lsl	r2, r2, #2
 5743 2a94 D219     		add	r2, r2, r7
 5744 2a96 1368     		ldr	r3, [r2]
 5745 2a98 0A33     		add	r3, r3, #10
 5746 2a9a D724     		mov	r4, #215
 5747 2a9c A400     		lsl	r4, r4, #2
 5748 2a9e E419     		add	r4, r4, r7
 5749 2aa0 2360     		str	r3, [r4]
 494:../Sources/main.c **** 		for (i = 0; i < 100; i++) {
 5750              		.loc 1 494 0
 5751 2aa2 EB21     		mov	r1, #235
 5752 2aa4 8900     		lsl	r1, r1, #2
 5753 2aa6 C919     		add	r1, r1, r7
 5754 2aa8 0B68     		ldr	r3, [r1]
 5755 2aaa 0133     		add	r3, r3, #1
 5756 2aac EB22     		mov	r2, #235
 5757 2aae 9200     		lsl	r2, r2, #2
 5758 2ab0 D219     		add	r2, r2, r7
 5759 2ab2 1360     		str	r3, [r2]
 5760              	.L207:
 494:../Sources/main.c **** 		for (i = 0; i < 100; i++) {
 5761              		.loc 1 494 0 is_stmt 0
 5762 2ab4 EB24     		mov	r4, #235
 5763 2ab6 A400     		lsl	r4, r4, #2
 5764 2ab8 E419     		add	r4, r4, r7
 5765 2aba 2368     		ldr	r3, [r4]
 5766 2abc 632B     		cmp	r3, #99
 5767 2abe 00DC     		bgt	.LCB5018
 5768 2ac0 B8E6     		b	.L219	@long jump
 5769              	.LCB5018:
 517:../Sources/main.c **** 		}
 518:../Sources/main.c **** 		servang = 1000;
 5770              		.loc 1 518 0 is_stmt 1
 5771 2ac2 FA23     		mov	r3, #250
 5772 2ac4 9B00     		lsl	r3, r3, #2
 5773 2ac6 D721     		mov	r1, #215
 5774 2ac8 8900     		lsl	r1, r1, #2
 5775 2aca C919     		add	r1, r1, r7
 5776 2acc 0B60     		str	r3, [r1]
 519:../Sources/main.c **** //--------- R e R -----------
 520:../Sources/main.c **** 		if (graur < graura) {
 5777              		.loc 1 520 0
 5778 2ace E622     		mov	r2, #230
 5779 2ad0 9200     		lsl	r2, r2, #2
 5780 2ad2 D219     		add	r2, r2, r7
 5781 2ad4 1068     		ldr	r0, [r2]
 5782 2ad6 5168     		ldr	r1, [r2, #4]
 5783 2ad8 E224     		mov	r4, #226
 5784 2ada A400     		lsl	r4, r4, #2
 5785 2adc E419     		add	r4, r4, r7
 5786 2ade 2268     		ldr	r2, [r4]
 5787 2ae0 6368     		ldr	r3, [r4, #4]
 5788 2ae2 FFF7FEFF 		bl	__aeabi_dcmplt
 5789 2ae6 031C     		mov	r3, r0
 5790 2ae8 002B     		cmp	r3, #0
 5791 2aea 0AD0     		beq	.L336
 5792              	.L313:
 521:../Sources/main.c **** 			pb = graur;
 5793              		.loc 1 521 0
 5794 2aec E621     		mov	r1, #230
 5795 2aee 8900     		lsl	r1, r1, #2
 5796 2af0 C919     		add	r1, r1, r7
 5797 2af2 0B68     		ldr	r3, [r1]
 5798 2af4 4C68     		ldr	r4, [r1, #4]
 5799 2af6 D822     		mov	r2, #216
 5800 2af8 9200     		lsl	r2, r2, #2
 5801 2afa D219     		add	r2, r2, r7
 5802 2afc 1360     		str	r3, [r2]
 5803 2afe 5460     		str	r4, [r2, #4]
 5804 2b00 09E0     		b	.L222
 5805              	.L336:
 522:../Sources/main.c **** 		} else
 523:../Sources/main.c **** 			pb = graura;
 5806              		.loc 1 523 0
 5807 2b02 E221     		mov	r1, #226
 5808 2b04 8900     		lsl	r1, r1, #2
 5809 2b06 C919     		add	r1, r1, r7
 5810 2b08 0B68     		ldr	r3, [r1]
 5811 2b0a 4C68     		ldr	r4, [r1, #4]
 5812 2b0c D822     		mov	r2, #216
 5813 2b0e 9200     		lsl	r2, r2, #2
 5814 2b10 D219     		add	r2, r2, r7
 5815 2b12 1360     		str	r3, [r2]
 5816 2b14 5460     		str	r4, [r2, #4]
 5817              	.L222:
 524:../Sources/main.c **** 
 525:../Sources/main.c **** 		for (i = 0; i < 100; i++) {
 5818              		.loc 1 525 0
 5819 2b16 0023     		mov	r3, #0
 5820 2b18 EB24     		mov	r4, #235
 5821 2b1a A400     		lsl	r4, r4, #2
 5822 2b1c E419     		add	r4, r4, r7
 5823 2b1e 2360     		str	r3, [r4]
 5824 2b20 EEE0     		b	.L223
 5825              	.L231:
 526:../Sources/main.c **** 			if (servang > 1750) {
 5826              		.loc 1 526 0
 5827 2b22 D721     		mov	r1, #215
 5828 2b24 8900     		lsl	r1, r1, #2
 5829 2b26 C919     		add	r1, r1, r7
 5830 2b28 0A68     		ldr	r2, [r1]
 5831 2b2a 2E4B     		ldr	r3, .L368+36
 5832 2b2c 9A42     		cmp	r2, r3
 5833 2b2e 36DD     		ble	.L224
 527:../Sources/main.c **** 				grausaida = pb;
 5834              		.loc 1 527 0
 5835 2b30 D822     		mov	r2, #216
 5836 2b32 9200     		lsl	r2, r2, #2
 5837 2b34 D219     		add	r2, r2, r7
 5838 2b36 1368     		ldr	r3, [r2]
 5839 2b38 5468     		ldr	r4, [r2, #4]
 5840 2b3a D421     		mov	r1, #212
 5841 2b3c 8900     		lsl	r1, r1, #2
 5842 2b3e C919     		add	r1, r1, r7
 5843 2b40 0B60     		str	r3, [r1]
 5844 2b42 4C60     		str	r4, [r1, #4]
 528:../Sources/main.c **** 				if (area[i] <= grausaida)
 5845              		.loc 1 528 0
 5846 2b44 264B     		ldr	r3, .L368+32
 5847 2b46 EC24     		mov	r4, #236
 5848 2b48 A400     		lsl	r4, r4, #2
 5849 2b4a E419     		add	r4, r4, r7
 5850 2b4c E218     		add	r2, r4, r3
 5851 2b4e EB21     		mov	r1, #235
 5852 2b50 8900     		lsl	r1, r1, #2
 5853 2b52 C919     		add	r1, r1, r7
 5854 2b54 0B68     		ldr	r3, [r1]
 5855 2b56 DB00     		lsl	r3, r3, #3
 5856 2b58 D318     		add	r3, r2, r3
 5857 2b5a 5C68     		ldr	r4, [r3, #4]
 5858 2b5c 1B68     		ldr	r3, [r3]
 5859 2b5e 181C     		mov	r0, r3
 5860 2b60 211C     		mov	r1, r4
 5861 2b62 D424     		mov	r4, #212
 5862 2b64 A400     		lsl	r4, r4, #2
 5863 2b66 E419     		add	r4, r4, r7
 5864 2b68 2268     		ldr	r2, [r4]
 5865 2b6a 6368     		ldr	r3, [r4, #4]
 5866 2b6c FFF7FEFF 		bl	__aeabi_dcmple
 5867 2b70 031C     		mov	r3, r0
 5868 2b72 002B     		cmp	r3, #0
 5869 2b74 00D1     		bne	.LCB5105
 5870 2b76 B1E0     		b	.L225	@long jump
 5871              	.LCB5105:
 5872              	.L314:
 529:../Sources/main.c **** 					area[i] = grausaida;
 5873              		.loc 1 529 0
 5874 2b78 194B     		ldr	r3, .L368+32
 5875 2b7a EC21     		mov	r1, #236
 5876 2b7c 8900     		lsl	r1, r1, #2
 5877 2b7e C919     		add	r1, r1, r7
 5878 2b80 CA18     		add	r2, r1, r3
 5879 2b82 EB24     		mov	r4, #235
 5880 2b84 A400     		lsl	r4, r4, #2
 5881 2b86 E419     		add	r4, r4, r7
 5882 2b88 2368     		ldr	r3, [r4]
 5883 2b8a DB00     		lsl	r3, r3, #3
 5884 2b8c D218     		add	r2, r2, r3
 5885 2b8e D421     		mov	r1, #212
 5886 2b90 8900     		lsl	r1, r1, #2
 5887 2b92 C919     		add	r1, r1, r7
 5888 2b94 0B68     		ldr	r3, [r1]
 5889 2b96 4C68     		ldr	r4, [r1, #4]
 5890 2b98 1360     		str	r3, [r2]
 5891 2b9a 5460     		str	r4, [r2, #4]
 5892 2b9c 9EE0     		b	.L225
 5893              	.L224:
 530:../Sources/main.c **** 
 531:../Sources/main.c **** 			} else if (servang < 1625) {
 5894              		.loc 1 531 0
 5895 2b9e D723     		mov	r3, #215
 5896 2ba0 9B00     		lsl	r3, r3, #2
 5897 2ba2 DB19     		add	r3, r3, r7
 5898 2ba4 1A68     		ldr	r2, [r3]
 5899 2ba6 CB23     		mov	r3, #203
 5900 2ba8 DB00     		lsl	r3, r3, #3
 5901 2baa 9A42     		cmp	r2, r3
 5902 2bac 1CDC     		bgt	.L227
 532:../Sources/main.c **** 				grausaida = 0;
 5903              		.loc 1 532 0
 5904 2bae 084B     		ldr	r3, .L368+16
 5905 2bb0 084C     		ldr	r4, .L368+20
 5906 2bb2 D421     		mov	r1, #212
 5907 2bb4 8900     		lsl	r1, r1, #2
 5908 2bb6 C919     		add	r1, r1, r7
 5909 2bb8 0B60     		str	r3, [r1]
 5910 2bba 4C60     		str	r4, [r1, #4]
 5911 2bbc 8EE0     		b	.L225
 5912              	.L369:
 5913 2bbe C046     		.align	3
 5914              	.L368:
 5915 2bc0 00000000 		.word	0
 5916 2bc4 00405F40 		.word	1079984128
 5917 2bc8 00000000 		.word	0
 5918 2bcc 00002A40 		.word	1076494336
 5919 2bd0 00000000 		.word	0
 5920 2bd4 00000000 		.word	0
 5921 2bd8 DB050000 		.word	1499
 5922 2bdc 59060000 		.word	1625
 5923 2be0 50FCFFFF 		.word	-944
 5924 2be4 D6060000 		.word	1750
 5925              	.L227:
 533:../Sources/main.c **** 			} else if (servang >= 1625 && servang <= 1750) {
 5926              		.loc 1 533 0
 5927 2be8 D723     		mov	r3, #215
 5928 2bea 9B00     		lsl	r3, r3, #2
 5929 2bec DB19     		add	r3, r3, r7
 5930 2bee 1A68     		ldr	r2, [r3]
 5931 2bf0 CB23     		mov	r3, #203
 5932 2bf2 DB00     		lsl	r3, r3, #3
 5933 2bf4 9A42     		cmp	r2, r3
 5934 2bf6 71DD     		ble	.L225
 5935              		.loc 1 533 0 is_stmt 0
 5936 2bf8 D724     		mov	r4, #215
 5937 2bfa A400     		lsl	r4, r4, #2
 5938 2bfc E419     		add	r4, r4, r7
 5939 2bfe 2268     		ldr	r2, [r4]
 5940 2c00 DB4B     		ldr	r3, .L370+24
 5941 2c02 9A42     		cmp	r2, r3
 5942 2c04 6ADC     		bgt	.L225
 534:../Sources/main.c **** 				grausaida = ((float) (servang / 125.0)) - (13.0); // reta h
 5943              		.loc 1 534 0 is_stmt 1
 5944 2c06 D721     		mov	r1, #215
 5945 2c08 8900     		lsl	r1, r1, #2
 5946 2c0a C919     		add	r1, r1, r7
 5947 2c0c 0868     		ldr	r0, [r1]
 5948 2c0e FFF7FEFF 		bl	__aeabi_i2d
 5949 2c12 031C     		mov	r3, r0
 5950 2c14 0C1C     		mov	r4, r1
 5951 2c16 181C     		mov	r0, r3
 5952 2c18 211C     		mov	r1, r4
 5953 2c1a D04B     		ldr	r3, .L370+4
 5954 2c1c CE4A     		ldr	r2, .L370
 5955 2c1e FFF7FEFF 		bl	__aeabi_ddiv
 5956 2c22 031C     		mov	r3, r0
 5957 2c24 0C1C     		mov	r4, r1
 5958 2c26 181C     		mov	r0, r3
 5959 2c28 211C     		mov	r1, r4
 5960 2c2a FFF7FEFF 		bl	__aeabi_d2f
 5961 2c2e 031C     		add	r3, r0, #0
 5962 2c30 181C     		add	r0, r3, #0
 5963 2c32 FFF7FEFF 		bl	__aeabi_f2d
 5964 2c36 031C     		mov	r3, r0
 5965 2c38 0C1C     		mov	r4, r1
 5966 2c3a 181C     		mov	r0, r3
 5967 2c3c 211C     		mov	r1, r4
 5968 2c3e C84A     		ldr	r2, .L370+8
 5969 2c40 C84B     		ldr	r3, .L370+12
 5970 2c42 FFF7FEFF 		bl	__aeabi_dsub
 5971 2c46 031C     		mov	r3, r0
 5972 2c48 0C1C     		mov	r4, r1
 5973 2c4a D422     		mov	r2, #212
 5974 2c4c 9200     		lsl	r2, r2, #2
 5975 2c4e D219     		add	r2, r2, r7
 5976 2c50 1360     		str	r3, [r2]
 5977 2c52 5460     		str	r4, [r2, #4]
 535:../Sources/main.c **** 				if (grausaida > pb)
 5978              		.loc 1 535 0
 5979 2c54 D423     		mov	r3, #212
 5980 2c56 9B00     		lsl	r3, r3, #2
 5981 2c58 DB19     		add	r3, r3, r7
 5982 2c5a 1868     		ldr	r0, [r3]
 5983 2c5c 5968     		ldr	r1, [r3, #4]
 5984 2c5e D824     		mov	r4, #216
 5985 2c60 A400     		lsl	r4, r4, #2
 5986 2c62 E419     		add	r4, r4, r7
 5987 2c64 2268     		ldr	r2, [r4]
 5988 2c66 6368     		ldr	r3, [r4, #4]
 5989 2c68 FFF7FEFF 		bl	__aeabi_dcmpgt
 5990 2c6c 031C     		mov	r3, r0
 5991 2c6e 002B     		cmp	r3, #0
 5992 2c70 09D0     		beq	.L228
 5993              	.L315:
 536:../Sources/main.c **** 					grausaida = pb;
 5994              		.loc 1 536 0
 5995 2c72 D821     		mov	r1, #216
 5996 2c74 8900     		lsl	r1, r1, #2
 5997 2c76 C919     		add	r1, r1, r7
 5998 2c78 0B68     		ldr	r3, [r1]
 5999 2c7a 4C68     		ldr	r4, [r1, #4]
 6000 2c7c D422     		mov	r2, #212
 6001 2c7e 9200     		lsl	r2, r2, #2
 6002 2c80 D219     		add	r2, r2, r7
 6003 2c82 1360     		str	r3, [r2]
 6004 2c84 5460     		str	r4, [r2, #4]
 6005              	.L228:
 537:../Sources/main.c **** 				if (area[i] <= grausaida)
 6006              		.loc 1 537 0
 6007 2c86 BB4B     		ldr	r3, .L370+28
 6008 2c88 EC24     		mov	r4, #236
 6009 2c8a A400     		lsl	r4, r4, #2
 6010 2c8c E419     		add	r4, r4, r7
 6011 2c8e E218     		add	r2, r4, r3
 6012 2c90 EB21     		mov	r1, #235
 6013 2c92 8900     		lsl	r1, r1, #2
 6014 2c94 C919     		add	r1, r1, r7
 6015 2c96 0B68     		ldr	r3, [r1]
 6016 2c98 DB00     		lsl	r3, r3, #3
 6017 2c9a D318     		add	r3, r2, r3
 6018 2c9c 5C68     		ldr	r4, [r3, #4]
 6019 2c9e 1B68     		ldr	r3, [r3]
 6020 2ca0 181C     		mov	r0, r3
 6021 2ca2 211C     		mov	r1, r4
 6022 2ca4 D424     		mov	r4, #212
 6023 2ca6 A400     		lsl	r4, r4, #2
 6024 2ca8 E419     		add	r4, r4, r7
 6025 2caa 2268     		ldr	r2, [r4]
 6026 2cac 6368     		ldr	r3, [r4, #4]
 6027 2cae FFF7FEFF 		bl	__aeabi_dcmple
 6028 2cb2 031C     		mov	r3, r0
 6029 2cb4 002B     		cmp	r3, #0
 6030 2cb6 11D0     		beq	.L225
 6031              	.L316:
 538:../Sources/main.c **** 					area[i] = grausaida;
 6032              		.loc 1 538 0
 6033 2cb8 AE4B     		ldr	r3, .L370+28
 6034 2cba EC21     		mov	r1, #236
 6035 2cbc 8900     		lsl	r1, r1, #2
 6036 2cbe C919     		add	r1, r1, r7
 6037 2cc0 CA18     		add	r2, r1, r3
 6038 2cc2 EB24     		mov	r4, #235
 6039 2cc4 A400     		lsl	r4, r4, #2
 6040 2cc6 E419     		add	r4, r4, r7
 6041 2cc8 2368     		ldr	r3, [r4]
 6042 2cca DB00     		lsl	r3, r3, #3
 6043 2ccc D218     		add	r2, r2, r3
 6044 2cce D421     		mov	r1, #212
 6045 2cd0 8900     		lsl	r1, r1, #2
 6046 2cd2 C919     		add	r1, r1, r7
 6047 2cd4 0B68     		ldr	r3, [r1]
 6048 2cd6 4C68     		ldr	r4, [r1, #4]
 6049 2cd8 1360     		str	r3, [r2]
 6050 2cda 5460     		str	r4, [r2, #4]
 6051              	.L225:
