   1              		.cpu cortex-m0
   2              		.fpu softvfp
   3              		.eabi_attribute 20, 1
   4              		.eabi_attribute 21, 1
   5              		.eabi_attribute 23, 3
   6              		.eabi_attribute 24, 1
   7              		.eabi_attribute 25, 1
   8              		.eabi_attribute 26, 1
   9              		.eabi_attribute 30, 6
  10              		.eabi_attribute 34, 0
  11              		.eabi_attribute 18, 4
  12              		.code	16
  13              		.file	"main.c"
  14              		.text
  15              	.Ltext0:
  16              		.cfi_sections	.debug_frame
  17              		.global	media
  18              		.section	.data.media,"aw",%progbits
  19              		.align	2
  22              	media:
  23 0000 00008042 		.word	1115684864
  24              		.comm	a,4,4
  25              		.comm	b,4,4
  26              		.comm	med,4,4
  27              		.global	spd
  28              		.section	.data.spd,"aw",%progbits
  29              		.align	2
  32              	spd:
  33 0000 00401C46 		.word	1176256512
  34              		.global	cogfinal
  35              		.section	.bss.cogfinal,"aw",%nobits
  36              		.align	2
  39              	cogfinal:
  40 0000 00000000 		.space	4
  41              		.global	x
  42              		.section	.bss.x,"aw",%nobits
  43              		.align	2
  46              	x:
  47 0000 00000000 		.space	4
  48              		.global	y
  49              		.section	.bss.y,"aw",%nobits
  50              		.align	2
  53              	y:
  54 0000 00000000 		.space	4
  55              		.global	__aeabi_ui2f
  56              		.global	__aeabi_fdiv
  57              		.section	.rodata
  58              		.align	2
  59              	.LC5:
  60 0000 0D0A00   		.ascii	"\015\012\000"
  61 0003 00       		.align	2
  62              	.LC7:
  63 0004 4C3A00   		.ascii	"L:\000"
  64 0007 00       		.align	2
  65              	.LC9:
  66 0008 255800   		.ascii	"%X\000"
  67              		.global	__aeabi_f2d
  68              		.global	__aeabi_ddiv
  69              		.global	__aeabi_dsub
  70              		.global	__aeabi_d2f
  71              		.global	__aeabi_fcmpgt
  72              		.global	__aeabi_fcmplt
  73 000b 00       		.section	.text.main,"ax",%progbits
  74              		.align	2
  75              		.global	main
  76              		.code	16
  77              		.thumb_func
  79              	main:
  80              	.LFB0:
  81              		.file 1 "../Sources/main.c"
   1:../Sources/main.c **** #include "derivative.h" /* include peripheral declarations */
   2:../Sources/main.c **** #include "TFC\TFC.h"
   3:../Sources/main.c **** #include "ServoCtrl.h"
   4:../Sources/main.c **** 
   5:../Sources/main.c **** float media = 64.0;
   6:../Sources/main.c **** uint32_t a,b,med;
   7:../Sources/main.c **** float spd = 10000.0;
   8:../Sources/main.c **** float cogfinal = 0.0;
   9:../Sources/main.c **** float x=0.0,y=0.0;
  10:../Sources/main.c **** 
  11:../Sources/main.c **** 
  12:../Sources/main.c ****   int main(void) {	
  82              		.loc 1 12 0
  83              		.cfi_startproc
  84 0000 90B5     		push	{r4, r7, lr}
  85              	.LCFI0:
  86              		.cfi_def_cfa_offset 12
  87              		.cfi_offset 4, -12
  88              		.cfi_offset 7, -8
  89              		.cfi_offset 14, -4
  90 0002 8BB0     		sub	sp, sp, #44
  91              	.LCFI1:
  92              		.cfi_def_cfa_offset 56
  93 0004 00AF     		add	r7, sp, #0
  94              	.LCFI2:
  95              		.cfi_def_cfa_register 7
  13:../Sources/main.c **** 	uint32_t t, i = 0, a = 0, b = 0,limiar = 0xFE0;	
  96              		.loc 1 13 0
  97 0006 0023     		mov	r3, #0
  98 0008 3B62     		str	r3, [r7, #32]
  99 000a 0023     		mov	r3, #0
 100 000c FB61     		str	r3, [r7, #28]
 101 000e 0023     		mov	r3, #0
 102 0010 BB61     		str	r3, [r7, #24]
 103 0012 FE23     		mov	r3, #254
 104 0014 1B01     		lsl	r3, r3, #4
 105 0016 7B61     		str	r3, [r7, #20]
  14:../Sources/main.c **** 	uint8_t transmissao=0; 
 106              		.loc 1 14 0
 107 0018 3B1C     		mov	r3, r7
 108 001a 1333     		add	r3, r3, #19
 109 001c 0022     		mov	r2, #0
 110 001e 1A70     		strb	r2, [r3]
  15:../Sources/main.c **** 	float dInput[2];
  16:../Sources/main.c **** 	float dServoAngle=0.0;
 111              		.loc 1 16 0
 112 0020 0023     		mov	r3, #0
 113 0022 FB60     		str	r3, [r7, #12]
  17:../Sources/main.c **** 	TFC_Init();
 114              		.loc 1 17 0
 115 0024 FFF7FEFF 		bl	TFC_Init
  18:../Sources/main.c **** 
  19:../Sources/main.c **** 	TFC_HBRIDGE_ENABLE;	
 116              		.loc 1 19 0
 117 0028 7F4B     		ldr	r3, .L22+16
 118 002a 8022     		mov	r2, #128
 119 002c 9203     		lsl	r2, r2, #14
 120 002e 5A60     		str	r2, [r3, #4]
 121              	.L17:
  20:../Sources/main.c **** 	
  21:../Sources/main.c **** 	for (;;) 
  22:../Sources/main.c **** 	{
  23:../Sources/main.c **** 		if (LineScanImageReady == 1) 
 122              		.loc 1 23 0
 123 0030 7E4B     		ldr	r3, .L22+20
 124 0032 1B78     		ldrb	r3, [r3]
 125 0034 DBB2     		uxtb	r3, r3
 126 0036 012B     		cmp	r3, #1
 127 0038 4FD1     		bne	.L2
  24:../Sources/main.c **** 		{
  25:../Sources/main.c **** 			a = 0;
 128              		.loc 1 25 0
 129 003a 0023     		mov	r3, #0
 130 003c FB61     		str	r3, [r7, #28]
  26:../Sources/main.c **** 			b = 127;
 131              		.loc 1 26 0
 132 003e 7F23     		mov	r3, #127
 133 0040 BB61     		str	r3, [r7, #24]
  27:../Sources/main.c **** 			while (LineScanImage0[a] <= limiar || LineScanImage0[b] <= limiar) 
 134              		.loc 1 27 0
 135 0042 1BE0     		b	.L3
 136              	.L5:
  28:../Sources/main.c **** 			{
  29:../Sources/main.c **** 				if (LineScanImage0[a] <= limiar) 
 137              		.loc 1 29 0
 138 0044 7A4B     		ldr	r3, .L22+24
 139 0046 1A68     		ldr	r2, [r3]
 140 0048 FB69     		ldr	r3, [r7, #28]
 141 004a 5B00     		lsl	r3, r3, #1
 142 004c D318     		add	r3, r2, r3
 143 004e 1B88     		ldrh	r3, [r3]
 144 0050 9BB2     		uxth	r3, r3
 145 0052 1A1C     		mov	r2, r3
 146 0054 7B69     		ldr	r3, [r7, #20]
 147 0056 9A42     		cmp	r2, r3
 148 0058 02D8     		bhi	.L4
  30:../Sources/main.c **** 				{
  31:../Sources/main.c **** 					a++;
 149              		.loc 1 31 0
 150 005a FB69     		ldr	r3, [r7, #28]
 151 005c 0133     		add	r3, r3, #1
 152 005e FB61     		str	r3, [r7, #28]
 153              	.L4:
  32:../Sources/main.c **** 				}
  33:../Sources/main.c **** 				if (LineScanImage0[b] <= limiar) 
 154              		.loc 1 33 0
 155 0060 734B     		ldr	r3, .L22+24
 156 0062 1A68     		ldr	r2, [r3]
 157 0064 BB69     		ldr	r3, [r7, #24]
 158 0066 5B00     		lsl	r3, r3, #1
 159 0068 D318     		add	r3, r2, r3
 160 006a 1B88     		ldrh	r3, [r3]
 161 006c 9BB2     		uxth	r3, r3
 162 006e 1A1C     		mov	r2, r3
 163 0070 7B69     		ldr	r3, [r7, #20]
 164 0072 9A42     		cmp	r2, r3
 165 0074 02D8     		bhi	.L3
  34:../Sources/main.c **** 				{
  35:../Sources/main.c **** 					b--;
 166              		.loc 1 35 0
 167 0076 BB69     		ldr	r3, [r7, #24]
 168 0078 013B     		sub	r3, r3, #1
 169 007a BB61     		str	r3, [r7, #24]
 170              	.L3:
  27:../Sources/main.c **** 			while (LineScanImage0[a] <= limiar || LineScanImage0[b] <= limiar) 
 171              		.loc 1 27 0
 172 007c 6C4B     		ldr	r3, .L22+24
 173 007e 1A68     		ldr	r2, [r3]
 174 0080 FB69     		ldr	r3, [r7, #28]
 175 0082 5B00     		lsl	r3, r3, #1
 176 0084 D318     		add	r3, r2, r3
 177 0086 1B88     		ldrh	r3, [r3]
 178 0088 9BB2     		uxth	r3, r3
 179 008a 1A1C     		mov	r2, r3
 180 008c 7B69     		ldr	r3, [r7, #20]
 181 008e 9A42     		cmp	r2, r3
 182 0090 D8D9     		bls	.L5
  27:../Sources/main.c **** 			while (LineScanImage0[a] <= limiar || LineScanImage0[b] <= limiar) 
 183              		.loc 1 27 0 is_stmt 0
 184 0092 674B     		ldr	r3, .L22+24
 185 0094 1A68     		ldr	r2, [r3]
 186 0096 BB69     		ldr	r3, [r7, #24]
 187 0098 5B00     		lsl	r3, r3, #1
 188 009a D318     		add	r3, r2, r3
 189 009c 1B88     		ldrh	r3, [r3]
 190 009e 9BB2     		uxth	r3, r3
 191 00a0 1A1C     		mov	r2, r3
 192 00a2 7B69     		ldr	r3, [r7, #20]
 193 00a4 9A42     		cmp	r2, r3
 194 00a6 CDD9     		bls	.L5
  36:../Sources/main.c **** 				}
  37:../Sources/main.c **** 			}
  38:../Sources/main.c **** 			if ((b - a) <=0) 
 195              		.loc 1 38 0 is_stmt 1
 196 00a8 BA69     		ldr	r2, [r7, #24]
 197 00aa FB69     		ldr	r3, [r7, #28]
 198 00ac 9A42     		cmp	r2, r3
 199 00ae 04D1     		bne	.L6
  39:../Sources/main.c **** 			{
  40:../Sources/main.c **** 				media = media;
 200              		.loc 1 40 0
 201 00b0 604B     		ldr	r3, .L22+28
 202 00b2 1A68     		ldr	r2, [r3]
 203 00b4 5F4B     		ldr	r3, .L22+28
 204 00b6 1A60     		str	r2, [r3]
 205 00b8 0FE0     		b	.L2
 206              	.L6:
  41:../Sources/main.c **** 			}
  42:../Sources/main.c **** 			else 
  43:../Sources/main.c **** 			{
  44:../Sources/main.c **** 				media = (float) (a + b) / 2;
 207              		.loc 1 44 0
 208 00ba FA69     		ldr	r2, [r7, #28]
 209 00bc BB69     		ldr	r3, [r7, #24]
 210 00be D318     		add	r3, r2, r3
 211 00c0 181C     		mov	r0, r3
 212 00c2 FFF7FEFF 		bl	__aeabi_ui2f
 213 00c6 031C     		add	r3, r0, #0
 214 00c8 181C     		add	r0, r3, #0
 215 00ca 8021     		mov	r1, #128
 216 00cc C905     		lsl	r1, r1, #23
 217 00ce FFF7FEFF 		bl	__aeabi_fdiv
 218 00d2 031C     		add	r3, r0, #0
 219 00d4 1A1C     		add	r2, r3, #0
 220 00d6 574B     		ldr	r3, .L22+28
 221 00d8 1A60     		str	r2, [r3]
 222              	.L2:
  45:../Sources/main.c **** 			}
  46:../Sources/main.c **** 		}
  47:../Sources/main.c **** 
  48:../Sources/main.c **** 		//Demo Mode 3 will be in Freescale Garage Mode.  It will beam data from the Camera to the 
  49:../Sources/main.c **** 		//Labview Application
  50:../Sources/main.c **** 
  51:../Sources/main.c **** 		if (TFC_Ticker[0] > 100 && LineScanImageReady == 1) 
 223              		.loc 1 51 0
 224 00da 574B     		ldr	r3, .L22+32
 225 00dc 1B68     		ldr	r3, [r3]
 226 00de 642B     		cmp	r3, #100
 227 00e0 3DD9     		bls	.L7
 228              		.loc 1 51 0 is_stmt 0
 229 00e2 524B     		ldr	r3, .L22+20
 230 00e4 1B78     		ldrb	r3, [r3]
 231 00e6 DBB2     		uxtb	r3, r3
 232 00e8 012B     		cmp	r3, #1
 233 00ea 38D1     		bne	.L7
  52:../Sources/main.c **** 		{
  53:../Sources/main.c **** 			TFC_Ticker[0] = 0;
 234              		.loc 1 53 0 is_stmt 1
 235 00ec 524B     		ldr	r3, .L22+32
 236 00ee 0022     		mov	r2, #0
 237 00f0 1A60     		str	r2, [r3]
  54:../Sources/main.c **** 			LineScanImageReady = 0;
 238              		.loc 1 54 0
 239 00f2 4E4B     		ldr	r3, .L22+20
 240 00f4 0022     		mov	r2, #0
 241 00f6 1A70     		strb	r2, [r3]
  55:../Sources/main.c **** 			TERMINAL_PRINTF("\r\n");
 242              		.loc 1 55 0
 243 00f8 504A     		ldr	r2, .L22+36
 244 00fa 514B     		ldr	r3, .L22+40
 245 00fc 101C     		mov	r0, r2
 246 00fe 191C     		mov	r1, r3
 247 0100 FFF7FEFF 		bl	Qprintf
  56:../Sources/main.c **** 			TERMINAL_PRINTF("L:");
 248              		.loc 1 56 0
 249 0104 4D4A     		ldr	r2, .L22+36
 250 0106 4F4B     		ldr	r3, .L22+44
 251 0108 101C     		mov	r0, r2
 252 010a 191C     		mov	r1, r3
 253 010c FFF7FEFF 		bl	Qprintf
  57:../Sources/main.c **** 
  58:../Sources/main.c **** 			if (t == 0)
 254              		.loc 1 58 0
 255 0110 7B6A     		ldr	r3, [r7, #36]
 256 0112 002B     		cmp	r3, #0
 257 0114 02D1     		bne	.L8
  59:../Sources/main.c **** 				t = 3;
 258              		.loc 1 59 0
 259 0116 0323     		mov	r3, #3
 260 0118 7B62     		str	r3, [r7, #36]
 261 011a 02E0     		b	.L9
 262              	.L8:
  60:../Sources/main.c **** 			else
  61:../Sources/main.c **** 				t--;
 263              		.loc 1 61 0
 264 011c 7B6A     		ldr	r3, [r7, #36]
 265 011e 013B     		sub	r3, r3, #1
 266 0120 7B62     		str	r3, [r7, #36]
 267              	.L9:
  62:../Sources/main.c **** 
  63:../Sources/main.c **** 			TFC_SetBatteryLED_Level(t);
 268              		.loc 1 63 0
 269 0122 7B6A     		ldr	r3, [r7, #36]
 270 0124 DBB2     		uxtb	r3, r3
 271 0126 181C     		mov	r0, r3
 272 0128 FFF7FEFF 		bl	TFC_SetBatteryLED_Level
  64:../Sources/main.c **** 
  65:../Sources/main.c **** 			for (i = 0; i < 128; i++) 
 273              		.loc 1 65 0
 274 012c 0023     		mov	r3, #0
 275 012e 3B62     		str	r3, [r7, #32]
 276 0130 12E0     		b	.L10
 277              	.L11:
  66:../Sources/main.c **** 			{	
  67:../Sources/main.c **** 				TERMINAL_PRINTF("%X", LineScanImage0[i]/16);
 278              		.loc 1 67 0
 279 0132 3F4B     		ldr	r3, .L22+24
 280 0134 1A68     		ldr	r2, [r3]
 281 0136 3B6A     		ldr	r3, [r7, #32]
 282 0138 5B00     		lsl	r3, r3, #1
 283 013a D318     		add	r3, r2, r3
 284 013c 1B88     		ldrh	r3, [r3]
 285 013e 9BB2     		uxth	r3, r3
 286 0140 1B09     		lsr	r3, r3, #4
 287 0142 9BB2     		uxth	r3, r3
 288 0144 3D49     		ldr	r1, .L22+36
 289 0146 404A     		ldr	r2, .L22+48
 290 0148 081C     		mov	r0, r1
 291 014a 111C     		mov	r1, r2
 292 014c 1A1C     		mov	r2, r3
 293 014e FFF7FEFF 		bl	Qprintf
  65:../Sources/main.c **** 			for (i = 0; i < 128; i++) 
 294              		.loc 1 65 0
 295 0152 3B6A     		ldr	r3, [r7, #32]
 296 0154 0133     		add	r3, r3, #1
 297 0156 3B62     		str	r3, [r7, #32]
 298              	.L10:
  65:../Sources/main.c **** 			for (i = 0; i < 128; i++) 
 299              		.loc 1 65 0 is_stmt 0
 300 0158 3B6A     		ldr	r3, [r7, #32]
 301 015a 7F2B     		cmp	r3, #127
 302 015c E9D9     		bls	.L11
 303              	.L7:
  68:../Sources/main.c **** 			}
  69:../Sources/main.c **** 
  70:../Sources/main.c **** /*			for (i = 0; i < 128; i++) 
  71:../Sources/main.c **** 			{
  72:../Sources/main.c **** 				TERMINAL_PRINTF("%X", LineScanImage1[i]);
  73:../Sources/main.c **** 				if (i == 127)
  74:../Sources/main.c **** 					TERMINAL_PRINTF("\r\n", LineScanImage1[i]);
  75:../Sources/main.c **** 				else
  76:../Sources/main.c **** 					TERMINAL_PRINTF(",", LineScanImage1[i]);
  77:../Sources/main.c **** 			}*/
  78:../Sources/main.c **** 		}
  79:../Sources/main.c **** 
  80:../Sources/main.c **** 		//TFC_Task must be called in your main loop.  This keeps certain processing happy (I.E. Serial po
  81:../Sources/main.c **** 		TFC_Task(); 		
 304              		.loc 1 81 0 is_stmt 1
 305 015e FFF7FEFF 		bl	TFC_Task
  82:../Sources/main.c **** 		dInput[0]= 10000.0;
 306              		.loc 1 82 0
 307 0162 3B1D     		add	r3, r7, #4
 308 0164 394A     		ldr	r2, .L22+52
 309 0166 1A60     		str	r2, [r3]
  83:../Sources/main.c **** 		dInput[1]= media;
 310              		.loc 1 83 0
 311 0168 324B     		ldr	r3, .L22+28
 312 016a 1A68     		ldr	r2, [r3]
 313 016c 3B1D     		add	r3, r7, #4
 314 016e 5A60     		str	r2, [r3, #4]
  84:../Sources/main.c **** 	
  85:../Sources/main.c **** 		dServoAngle = ServoCtrl_defuzzification(dInput[0],dInput[1]);
 315              		.loc 1 85 0
 316 0170 3B1D     		add	r3, r7, #4
 317 0172 1A68     		ldr	r2, [r3]
 318 0174 3B1D     		add	r3, r7, #4
 319 0176 5B68     		ldr	r3, [r3, #4]
 320 0178 101C     		add	r0, r2, #0
 321 017a 191C     		add	r1, r3, #0
 322 017c FFF7FEFF 		bl	ServoCtrl_defuzzification
 323 0180 031C     		add	r3, r0, #0
 324 0182 FB60     		str	r3, [r7, #12]
  86:../Sources/main.c **** 		x = ((dServoAngle * 1.0 )/ 500.0) - 3.0;
 325              		.loc 1 86 0
 326 0184 F868     		ldr	r0, [r7, #12]
 327 0186 FFF7FEFF 		bl	__aeabi_f2d
 328 018a 031C     		mov	r3, r0
 329 018c 0C1C     		mov	r4, r1
 330 018e 181C     		mov	r0, r3
 331 0190 211C     		mov	r1, r4
 332 0192 224B     		ldr	r3, .L22+4
 333 0194 204A     		ldr	r2, .L22
 334 0196 FFF7FEFF 		bl	__aeabi_ddiv
 335 019a 031C     		mov	r3, r0
 336 019c 0C1C     		mov	r4, r1
 337 019e 181C     		mov	r0, r3
 338 01a0 211C     		mov	r1, r4
 339 01a2 1F4A     		ldr	r2, .L22+8
 340 01a4 1F4B     		ldr	r3, .L22+12
 341 01a6 FFF7FEFF 		bl	__aeabi_dsub
 342 01aa 031C     		mov	r3, r0
 343 01ac 0C1C     		mov	r4, r1
 344 01ae 181C     		mov	r0, r3
 345 01b0 211C     		mov	r1, r4
 346 01b2 FFF7FEFF 		bl	__aeabi_d2f
 347 01b6 021C     		add	r2, r0, #0
 348 01b8 254B     		ldr	r3, .L22+56
 349 01ba 1A60     		str	r2, [r3]
  87:../Sources/main.c **** 		TFC_SetServo(0, x);
 350              		.loc 1 87 0
 351 01bc 244B     		ldr	r3, .L22+56
 352 01be 1B68     		ldr	r3, [r3]
 353 01c0 0020     		mov	r0, #0
 354 01c2 191C     		add	r1, r3, #0
 355 01c4 FFF7FEFF 		bl	TFC_SetServo
  88:../Sources/main.c **** 		if (dServoAngle > 1550) 
 356              		.loc 1 88 0
 357 01c8 F868     		ldr	r0, [r7, #12]
 358 01ca 2249     		ldr	r1, .L22+60
 359 01cc FFF7FEFF 		bl	__aeabi_fcmpgt
 360 01d0 031C     		mov	r3, r0
 361 01d2 002B     		cmp	r3, #0
 362 01d4 0AD0     		beq	.L20
 363              	.L18:
  89:../Sources/main.c **** 		{
  90:../Sources/main.c **** 			TFC_HBRIDGE_ENABLE;
 364              		.loc 1 90 0
 365 01d6 144B     		ldr	r3, .L22+16
 366 01d8 8022     		mov	r2, #128
 367 01da 9203     		lsl	r2, r2, #14
 368 01dc 5A60     		str	r2, [r3, #4]
  91:../Sources/main.c **** 			//	TFC_SetMotorPWM(0.7,(-1/20.0)*media + 5.0);
  92:../Sources/main.c **** 			TFC_SetMotorPWM(0.6,0.3);
 369              		.loc 1 92 0
 370 01de 1E4A     		ldr	r2, .L22+64
 371 01e0 1E4B     		ldr	r3, .L22+68
 372 01e2 101C     		add	r0, r2, #0
 373 01e4 191C     		add	r1, r3, #0
 374 01e6 FFF7FEFF 		bl	TFC_SetMotorPWM
  93:../Sources/main.c **** 								
  94:../Sources/main.c **** 
  95:../Sources/main.c **** 		}
  96:../Sources/main.c **** 		else if (dServoAngle < 1450) 
  97:../Sources/main.c **** 		{
  98:../Sources/main.c **** 		//	TFC_SetMotorPWM((1/20.0)*media - 1.5,0.7) ;
  99:../Sources/main.c **** 			TFC_SetMotorPWM(0.3,0.6);
 100:../Sources/main.c **** 			
 101:../Sources/main.c **** 		} 
 102:../Sources/main.c **** 		else 
 103:../Sources/main.c **** 		{
 104:../Sources/main.c **** 			TFC_SetMotorPWM(0.9,0.9);			
 105:../Sources/main.c **** 			//if(media >= a && media <= b )TFC_SetServo(0,0);
 106:../Sources/main.c **** 			
 107:../Sources/main.c **** 		}
 108:../Sources/main.c **** 	
 109:../Sources/main.c **** 	}
 375              		.loc 1 109 0
 376 01ea 21E7     		b	.L17
 377              	.L20:
  96:../Sources/main.c **** 		else if (dServoAngle < 1450) 
 378              		.loc 1 96 0
 379 01ec F868     		ldr	r0, [r7, #12]
 380 01ee 1C49     		ldr	r1, .L22+72
 381 01f0 FFF7FEFF 		bl	__aeabi_fcmplt
 382 01f4 031C     		mov	r3, r0
 383 01f6 002B     		cmp	r3, #0
 384 01f8 06D0     		beq	.L21
 385              	.L19:
  99:../Sources/main.c **** 			TFC_SetMotorPWM(0.3,0.6);
 386              		.loc 1 99 0
 387 01fa 184A     		ldr	r2, .L22+68
 388 01fc 164B     		ldr	r3, .L22+64
 389 01fe 101C     		add	r0, r2, #0
 390 0200 191C     		add	r1, r3, #0
 391 0202 FFF7FEFF 		bl	TFC_SetMotorPWM
 392              		.loc 1 109 0
 393 0206 13E7     		b	.L17
 394              	.L21:
 104:../Sources/main.c **** 			TFC_SetMotorPWM(0.9,0.9);			
 395              		.loc 1 104 0
 396 0208 164A     		ldr	r2, .L22+76
 397 020a 164B     		ldr	r3, .L22+76
 398 020c 101C     		add	r0, r2, #0
 399 020e 191C     		add	r1, r3, #0
 400 0210 FFF7FEFF 		bl	TFC_SetMotorPWM
 401              		.loc 1 109 0
 402 0214 0CE7     		b	.L17
 403              	.L23:
 404 0216 C046     		.align	3
 405              	.L22:
 406 0218 00000000 		.word	0
 407 021c 00407F40 		.word	1082081280
 408 0220 00000000 		.word	0
 409 0224 00000840 		.word	1074266112
 410 0228 00F10F40 		.word	1074786560
 411 022c 00000000 		.word	LineScanImageReady
 412 0230 00000000 		.word	LineScanImage0
 413 0234 00000000 		.word	media
 414 0238 00000000 		.word	TFC_Ticker
 415 023c 00000000 		.word	SDA_SERIAL_OUTGOING_QUEUE
 416 0240 00000000 		.word	.LC5
 417 0244 04000000 		.word	.LC7
 418 0248 08000000 		.word	.LC9
 419 024c 00401C46 		.word	1176256512
 420 0250 00000000 		.word	x
 421 0254 00C0C144 		.word	1153548288
 422 0258 9A99193F 		.word	1058642330
 423 025c 9A99993E 		.word	1050253722
 424 0260 0040B544 		.word	1152729088
 425 0264 6666663F 		.word	1063675494
 426              		.cfi_endproc
 427              	.LFE0:
 429              		.text
 430              	.Letext0:
 431              		.file 2 "C:/Freescale/CW MCU v10.6/MCU/ARM_GCC_Support/ewl/EWL_C/include/cstdint"
 432              		.file 3 "C:/Users/aluno/git/arm-kl25z/FRDM-TFC/Project_Headers/MKL25Z4.h"
 433              		.file 4 "C:/Users/aluno/git/arm-kl25z/FRDM-TFC/Project_Headers/TFC\\TFC_Queue.h"
 434              		.file 5 "C:/Users/aluno/git/arm-kl25z/FRDM-TFC/Project_Headers/TFC\\TFC_ARM_SysTick.h"
 435              		.file 6 "C:/Users/aluno/git/arm-kl25z/FRDM-TFC/Project_Headers/TFC\\TFC_LineScanCamera.h"
 436              		.file 7 "C:/Users/aluno/git/arm-kl25z/FRDM-TFC/Project_Headers/TFC\\TFC_UART.h"
DEFINED SYMBOLS
                            *ABS*:00000000 main.c
C:\Users\aluno\AppData\Local\Temp\ccj3gxzc.s:22     .data.media:00000000 media
C:\Users\aluno\AppData\Local\Temp\ccj3gxzc.s:19     .data.media:00000000 $d
                            *COM*:00000004 a
                            *COM*:00000004 b
                            *COM*:00000004 med
C:\Users\aluno\AppData\Local\Temp\ccj3gxzc.s:32     .data.spd:00000000 spd
C:\Users\aluno\AppData\Local\Temp\ccj3gxzc.s:29     .data.spd:00000000 $d
C:\Users\aluno\AppData\Local\Temp\ccj3gxzc.s:39     .bss.cogfinal:00000000 cogfinal
C:\Users\aluno\AppData\Local\Temp\ccj3gxzc.s:36     .bss.cogfinal:00000000 $d
C:\Users\aluno\AppData\Local\Temp\ccj3gxzc.s:46     .bss.x:00000000 x
C:\Users\aluno\AppData\Local\Temp\ccj3gxzc.s:43     .bss.x:00000000 $d
C:\Users\aluno\AppData\Local\Temp\ccj3gxzc.s:53     .bss.y:00000000 y
C:\Users\aluno\AppData\Local\Temp\ccj3gxzc.s:50     .bss.y:00000000 $d
C:\Users\aluno\AppData\Local\Temp\ccj3gxzc.s:58     .rodata:00000000 $d
C:\Users\aluno\AppData\Local\Temp\ccj3gxzc.s:74     .text.main:00000000 $t
C:\Users\aluno\AppData\Local\Temp\ccj3gxzc.s:79     .text.main:00000000 main
C:\Users\aluno\AppData\Local\Temp\ccj3gxzc.s:406    .text.main:00000218 $d
                     .debug_frame:00000010 $d

UNDEFINED SYMBOLS
__aeabi_ui2f
__aeabi_fdiv
__aeabi_f2d
__aeabi_ddiv
__aeabi_dsub
__aeabi_d2f
__aeabi_fcmpgt
__aeabi_fcmplt
TFC_Init
Qprintf
TFC_SetBatteryLED_Level
TFC_Task
ServoCtrl_defuzzification
TFC_SetServo
TFC_SetMotorPWM
LineScanImageReady
LineScanImage0
TFC_Ticker
SDA_SERIAL_OUTGOING_QUEUE
